   1              		.cpu arm7tdmi
   2              		.fpu softvfp
   3              		.eabi_attribute 20, 1
   4              		.eabi_attribute 21, 1
   5              		.eabi_attribute 23, 3
   6              		.eabi_attribute 24, 1
   7              		.eabi_attribute 25, 1
   8              		.eabi_attribute 26, 1
   9              		.eabi_attribute 30, 6
  10              		.eabi_attribute 18, 4
  11              		.file	"lcd.c"
  21              	.Ltext0:
  22              		.file 1 "../lcd.c"
 3248              		.align	2
 3251              	limitX:
 3252 0000 3B010000 		.word	315
 3253              		.align	2
 3256              	limitY:
 3257 0004 DE000000 		.word	222
 3258              		.bss
 3259              		.align	2
 3260              	initX:
 3261 0000 00000000 		.space	4
 3262              		.data
 3263              		.align	2
 3266              	initY:
 3267 0008 0F000000 		.word	15
 3268              		.align	2
 3271              	spawnX:
 3272 000c 23000000 		.word	35
 3273              		.align	2
 3276              	spawnY:
 3277 0010 17000000 		.word	23
 3278              		.text
 3279              		.align	2
 3280              		.global	Lcd_Init
 3282              	Lcd_Init:
 3283              	.LFB0:
   1:../lcd.c      **** /*********************************************************************************************
   2:../lcd.c      **** * Fichero:	lcd.c
   3:../lcd.c      **** * Autor:	
   4:../lcd.c      **** * Descrip:	funciones de visualizacion y control LCD
   5:../lcd.c      **** * Version:	<P6-ARM>
   6:../lcd.c      **** *********************************************************************************************/
   7:../lcd.c      **** 
   8:../lcd.c      **** /*--- ficheros de cabecera ---*/
   9:../lcd.c      **** #include "def.h"
  10:../lcd.c      **** #include "44b.h"
  11:../lcd.c      **** #include "44blib.h"
  12:../lcd.c      **** #include "lcd.h"
  13:../lcd.c      **** #include "bmp.h"
  14:../lcd.c      **** #include "stdlib.h"
  15:../lcd.c      **** #include <stdio.h>
  16:../lcd.c      **** #include <string.h>
  17:../lcd.c      **** 
  18:../lcd.c      **** /*--- definicion de macros ---*/
  19:../lcd.c      **** #define DMA_Byte  (0)
  20:../lcd.c      **** #define DMA_HW    (1)
  21:../lcd.c      **** #define DMA_Word  (2)
  22:../lcd.c      **** #define DW 		  DMA_Byte		//configura  ZDMA0 como media palabras
  23:../lcd.c      **** 
  24:../lcd.c      **** // Definimos las posiciones de inicio y final del tablero
  25:../lcd.c      **** static int limitX = SCR_XSIZE-5;
  26:../lcd.c      **** static int limitY = SCR_YSIZE-18;
  27:../lcd.c      **** static int initX = 0;
  28:../lcd.c      **** static int initY = 15;
  29:../lcd.c      **** static int spawnX = 35;
  30:../lcd.c      **** static int spawnY = 23;
  31:../lcd.c      **** //static int tiempo_calculo = 0;
  32:../lcd.c      **** //static int tiempo_total = 0;
  33:../lcd.c      **** 	
  34:../lcd.c      **** /*--- variables externas ---*/
  35:../lcd.c      **** extern INT8U g_auc_Ascii8x16[];
  36:../lcd.c      **** extern STRU_BITMAP Stru_Bitmap_gbMouse;
  37:../lcd.c      **** //extern const char *num_ascii[];
  38:../lcd.c      **** extern unsigned int tiempoCalculo;
  39:../lcd.c      **** extern unsigned int tiempoTotal;
  40:../lcd.c      **** /*--- codigo de la funcion ---*/
  41:../lcd.c      **** void Lcd_Init(void)
  42:../lcd.c      **** {       
 3284              		.loc 1 42 0
 3285              		.cfi_startproc
 3286              		@ Function supports interworking.
 3287              		@ args = 0, pretend = 0, frame = 0
 3288              		@ frame_needed = 1, uses_anonymous_args = 0
 3289 0000 0DC0A0E1 		mov	ip, sp
 3290              	.LCFI0:
 3291              		.cfi_def_cfa_register 12
 3292 0004 00D82DE9 		stmfd	sp!, {fp, ip, lr, pc}
 3293 0008 04B04CE2 		sub	fp, ip, #4
 3294              		.cfi_offset 14, -8
 3295              		.cfi_offset 13, -12
 3296              		.cfi_offset 11, -16
 3297              	.LCFI1:
 3298              		.cfi_def_cfa 11, 4
  43:../lcd.c      **** 	rDITHMODE=0x1223a;
 3299              		.loc 1 43 0
 3300 000c FC309FE5 		ldr	r3, .L2
 3301 0010 FC209FE5 		ldr	r2, .L2+4
 3302 0014 002083E5 		str	r2, [r3, #0]
  44:../lcd.c      **** 	rDP1_2 =0x5a5a;      
 3303              		.loc 1 44 0
 3304 0018 F8309FE5 		ldr	r3, .L2+8
 3305 001c F8209FE5 		ldr	r2, .L2+12
 3306 0020 002083E5 		str	r2, [r3, #0]
  45:../lcd.c      **** 	rDP4_7 =0x366cd9b;
 3307              		.loc 1 45 0
 3308 0024 F4309FE5 		ldr	r3, .L2+16
 3309 0028 F4209FE5 		ldr	r2, .L2+20
 3310 002c 002083E5 		str	r2, [r3, #0]
  46:../lcd.c      **** 	rDP3_5 =0xda5a7;
 3311              		.loc 1 46 0
 3312 0030 F0309FE5 		ldr	r3, .L2+24
 3313 0034 F0209FE5 		ldr	r2, .L2+28
 3314 0038 002083E5 		str	r2, [r3, #0]
  47:../lcd.c      **** 	rDP2_3 =0xad7;
 3315              		.loc 1 47 0
 3316 003c EC309FE5 		ldr	r3, .L2+32
 3317 0040 EC209FE5 		ldr	r2, .L2+36
 3318 0044 002083E5 		str	r2, [r3, #0]
  48:../lcd.c      **** 	rDP5_7 =0xfeda5b7;
 3319              		.loc 1 48 0
 3320 0048 E8309FE5 		ldr	r3, .L2+40
 3321 004c E8209FE5 		ldr	r2, .L2+44
 3322 0050 002083E5 		str	r2, [r3, #0]
  49:../lcd.c      **** 	rDP3_4 =0xebd7;
 3323              		.loc 1 49 0
 3324 0054 E4309FE5 		ldr	r3, .L2+48
 3325 0058 E4209FE5 		ldr	r2, .L2+52
 3326 005c 002083E5 		str	r2, [r3, #0]
  50:../lcd.c      **** 	rDP4_5 =0xebfd7;
 3327              		.loc 1 50 0
 3328 0060 E0309FE5 		ldr	r3, .L2+56
 3329 0064 E0209FE5 		ldr	r2, .L2+60
 3330 0068 002083E5 		str	r2, [r3, #0]
  51:../lcd.c      **** 	rDP6_7 =0x7efdfbf;
 3331              		.loc 1 51 0
 3332 006c DC309FE5 		ldr	r3, .L2+64
 3333 0070 DC209FE5 		ldr	r2, .L2+68
 3334 0074 002083E5 		str	r2, [r3, #0]
  52:../lcd.c      **** 
  53:../lcd.c      **** 	rLCDCON1=(0)|(1<<5)|(MVAL_USED<<7)|(0x0<<8)|(0x0<<10)|(CLKVAL_GREY16<<12);
 3335              		.loc 1 53 0
 3336 0078 1F36A0E3 		mov	r3, #32505856
 3337 007c D4209FE5 		ldr	r2, .L2+72
 3338 0080 002083E5 		str	r2, [r3, #0]
  54:../lcd.c      **** 	rLCDCON2=(LINEVAL)|(HOZVAL<<10)|(10<<21); 
 3339              		.loc 1 54 0
 3340 0084 D0309FE5 		ldr	r3, .L2+76
 3341 0088 D0209FE5 		ldr	r2, .L2+80
 3342 008c 002083E5 		str	r2, [r3, #0]
  55:../lcd.c      **** 	rLCDSADDR1= (0x2<<27) | ( ((LCD_ACTIVE_BUFFER>>22)<<21 ) | M5D(LCD_ACTIVE_BUFFER>>1));
 3343              		.loc 1 55 0
 3344 0090 CC309FE5 		ldr	r3, .L2+84
 3345 0094 CC209FE5 		ldr	r2, .L2+88
 3346 0098 002083E5 		str	r2, [r3, #0]
  56:../lcd.c      ****  	rLCDSADDR2= M5D(((LCD_ACTIVE_BUFFER+(SCR_XSIZE*LCD_YSIZE/2))>>1)) | (MVAL<<21);
 3347              		.loc 1 56 0
 3348 009c C8309FE5 		ldr	r3, .L2+92
 3349 00a0 C8209FE5 		ldr	r2, .L2+96
 3350 00a4 002083E5 		str	r2, [r3, #0]
  57:../lcd.c      **** 	rLCDSADDR3= (LCD_XSIZE/4) | ( ((SCR_XSIZE-LCD_XSIZE)/4)<<9 );
 3351              		.loc 1 57 0
 3352 00a8 C4309FE5 		ldr	r3, .L2+100
 3353 00ac 5020A0E3 		mov	r2, #80
 3354 00b0 002083E5 		str	r2, [r3, #0]
  58:../lcd.c      **** 	// enable,4B_SNGL_SCAN,WDLY=8clk,WLH=8clk,
  59:../lcd.c      **** 	rLCDCON1=(1)|(1<<5)|(MVAL_USED<<7)|(0x3<<8)|(0x3<<10)|(CLKVAL_GREY16<<12);
 3355              		.loc 1 59 0
 3356 00b4 1F36A0E3 		mov	r3, #32505856
 3357 00b8 B8209FE5 		ldr	r2, .L2+104
 3358 00bc 002083E5 		str	r2, [r3, #0]
  60:../lcd.c      **** 	rBLUELUT=0xfa40;
 3359              		.loc 1 60 0
 3360 00c0 B4309FE5 		ldr	r3, .L2+108
 3361 00c4 B4209FE5 		ldr	r2, .L2+112
 3362 00c8 002083E5 		str	r2, [r3, #0]
  61:../lcd.c      **** 	//Enable LCD Logic and EL back-light.
  62:../lcd.c      **** 	rPDATE=rPDATE&0x0e;
 3363              		.loc 1 62 0
 3364 00cc B0309FE5 		ldr	r3, .L2+116
 3365 00d0 AC209FE5 		ldr	r2, .L2+116
 3366 00d4 002092E5 		ldr	r2, [r2, #0]
 3367 00d8 0E2002E2 		and	r2, r2, #14
 3368 00dc 002083E5 		str	r2, [r3, #0]
  63:../lcd.c      **** 	
  64:../lcd.c      **** 	//DMA ISR
  65:../lcd.c      **** 	rINTMSK &= ~(BIT_GLOBAL|BIT_ZDMA0);
 3369              		.loc 1 65 0
 3370 00e0 A0209FE5 		ldr	r2, .L2+120
 3371 00e4 9C309FE5 		ldr	r3, .L2+120
 3372 00e8 003093E5 		ldr	r3, [r3, #0]
 3373 00ec 0133C3E3 		bic	r3, r3, #67108864
 3374 00f0 0237C3E3 		bic	r3, r3, #524288
 3375 00f4 003082E5 		str	r3, [r2, #0]
  66:../lcd.c      ****     pISR_ZDMA0=(int)Zdma0Done;
 3376              		.loc 1 66 0
 3377 00f8 8C309FE5 		ldr	r3, .L2+124
 3378 00fc 8C209FE5 		ldr	r2, .L2+128
 3379 0100 002083E5 		str	r2, [r3, #0]
  67:../lcd.c      **** }
 3380              		.loc 1 67 0
 3381 0104 0CD04BE2 		sub	sp, fp, #12
 3382 0108 00689DE8 		ldmfd	sp, {fp, sp, lr}
 3383 010c 1EFF2FE1 		bx	lr
 3384              	.L3:
 3385              		.align	2
 3386              	.L2:
 3387 0110 4400F001 		.word	32505924
 3388 0114 3A220100 		.word	74298
 3389 0118 2000F001 		.word	32505888
 3390 011c 5A5A0000 		.word	23130
 3391 0120 2400F001 		.word	32505892
 3392 0124 9BCD6603 		.word	57068955
 3393 0128 2800F001 		.word	32505896
 3394 012c A7A50D00 		.word	894375
 3395 0130 2C00F001 		.word	32505900
 3396 0134 D70A0000 		.word	2775
 3397 0138 3000F001 		.word	32505904
 3398 013c B7A5ED0F 		.word	267232695
 3399 0140 3400F001 		.word	32505908
 3400 0144 D7EB0000 		.word	60375
 3401 0148 3800F001 		.word	32505912
 3402 014c D7BF0E00 		.word	966615
 3403 0150 3C00F001 		.word	32505916
 3404 0154 BFDFEF07 		.word	133160895
 3405 0158 20C00000 		.word	49184
 3406 015c 0400F001 		.word	32505860
 3407 0160 EF3C4101 		.word	21052655
 3408 0164 0800F001 		.word	32505864
 3409 0168 00001816 		.word	370671616
 3410 016c 0C00F001 		.word	32505868
 3411 0170 004BB801 		.word	28855040
 3412 0174 1000F001 		.word	32505872
 3413 0178 21CF0000 		.word	53025
 3414 017c 1C00F001 		.word	32505884
 3415 0180 40FA0000 		.word	64064
 3416 0184 2C00D201 		.word	30539820
 3417 0188 0C00E001 		.word	31457292
 3418 018c 6CFF7F0C 		.word	209715052
 3419 0190 00000000 		.word	Zdma0Done
 3420              		.cfi_endproc
 3421              	.LFE0:
 3423              		.align	2
 3424              		.global	Lcd_Active_Clr
 3426              	Lcd_Active_Clr:
 3427              	.LFB1:
  68:../lcd.c      **** 
  69:../lcd.c      **** /*********************************************************************************************
  70:../lcd.c      **** * name:		Lcd_Active_Clr()
  71:../lcd.c      **** * func:		clear LCD screen
  72:../lcd.c      **** * para:		none 
  73:../lcd.c      **** * ret:		none
  74:../lcd.c      **** * modify:
  75:../lcd.c      **** * comment:		
  76:../lcd.c      **** *********************************************************************************************/
  77:../lcd.c      **** void Lcd_Active_Clr(void)
  78:../lcd.c      **** {
 3428              		.loc 1 78 0
 3429              		.cfi_startproc
 3430              		@ Function supports interworking.
 3431              		@ args = 0, pretend = 0, frame = 8
 3432              		@ frame_needed = 1, uses_anonymous_args = 0
 3433 0194 0DC0A0E1 		mov	ip, sp
 3434              	.LCFI2:
 3435              		.cfi_def_cfa_register 12
 3436 0198 00D82DE9 		stmfd	sp!, {fp, ip, lr, pc}
 3437 019c 04B04CE2 		sub	fp, ip, #4
 3438              		.cfi_offset 14, -8
 3439              		.cfi_offset 13, -12
 3440              		.cfi_offset 11, -16
 3441              	.LCFI3:
 3442              		.cfi_def_cfa 11, 4
 3443 01a0 08D04DE2 		sub	sp, sp, #8
  79:../lcd.c      **** 	INT32U i;
  80:../lcd.c      **** 	INT32U *pDisp = (INT32U *)LCD_ACTIVE_BUFFER;
 3444              		.loc 1 80 0
 3445 01a4 C336A0E3 		mov	r3, #204472320
 3446 01a8 14300BE5 		str	r3, [fp, #-20]
  81:../lcd.c      **** 	
  82:../lcd.c      **** 	for( i = 0; i < (SCR_XSIZE*SCR_YSIZE/2/4); i++ )
 3447              		.loc 1 82 0
 3448 01ac 0030A0E3 		mov	r3, #0
 3449 01b0 10300BE5 		str	r3, [fp, #-16]
 3450 01b4 080000EA 		b	.L5
 3451              	.L6:
  83:../lcd.c      **** 	{
  84:../lcd.c      **** 		*pDisp++ = WHITE;
 3452              		.loc 1 84 0 discriminator 2
 3453 01b8 14301BE5 		ldr	r3, [fp, #-20]
 3454 01bc 0020A0E3 		mov	r2, #0
 3455 01c0 002083E5 		str	r2, [r3, #0]
 3456 01c4 14301BE5 		ldr	r3, [fp, #-20]
 3457 01c8 043083E2 		add	r3, r3, #4
 3458 01cc 14300BE5 		str	r3, [fp, #-20]
  82:../lcd.c      **** 	for( i = 0; i < (SCR_XSIZE*SCR_YSIZE/2/4); i++ )
 3459              		.loc 1 82 0 discriminator 2
 3460 01d0 10301BE5 		ldr	r3, [fp, #-16]
 3461 01d4 013083E2 		add	r3, r3, #1
 3462 01d8 10300BE5 		str	r3, [fp, #-16]
 3463              	.L5:
  82:../lcd.c      **** 	for( i = 0; i < (SCR_XSIZE*SCR_YSIZE/2/4); i++ )
 3464              		.loc 1 82 0 is_stmt 0 discriminator 1
 3465 01dc 10201BE5 		ldr	r2, [fp, #-16]
 3466 01e0 10309FE5 		ldr	r3, .L7
 3467 01e4 030052E1 		cmp	r2, r3
 3468 01e8 F2FFFF9A 		bls	.L6
  85:../lcd.c      **** 	}
  86:../lcd.c      **** }
 3469              		.loc 1 86 0 is_stmt 1
 3470 01ec 0CD04BE2 		sub	sp, fp, #12
 3471 01f0 00689DE8 		ldmfd	sp, {fp, sp, lr}
 3472 01f4 1EFF2FE1 		bx	lr
 3473              	.L8:
 3474              		.align	2
 3475              	.L7:
 3476 01f8 7F250000 		.word	9599
 3477              		.cfi_endproc
 3478              	.LFE1:
 3480              		.align	2
 3481              		.global	LCD_GetPixel
 3483              	LCD_GetPixel:
 3484              	.LFB2:
  87:../lcd.c      **** 
  88:../lcd.c      **** /*********************************************************************************************
  89:../lcd.c      **** * name:		Lcd_GetPixel()
  90:../lcd.c      **** * func:		Get appointed point's color value
  91:../lcd.c      **** * para:		usX,usY -- pot's X-Y coordinate 
  92:../lcd.c      **** * ret:		pot's color value
  93:../lcd.c      **** * modify:
  94:../lcd.c      **** * comment:		
  95:../lcd.c      **** *********************************************************************************************/
  96:../lcd.c      **** INT8U LCD_GetPixel(INT16U usX, INT16U usY)
  97:../lcd.c      **** {
 3485              		.loc 1 97 0
 3486              		.cfi_startproc
 3487              		@ Function supports interworking.
 3488              		@ args = 0, pretend = 0, frame = 16
 3489              		@ frame_needed = 1, uses_anonymous_args = 0
 3490 01fc 0DC0A0E1 		mov	ip, sp
 3491              	.LCFI4:
 3492              		.cfi_def_cfa_register 12
 3493 0200 00D82DE9 		stmfd	sp!, {fp, ip, lr, pc}
 3494 0204 04B04CE2 		sub	fp, ip, #4
 3495              		.cfi_offset 14, -8
 3496              		.cfi_offset 13, -12
 3497              		.cfi_offset 11, -16
 3498              	.LCFI5:
 3499              		.cfi_def_cfa 11, 4
 3500 0208 10D04DE2 		sub	sp, sp, #16
 3501 020c 0020A0E1 		mov	r2, r0
 3502 0210 0130A0E1 		mov	r3, r1
 3503 0214 B6214BE1 		strh	r2, [fp, #-22]	@ movhi
 3504 0218 B8314BE1 		strh	r3, [fp, #-24]	@ movhi
  98:../lcd.c      **** 	INT8U ucColor;
  99:../lcd.c      **** 
 100:../lcd.c      **** 	ucColor = *((INT8U*)(LCD_VIRTUAL_BUFFER + usY*SCR_XSIZE/2 + usX/8*4 + 3 - (usX%8)/2));
 3505              		.loc 1 100 0
 3506 021c B8215BE1 		ldrh	r2, [fp, #-24]
 3507 0220 0230A0E1 		mov	r3, r2
 3508 0224 0331A0E1 		mov	r3, r3, asl #2
 3509 0228 023083E0 		add	r3, r3, r2
 3510 022c 0333A0E1 		mov	r3, r3, asl #6
 3511 0230 A32FA0E1 		mov	r2, r3, lsr #31
 3512 0234 033082E0 		add	r3, r2, r3
 3513 0238 C330A0E1 		mov	r3, r3, asr #1
 3514 023c C33683E2 		add	r3, r3, #204472320
 3515 0240 963C83E2 		add	r3, r3, #38400
 3516 0244 B6215BE1 		ldrh	r2, [fp, #-22]
 3517 0248 A221A0E1 		mov	r2, r2, lsr #3
 3518 024c 0228A0E1 		mov	r2, r2, asl #16
 3519 0250 2228A0E1 		mov	r2, r2, lsr #16
 3520 0254 0221A0E1 		mov	r2, r2, asl #2
 3521 0258 023083E0 		add	r3, r3, r2
 3522 025c 032083E2 		add	r2, r3, #3
 3523 0260 B6315BE1 		ldrh	r3, [fp, #-22]	@ movhi
 3524 0264 073003E2 		and	r3, r3, #7
 3525 0268 0338A0E1 		mov	r3, r3, asl #16
 3526 026c 2338A0E1 		mov	r3, r3, lsr #16
 3527 0270 A330A0E1 		mov	r3, r3, lsr #1
 3528 0274 0338A0E1 		mov	r3, r3, asl #16
 3529 0278 2338A0E1 		mov	r3, r3, lsr #16
 3530 027c 023063E0 		rsb	r3, r3, r2
 3531 0280 0030D3E5 		ldrb	r3, [r3, #0]
 3532 0284 0D304BE5 		strb	r3, [fp, #-13]
 101:../lcd.c      **** 	ucColor = (ucColor >> ((1-(usX%2))*4)) & 0x0f;
 3533              		.loc 1 101 0
 3534 0288 0D205BE5 		ldrb	r2, [fp, #-13]	@ zero_extendqisi2
 3535 028c B6315BE1 		ldrh	r3, [fp, #-22]
 3536 0290 013003E2 		and	r3, r3, #1
 3537 0294 000053E3 		cmp	r3, #0
 3538 0298 0100001A 		bne	.L10
 3539              		.loc 1 101 0 is_stmt 0 discriminator 1
 3540 029c 0430A0E3 		mov	r3, #4
 3541 02a0 000000EA 		b	.L11
 3542              	.L10:
 3543              		.loc 1 101 0 discriminator 2
 3544 02a4 0030A0E3 		mov	r3, #0
 3545              	.L11:
 3546              		.loc 1 101 0 discriminator 3
 3547 02a8 5233A0E1 		mov	r3, r2, asr r3
 3548 02ac FF3003E2 		and	r3, r3, #255
 3549 02b0 0F3003E2 		and	r3, r3, #15
 3550 02b4 0D304BE5 		strb	r3, [fp, #-13]
 102:../lcd.c      **** 	return ucColor;
 3551              		.loc 1 102 0 is_stmt 1 discriminator 3
 3552 02b8 0D305BE5 		ldrb	r3, [fp, #-13]	@ zero_extendqisi2
 103:../lcd.c      **** }
 3553              		.loc 1 103 0 discriminator 3
 3554 02bc 0300A0E1 		mov	r0, r3
 3555 02c0 0CD04BE2 		sub	sp, fp, #12
 3556 02c4 00689DE8 		ldmfd	sp, {fp, sp, lr}
 3557 02c8 1EFF2FE1 		bx	lr
 3558              		.cfi_endproc
 3559              	.LFE2:
 3561              		.align	2
 3562              		.global	Lcd_Clr
 3564              	Lcd_Clr:
 3565              	.LFB3:
 104:../lcd.c      **** 
 105:../lcd.c      **** /*********************************************************************************************
 106:../lcd.c      **** * name:		Lcd_Active_Clr()
 107:../lcd.c      **** * func:		clear virtual screen
 108:../lcd.c      **** * para:		none 
 109:../lcd.c      **** * ret:		none
 110:../lcd.c      **** * modify:
 111:../lcd.c      **** * comment:		
 112:../lcd.c      **** *********************************************************************************************/
 113:../lcd.c      **** void Lcd_Clr(void)
 114:../lcd.c      **** {
 3566              		.loc 1 114 0
 3567              		.cfi_startproc
 3568              		@ Function supports interworking.
 3569              		@ args = 0, pretend = 0, frame = 8
 3570              		@ frame_needed = 1, uses_anonymous_args = 0
 3571 02cc 0DC0A0E1 		mov	ip, sp
 3572              	.LCFI6:
 3573              		.cfi_def_cfa_register 12
 3574 02d0 00D82DE9 		stmfd	sp!, {fp, ip, lr, pc}
 3575 02d4 04B04CE2 		sub	fp, ip, #4
 3576              		.cfi_offset 14, -8
 3577              		.cfi_offset 13, -12
 3578              		.cfi_offset 11, -16
 3579              	.LCFI7:
 3580              		.cfi_def_cfa 11, 4
 3581 02d8 08D04DE2 		sub	sp, sp, #8
 115:../lcd.c      **** 	INT32U i;
 116:../lcd.c      **** 	INT32U *pDisp = (INT32U *)LCD_VIRTUAL_BUFFER;
 3582              		.loc 1 116 0
 3583 02dc 4C309FE5 		ldr	r3, .L15
 3584 02e0 14300BE5 		str	r3, [fp, #-20]
 117:../lcd.c      **** 	
 118:../lcd.c      **** 	for( i = 0; i < (SCR_XSIZE*SCR_YSIZE/2/4); i++ )
 3585              		.loc 1 118 0
 3586 02e4 0030A0E3 		mov	r3, #0
 3587 02e8 10300BE5 		str	r3, [fp, #-16]
 3588 02ec 080000EA 		b	.L13
 3589              	.L14:
 119:../lcd.c      **** 	{
 120:../lcd.c      **** 		*pDisp++ = WHITE;
 3590              		.loc 1 120 0 discriminator 2
 3591 02f0 14301BE5 		ldr	r3, [fp, #-20]
 3592 02f4 0020A0E3 		mov	r2, #0
 3593 02f8 002083E5 		str	r2, [r3, #0]
 3594 02fc 14301BE5 		ldr	r3, [fp, #-20]
 3595 0300 043083E2 		add	r3, r3, #4
 3596 0304 14300BE5 		str	r3, [fp, #-20]
 118:../lcd.c      **** 	for( i = 0; i < (SCR_XSIZE*SCR_YSIZE/2/4); i++ )
 3597              		.loc 1 118 0 discriminator 2
 3598 0308 10301BE5 		ldr	r3, [fp, #-16]
 3599 030c 013083E2 		add	r3, r3, #1
 3600 0310 10300BE5 		str	r3, [fp, #-16]
 3601              	.L13:
 118:../lcd.c      **** 	for( i = 0; i < (SCR_XSIZE*SCR_YSIZE/2/4); i++ )
 3602              		.loc 1 118 0 is_stmt 0 discriminator 1
 3603 0314 10201BE5 		ldr	r2, [fp, #-16]
 3604 0318 14309FE5 		ldr	r3, .L15+4
 3605 031c 030052E1 		cmp	r2, r3
 3606 0320 F2FFFF9A 		bls	.L14
 121:../lcd.c      **** 	}
 122:../lcd.c      **** }
 3607              		.loc 1 122 0 is_stmt 1
 3608 0324 0CD04BE2 		sub	sp, fp, #12
 3609 0328 00689DE8 		ldmfd	sp, {fp, sp, lr}
 3610 032c 1EFF2FE1 		bx	lr
 3611              	.L16:
 3612              		.align	2
 3613              	.L15:
 3614 0330 0096300C 		.word	204510720
 3615 0334 7F250000 		.word	9599
 3616              		.cfi_endproc
 3617              	.LFE3:
 3619              		.align	2
 3620              		.global	LcdClrRect
 3622              	LcdClrRect:
 3623              	.LFB4:
 123:../lcd.c      **** 
 124:../lcd.c      **** /*********************************************************************************************
 125:../lcd.c      **** * name:		LcdClrRect()
 126:../lcd.c      **** * func:		fill appointed area with appointed color
 127:../lcd.c      **** * para:		usLeft,usTop,usRight,usBottom -- area's rectangle acme coordinate
 128:../lcd.c      **** *			ucColor -- appointed color value
 129:../lcd.c      **** * ret:		none
 130:../lcd.c      **** * modify:
 131:../lcd.c      **** * comment:	also as clear screen function 
 132:../lcd.c      **** *********************************************************************************************/
 133:../lcd.c      **** void LcdClrRect(INT16 usLeft, INT16 usTop, INT16 usRight, INT16 usBottom, INT8U ucColor)
 134:../lcd.c      **** {
 3624              		.loc 1 134 0
 3625              		.cfi_startproc
 3626              		@ Function supports interworking.
 3627              		@ args = 4, pretend = 0, frame = 24
 3628              		@ frame_needed = 1, uses_anonymous_args = 0
 3629 0338 0DC0A0E1 		mov	ip, sp
 3630              	.LCFI8:
 3631              		.cfi_def_cfa_register 12
 3632 033c 00D82DE9 		stmfd	sp!, {fp, ip, lr, pc}
 3633 0340 04B04CE2 		sub	fp, ip, #4
 3634              		.cfi_offset 14, -8
 3635              		.cfi_offset 13, -12
 3636              		.cfi_offset 11, -16
 3637              	.LCFI9:
 3638              		.cfi_def_cfa 11, 4
 3639 0344 18D04DE2 		sub	sp, sp, #24
 3640 0348 BE014BE1 		strh	r0, [fp, #-30]	@ movhi
 3641 034c B0124BE1 		strh	r1, [fp, #-32]	@ movhi
 3642 0350 B2224BE1 		strh	r2, [fp, #-34]	@ movhi
 3643 0354 B4324BE1 		strh	r3, [fp, #-36]	@ movhi
 135:../lcd.c      **** 	INT16 i,k,l,m;
 136:../lcd.c      **** 	
 137:../lcd.c      **** 	INT32U ulColor = (ucColor << 28) | (ucColor << 24) | (ucColor << 20) | (ucColor << 16) | 
 3644              		.loc 1 137 0
 3645 0358 0430DBE5 		ldrb	r3, [fp, #4]	@ zero_extendqisi2
 3646 035c 032EA0E1 		mov	r2, r3, asl #28
 3647 0360 0430DBE5 		ldrb	r3, [fp, #4]	@ zero_extendqisi2
 3648 0364 033CA0E1 		mov	r3, r3, asl #24
 3649 0368 032082E1 		orr	r2, r2, r3
 3650 036c 0430DBE5 		ldrb	r3, [fp, #4]	@ zero_extendqisi2
 3651 0370 033AA0E1 		mov	r3, r3, asl #20
 3652 0374 032082E1 		orr	r2, r2, r3
 3653 0378 0430DBE5 		ldrb	r3, [fp, #4]	@ zero_extendqisi2
 3654 037c 0338A0E1 		mov	r3, r3, asl #16
 3655 0380 032082E1 		orr	r2, r2, r3
 138:../lcd.c      **** 				     (ucColor << 12) | (ucColor << 8) | (ucColor << 4) | ucColor;
 3656              		.loc 1 138 0
 3657 0384 0430DBE5 		ldrb	r3, [fp, #4]	@ zero_extendqisi2
 3658 0388 0336A0E1 		mov	r3, r3, asl #12
 137:../lcd.c      **** 	INT32U ulColor = (ucColor << 28) | (ucColor << 24) | (ucColor << 20) | (ucColor << 16) | 
 3659              		.loc 1 137 0
 3660 038c 032082E1 		orr	r2, r2, r3
 3661              		.loc 1 138 0
 3662 0390 0430DBE5 		ldrb	r3, [fp, #4]	@ zero_extendqisi2
 3663 0394 0334A0E1 		mov	r3, r3, asl #8
 3664 0398 032082E1 		orr	r2, r2, r3
 3665 039c 0430DBE5 		ldrb	r3, [fp, #4]	@ zero_extendqisi2
 3666 03a0 0332A0E1 		mov	r3, r3, asl #4
 3667 03a4 032082E1 		orr	r2, r2, r3
 3668 03a8 0430DBE5 		ldrb	r3, [fp, #4]	@ zero_extendqisi2
 3669 03ac 033082E1 		orr	r3, r2, r3
 137:../lcd.c      **** 	INT32U ulColor = (ucColor << 28) | (ucColor << 24) | (ucColor << 20) | (ucColor << 16) | 
 3670              		.loc 1 137 0
 3671 03b0 18300BE5 		str	r3, [fp, #-24]
 139:../lcd.c      **** 
 140:../lcd.c      **** 	i = k = l = m = 0;	
 3672              		.loc 1 140 0
 3673 03b4 0030A0E3 		mov	r3, #0
 3674 03b8 B4314BE1 		strh	r3, [fp, #-20]	@ movhi
 3675 03bc B4315BE1 		ldrh	r3, [fp, #-20]	@ movhi
 3676 03c0 B2314BE1 		strh	r3, [fp, #-18]	@ movhi
 3677 03c4 B2315BE1 		ldrh	r3, [fp, #-18]	@ movhi
 3678 03c8 B0314BE1 		strh	r3, [fp, #-16]	@ movhi
 3679 03cc B0315BE1 		ldrh	r3, [fp, #-16]	@ movhi
 3680 03d0 BE304BE1 		strh	r3, [fp, #-14]	@ movhi
 141:../lcd.c      **** 	if( (usRight-usLeft) <= 8 )
 3681              		.loc 1 141 0
 3682 03d4 F2225BE1 		ldrsh	r2, [fp, #-34]
 3683 03d8 FE315BE1 		ldrsh	r3, [fp, #-30]
 3684 03dc 023063E0 		rsb	r3, r3, r2
 3685 03e0 080053E3 		cmp	r3, #8
 3686 03e4 5F0000CA 		bgt	.L18
 142:../lcd.c      **** 	{
 143:../lcd.c      **** 		for( i=usTop; i<=usBottom; i++)
 3687              		.loc 1 143 0
 3688 03e8 B0325BE1 		ldrh	r3, [fp, #-32]	@ movhi
 3689 03ec BE304BE1 		strh	r3, [fp, #-14]	@ movhi
 3690 03f0 570000EA 		b	.L19
 3691              	.L22:
 144:../lcd.c      **** 		{
 145:../lcd.c      **** 			for( m=usLeft; m<=usRight; m++)
 3692              		.loc 1 145 0
 3693 03f4 BE315BE1 		ldrh	r3, [fp, #-30]	@ movhi
 3694 03f8 B4314BE1 		strh	r3, [fp, #-20]	@ movhi
 3695 03fc 4D0000EA 		b	.L20
 3696              	.L21:
 146:../lcd.c      **** 			{
 147:../lcd.c      **** 				(LCD_PutPixel(m, i, ucColor));
 3697              		.loc 1 147 0 discriminator 2
 3698 0400 FE205BE1 		ldrsh	r2, [fp, #-14]
 3699 0404 0230A0E1 		mov	r3, r2
 3700 0408 0331A0E1 		mov	r3, r3, asl #2
 3701 040c 023083E0 		add	r3, r3, r2
 3702 0410 0333A0E1 		mov	r3, r3, asl #6
 3703 0414 A32FA0E1 		mov	r2, r3, lsr #31
 3704 0418 033082E0 		add	r3, r2, r3
 3705 041c C330A0E1 		mov	r3, r3, asr #1
 3706 0420 C32683E2 		add	r2, r3, #204472320
 3707 0424 962C82E2 		add	r2, r2, #38400
 3708 0428 F4315BE1 		ldrsh	r3, [fp, #-20]
 3709 042c 071083E2 		add	r1, r3, #7
 3710 0430 000053E3 		cmp	r3, #0
 3711 0434 0130A0B1 		movlt	r3, r1
 3712 0438 C331A0E1 		mov	r3, r3, asr #3
 3713 043c 0338A0E1 		mov	r3, r3, asl #16
 3714 0440 2338A0E1 		mov	r3, r3, lsr #16
 3715 0444 0338A0E1 		mov	r3, r3, asl #16
 3716 0448 4338A0E1 		mov	r3, r3, asr #16
 3717 044c 0331A0E1 		mov	r3, r3, asl #2
 3718 0450 033082E0 		add	r3, r2, r3
 3719 0454 0310A0E1 		mov	r1, r3
 3720 0458 FE205BE1 		ldrsh	r2, [fp, #-14]
 3721 045c 0230A0E1 		mov	r3, r2
 3722 0460 0331A0E1 		mov	r3, r3, asl #2
 3723 0464 023083E0 		add	r3, r3, r2
 3724 0468 0333A0E1 		mov	r3, r3, asl #6
 3725 046c A32FA0E1 		mov	r2, r3, lsr #31
 3726 0470 033082E0 		add	r3, r2, r3
 3727 0474 C330A0E1 		mov	r3, r3, asr #1
 3728 0478 C32683E2 		add	r2, r3, #204472320
 3729 047c 962C82E2 		add	r2, r2, #38400
 3730 0480 F4315BE1 		ldrsh	r3, [fp, #-20]
 3731 0484 070083E2 		add	r0, r3, #7
 3732 0488 000053E3 		cmp	r3, #0
 3733 048c 0030A0B1 		movlt	r3, r0
 3734 0490 C331A0E1 		mov	r3, r3, asr #3
 3735 0494 0338A0E1 		mov	r3, r3, asl #16
 3736 0498 2338A0E1 		mov	r3, r3, lsr #16
 3737 049c 0338A0E1 		mov	r3, r3, asl #16
 3738 04a0 4338A0E1 		mov	r3, r3, asr #16
 3739 04a4 0331A0E1 		mov	r3, r3, asl #2
 3740 04a8 033082E0 		add	r3, r2, r3
 3741 04ac 000093E5 		ldr	r0, [r3, #0]
 3742 04b0 F4215BE1 		ldrsh	r2, [fp, #-20]
 3743 04b4 C23FA0E1 		mov	r3, r2, asr #31
 3744 04b8 A33EA0E1 		mov	r3, r3, lsr #29
 3745 04bc 032082E0 		add	r2, r2, r3
 3746 04c0 072002E2 		and	r2, r2, #7
 3747 04c4 023063E0 		rsb	r3, r3, r2
 3748 04c8 0338A0E1 		mov	r3, r3, asl #16
 3749 04cc 2338A0E1 		mov	r3, r3, lsr #16
 3750 04d0 0338A0E1 		mov	r3, r3, asl #16
 3751 04d4 4338A0E1 		mov	r3, r3, asr #16
 3752 04d8 0331A0E1 		mov	r3, r3, asl #2
 3753 04dc 0F22A0E3 		mov	r2, #-268435456
 3754 04e0 3233A0E1 		mov	r3, r2, lsr r3
 3755 04e4 0330E0E1 		mvn	r3, r3
 3756 04e8 030000E0 		and	r0, r0, r3
 3757 04ec 04C0DBE5 		ldrb	ip, [fp, #4]	@ zero_extendqisi2
 3758 04f0 F4215BE1 		ldrsh	r2, [fp, #-20]
 3759 04f4 C23FA0E1 		mov	r3, r2, asr #31
 3760 04f8 A33EA0E1 		mov	r3, r3, lsr #29
 3761 04fc 032082E0 		add	r2, r2, r3
 3762 0500 072002E2 		and	r2, r2, #7
 3763 0504 023063E0 		rsb	r3, r3, r2
 3764 0508 0338A0E1 		mov	r3, r3, asl #16
 3765 050c 2338A0E1 		mov	r3, r3, lsr #16
 3766 0510 0338A0E1 		mov	r3, r3, asl #16
 3767 0514 4338A0E1 		mov	r3, r3, asr #16
 3768 0518 073063E2 		rsb	r3, r3, #7
 3769 051c 0331A0E1 		mov	r3, r3, asl #2
 3770 0520 1C33A0E1 		mov	r3, ip, asl r3
 3771 0524 033080E1 		orr	r3, r0, r3
 3772 0528 003081E5 		str	r3, [r1, #0]
 145:../lcd.c      **** 			for( m=usLeft; m<=usRight; m++)
 3773              		.loc 1 145 0 discriminator 2
 3774 052c B4315BE1 		ldrh	r3, [fp, #-20]	@ movhi
 3775 0530 013083E2 		add	r3, r3, #1
 3776 0534 B4314BE1 		strh	r3, [fp, #-20]	@ movhi
 3777              	.L20:
 145:../lcd.c      **** 			for( m=usLeft; m<=usRight; m++)
 3778              		.loc 1 145 0 is_stmt 0 discriminator 1
 3779 0538 F4215BE1 		ldrsh	r2, [fp, #-20]
 3780 053c F2325BE1 		ldrsh	r3, [fp, #-34]
 3781 0540 030052E1 		cmp	r2, r3
 3782 0544 ADFFFFDA 		ble	.L21
 143:../lcd.c      **** 		for( i=usTop; i<=usBottom; i++)
 3783              		.loc 1 143 0 is_stmt 1
 3784 0548 BE305BE1 		ldrh	r3, [fp, #-14]	@ movhi
 3785 054c 013083E2 		add	r3, r3, #1
 3786 0550 BE304BE1 		strh	r3, [fp, #-14]	@ movhi
 3787              	.L19:
 143:../lcd.c      **** 		for( i=usTop; i<=usBottom; i++)
 3788              		.loc 1 143 0 is_stmt 0 discriminator 1
 3789 0554 FE205BE1 		ldrsh	r2, [fp, #-14]
 3790 0558 F4325BE1 		ldrsh	r3, [fp, #-36]
 3791 055c 030052E1 		cmp	r2, r3
 3792 0560 A3FFFFDA 		ble	.L22
 148:../lcd.c      **** 			}
 149:../lcd.c      **** 		}	
 150:../lcd.c      **** 		return;
 3793              		.loc 1 150 0 is_stmt 1
 3794 0564 040100EA 		b	.L17
 3795              	.L18:
 151:../lcd.c      **** 	}
 152:../lcd.c      **** 
 153:../lcd.c      **** 	/* check borderline */
 154:../lcd.c      **** 	if( 0 == (usLeft%8) )
 3796              		.loc 1 154 0
 3797 0568 BE315BE1 		ldrh	r3, [fp, #-30]
 3798 056c 073003E2 		and	r3, r3, #7
 3799 0570 0338A0E1 		mov	r3, r3, asl #16
 3800 0574 2338A0E1 		mov	r3, r3, lsr #16
 3801 0578 000053E3 		cmp	r3, #0
 3802 057c 0200001A 		bne	.L24
 155:../lcd.c      **** 		k=usLeft;
 3803              		.loc 1 155 0
 3804 0580 BE315BE1 		ldrh	r3, [fp, #-30]	@ movhi
 3805 0584 B0314BE1 		strh	r3, [fp, #-16]	@ movhi
 3806 0588 0F0000EA 		b	.L25
 3807              	.L24:
 156:../lcd.c      **** 	else
 157:../lcd.c      **** 	{
 158:../lcd.c      **** 		k=(usLeft/8)*8+8;
 3808              		.loc 1 158 0
 3809 058c FE315BE1 		ldrsh	r3, [fp, #-30]
 3810 0590 072083E2 		add	r2, r3, #7
 3811 0594 000053E3 		cmp	r3, #0
 3812 0598 0230A0B1 		movlt	r3, r2
 3813 059c C331A0E1 		mov	r3, r3, asr #3
 3814 05a0 0338A0E1 		mov	r3, r3, asl #16
 3815 05a4 2338A0E1 		mov	r3, r3, lsr #16
 3816 05a8 0338A0E1 		mov	r3, r3, asl #16
 3817 05ac 4338A0E1 		mov	r3, r3, asr #16
 3818 05b0 013083E2 		add	r3, r3, #1
 3819 05b4 0338A0E1 		mov	r3, r3, asl #16
 3820 05b8 2338A0E1 		mov	r3, r3, lsr #16
 3821 05bc 8331A0E1 		mov	r3, r3, asl #3
 3822 05c0 0338A0E1 		mov	r3, r3, asl #16
 3823 05c4 2338A0E1 		mov	r3, r3, lsr #16
 3824 05c8 B0314BE1 		strh	r3, [fp, #-16]	@ movhi
 3825              	.L25:
 159:../lcd.c      **** 	}
 160:../lcd.c      **** 	if( 0 == (usRight%8) )
 3826              		.loc 1 160 0
 3827 05cc B2325BE1 		ldrh	r3, [fp, #-34]
 3828 05d0 073003E2 		and	r3, r3, #7
 3829 05d4 0338A0E1 		mov	r3, r3, asl #16
 3830 05d8 2338A0E1 		mov	r3, r3, lsr #16
 3831 05dc 000053E3 		cmp	r3, #0
 3832 05e0 0200001A 		bne	.L26
 161:../lcd.c      **** 		l= usRight;
 3833              		.loc 1 161 0
 3834 05e4 B2325BE1 		ldrh	r3, [fp, #-34]	@ movhi
 3835 05e8 B2314BE1 		strh	r3, [fp, #-18]	@ movhi
 3836 05ec 0C0000EA 		b	.L27
 3837              	.L26:
 162:../lcd.c      **** 	else
 163:../lcd.c      **** 	{
 164:../lcd.c      **** 		l=(usRight/8)*8;
 3838              		.loc 1 164 0
 3839 05f0 F2325BE1 		ldrsh	r3, [fp, #-34]
 3840 05f4 072083E2 		add	r2, r3, #7
 3841 05f8 000053E3 		cmp	r3, #0
 3842 05fc 0230A0B1 		movlt	r3, r2
 3843 0600 C331A0E1 		mov	r3, r3, asr #3
 3844 0604 0338A0E1 		mov	r3, r3, asl #16
 3845 0608 2338A0E1 		mov	r3, r3, lsr #16
 3846 060c 0338A0E1 		mov	r3, r3, asl #16
 3847 0610 2338A0E1 		mov	r3, r3, lsr #16
 3848 0614 8331A0E1 		mov	r3, r3, asl #3
 3849 0618 0338A0E1 		mov	r3, r3, asl #16
 3850 061c 2338A0E1 		mov	r3, r3, lsr #16
 3851 0620 B2314BE1 		strh	r3, [fp, #-18]	@ movhi
 3852              	.L27:
 165:../lcd.c      **** 	}
 166:../lcd.c      **** 
 167:../lcd.c      **** 	for( i=usTop; i<=usBottom; i++ )
 3853              		.loc 1 167 0
 3854 0624 B0325BE1 		ldrh	r3, [fp, #-32]	@ movhi
 3855 0628 BE304BE1 		strh	r3, [fp, #-14]	@ movhi
 3856 062c CE0000EA 		b	.L28
 3857              	.L35:
 168:../lcd.c      **** 	{
 169:../lcd.c      **** 		for( m=usLeft; m<=(k-1); m++ )
 3858              		.loc 1 169 0
 3859 0630 BE315BE1 		ldrh	r3, [fp, #-30]	@ movhi
 3860 0634 B4314BE1 		strh	r3, [fp, #-20]	@ movhi
 3861 0638 4D0000EA 		b	.L29
 3862              	.L30:
 170:../lcd.c      **** 		{
 171:../lcd.c      **** 			(LCD_PutPixel(m, i, ucColor));
 3863              		.loc 1 171 0 discriminator 2
 3864 063c FE205BE1 		ldrsh	r2, [fp, #-14]
 3865 0640 0230A0E1 		mov	r3, r2
 3866 0644 0331A0E1 		mov	r3, r3, asl #2
 3867 0648 023083E0 		add	r3, r3, r2
 3868 064c 0333A0E1 		mov	r3, r3, asl #6
 3869 0650 A32FA0E1 		mov	r2, r3, lsr #31
 3870 0654 033082E0 		add	r3, r2, r3
 3871 0658 C330A0E1 		mov	r3, r3, asr #1
 3872 065c C32683E2 		add	r2, r3, #204472320
 3873 0660 962C82E2 		add	r2, r2, #38400
 3874 0664 F4315BE1 		ldrsh	r3, [fp, #-20]
 3875 0668 071083E2 		add	r1, r3, #7
 3876 066c 000053E3 		cmp	r3, #0
 3877 0670 0130A0B1 		movlt	r3, r1
 3878 0674 C331A0E1 		mov	r3, r3, asr #3
 3879 0678 0338A0E1 		mov	r3, r3, asl #16
 3880 067c 2338A0E1 		mov	r3, r3, lsr #16
 3881 0680 0338A0E1 		mov	r3, r3, asl #16
 3882 0684 4338A0E1 		mov	r3, r3, asr #16
 3883 0688 0331A0E1 		mov	r3, r3, asl #2
 3884 068c 033082E0 		add	r3, r2, r3
 3885 0690 0310A0E1 		mov	r1, r3
 3886 0694 FE205BE1 		ldrsh	r2, [fp, #-14]
 3887 0698 0230A0E1 		mov	r3, r2
 3888 069c 0331A0E1 		mov	r3, r3, asl #2
 3889 06a0 023083E0 		add	r3, r3, r2
 3890 06a4 0333A0E1 		mov	r3, r3, asl #6
 3891 06a8 A32FA0E1 		mov	r2, r3, lsr #31
 3892 06ac 033082E0 		add	r3, r2, r3
 3893 06b0 C330A0E1 		mov	r3, r3, asr #1
 3894 06b4 C32683E2 		add	r2, r3, #204472320
 3895 06b8 962C82E2 		add	r2, r2, #38400
 3896 06bc F4315BE1 		ldrsh	r3, [fp, #-20]
 3897 06c0 070083E2 		add	r0, r3, #7
 3898 06c4 000053E3 		cmp	r3, #0
 3899 06c8 0030A0B1 		movlt	r3, r0
 3900 06cc C331A0E1 		mov	r3, r3, asr #3
 3901 06d0 0338A0E1 		mov	r3, r3, asl #16
 3902 06d4 2338A0E1 		mov	r3, r3, lsr #16
 3903 06d8 0338A0E1 		mov	r3, r3, asl #16
 3904 06dc 4338A0E1 		mov	r3, r3, asr #16
 3905 06e0 0331A0E1 		mov	r3, r3, asl #2
 3906 06e4 033082E0 		add	r3, r2, r3
 3907 06e8 000093E5 		ldr	r0, [r3, #0]
 3908 06ec F4215BE1 		ldrsh	r2, [fp, #-20]
 3909 06f0 C23FA0E1 		mov	r3, r2, asr #31
 3910 06f4 A33EA0E1 		mov	r3, r3, lsr #29
 3911 06f8 032082E0 		add	r2, r2, r3
 3912 06fc 072002E2 		and	r2, r2, #7
 3913 0700 023063E0 		rsb	r3, r3, r2
 3914 0704 0338A0E1 		mov	r3, r3, asl #16
 3915 0708 2338A0E1 		mov	r3, r3, lsr #16
 3916 070c 0338A0E1 		mov	r3, r3, asl #16
 3917 0710 4338A0E1 		mov	r3, r3, asr #16
 3918 0714 0331A0E1 		mov	r3, r3, asl #2
 3919 0718 0F22A0E3 		mov	r2, #-268435456
 3920 071c 3233A0E1 		mov	r3, r2, lsr r3
 3921 0720 0330E0E1 		mvn	r3, r3
 3922 0724 030000E0 		and	r0, r0, r3
 3923 0728 04C0DBE5 		ldrb	ip, [fp, #4]	@ zero_extendqisi2
 3924 072c F4215BE1 		ldrsh	r2, [fp, #-20]
 3925 0730 C23FA0E1 		mov	r3, r2, asr #31
 3926 0734 A33EA0E1 		mov	r3, r3, lsr #29
 3927 0738 032082E0 		add	r2, r2, r3
 3928 073c 072002E2 		and	r2, r2, #7
 3929 0740 023063E0 		rsb	r3, r3, r2
 3930 0744 0338A0E1 		mov	r3, r3, asl #16
 3931 0748 2338A0E1 		mov	r3, r3, lsr #16
 3932 074c 0338A0E1 		mov	r3, r3, asl #16
 3933 0750 4338A0E1 		mov	r3, r3, asr #16
 3934 0754 073063E2 		rsb	r3, r3, #7
 3935 0758 0331A0E1 		mov	r3, r3, asl #2
 3936 075c 1C33A0E1 		mov	r3, ip, asl r3
 3937 0760 033080E1 		orr	r3, r0, r3
 3938 0764 003081E5 		str	r3, [r1, #0]
 169:../lcd.c      **** 		for( m=usLeft; m<=(k-1); m++ )
 3939              		.loc 1 169 0 discriminator 2
 3940 0768 B4315BE1 		ldrh	r3, [fp, #-20]	@ movhi
 3941 076c 013083E2 		add	r3, r3, #1
 3942 0770 B4314BE1 		strh	r3, [fp, #-20]	@ movhi
 3943              	.L29:
 169:../lcd.c      **** 		for( m=usLeft; m<=(k-1); m++ )
 3944              		.loc 1 169 0 is_stmt 0 discriminator 1
 3945 0774 F4215BE1 		ldrsh	r2, [fp, #-20]
 3946 0778 F0315BE1 		ldrsh	r3, [fp, #-16]
 3947 077c 013043E2 		sub	r3, r3, #1
 3948 0780 030052E1 		cmp	r2, r3
 3949 0784 ACFFFFDA 		ble	.L30
 172:../lcd.c      **** 		}
 173:../lcd.c      **** 		for( m=k; m<l; m+=8 )
 3950              		.loc 1 173 0 is_stmt 1
 3951 0788 B0315BE1 		ldrh	r3, [fp, #-16]	@ movhi
 3952 078c B4314BE1 		strh	r3, [fp, #-20]	@ movhi
 3953 0790 190000EA 		b	.L31
 3954              	.L32:
 174:../lcd.c      **** 		{
 175:../lcd.c      **** 			(*(INT32U*)(LCD_VIRTUAL_BUFFER + i * SCR_XSIZE / 2 + m / 2)) = ulColor;
 3955              		.loc 1 175 0 discriminator 2
 3956 0794 FE205BE1 		ldrsh	r2, [fp, #-14]
 3957 0798 0230A0E1 		mov	r3, r2
 3958 079c 0331A0E1 		mov	r3, r3, asl #2
 3959 07a0 023083E0 		add	r3, r3, r2
 3960 07a4 0333A0E1 		mov	r3, r3, asl #6
 3961 07a8 A32FA0E1 		mov	r2, r3, lsr #31
 3962 07ac 033082E0 		add	r3, r2, r3
 3963 07b0 C330A0E1 		mov	r3, r3, asr #1
 3964 07b4 C33683E2 		add	r3, r3, #204472320
 3965 07b8 963C83E2 		add	r3, r3, #38400
 3966 07bc F4215BE1 		ldrsh	r2, [fp, #-20]
 3967 07c0 A21FA0E1 		mov	r1, r2, lsr #31
 3968 07c4 022081E0 		add	r2, r1, r2
 3969 07c8 C220A0E1 		mov	r2, r2, asr #1
 3970 07cc 0228A0E1 		mov	r2, r2, asl #16
 3971 07d0 2228A0E1 		mov	r2, r2, lsr #16
 3972 07d4 0228A0E1 		mov	r2, r2, asl #16
 3973 07d8 4228A0E1 		mov	r2, r2, asr #16
 3974 07dc 023083E0 		add	r3, r3, r2
 3975 07e0 18201BE5 		ldr	r2, [fp, #-24]
 3976 07e4 002083E5 		str	r2, [r3, #0]
 173:../lcd.c      **** 		for( m=k; m<l; m+=8 )
 3977              		.loc 1 173 0 discriminator 2
 3978 07e8 B4315BE1 		ldrh	r3, [fp, #-20]
 3979 07ec 083083E2 		add	r3, r3, #8
 3980 07f0 0338A0E1 		mov	r3, r3, asl #16
 3981 07f4 2338A0E1 		mov	r3, r3, lsr #16
 3982 07f8 B4314BE1 		strh	r3, [fp, #-20]	@ movhi
 3983              	.L31:
 173:../lcd.c      **** 		for( m=k; m<l; m+=8 )
 3984              		.loc 1 173 0 is_stmt 0 discriminator 1
 3985 07fc F4215BE1 		ldrsh	r2, [fp, #-20]
 3986 0800 F2315BE1 		ldrsh	r3, [fp, #-18]
 3987 0804 030052E1 		cmp	r2, r3
 3988 0808 E1FFFFBA 		blt	.L32
 176:../lcd.c      **** 		}
 177:../lcd.c      **** 		for( m=l; m<=usRight; m++ )
 3989              		.loc 1 177 0 is_stmt 1
 3990 080c B2315BE1 		ldrh	r3, [fp, #-18]	@ movhi
 3991 0810 B4314BE1 		strh	r3, [fp, #-20]	@ movhi
 3992 0814 4D0000EA 		b	.L33
 3993              	.L34:
 178:../lcd.c      **** 		{
 179:../lcd.c      **** 			(LCD_PutPixel(m, i, ucColor));
 3994              		.loc 1 179 0 discriminator 2
 3995 0818 FE205BE1 		ldrsh	r2, [fp, #-14]
 3996 081c 0230A0E1 		mov	r3, r2
 3997 0820 0331A0E1 		mov	r3, r3, asl #2
 3998 0824 023083E0 		add	r3, r3, r2
 3999 0828 0333A0E1 		mov	r3, r3, asl #6
 4000 082c A32FA0E1 		mov	r2, r3, lsr #31
 4001 0830 033082E0 		add	r3, r2, r3
 4002 0834 C330A0E1 		mov	r3, r3, asr #1
 4003 0838 C32683E2 		add	r2, r3, #204472320
 4004 083c 962C82E2 		add	r2, r2, #38400
 4005 0840 F4315BE1 		ldrsh	r3, [fp, #-20]
 4006 0844 071083E2 		add	r1, r3, #7
 4007 0848 000053E3 		cmp	r3, #0
 4008 084c 0130A0B1 		movlt	r3, r1
 4009 0850 C331A0E1 		mov	r3, r3, asr #3
 4010 0854 0338A0E1 		mov	r3, r3, asl #16
 4011 0858 2338A0E1 		mov	r3, r3, lsr #16
 4012 085c 0338A0E1 		mov	r3, r3, asl #16
 4013 0860 4338A0E1 		mov	r3, r3, asr #16
 4014 0864 0331A0E1 		mov	r3, r3, asl #2
 4015 0868 033082E0 		add	r3, r2, r3
 4016 086c 0310A0E1 		mov	r1, r3
 4017 0870 FE205BE1 		ldrsh	r2, [fp, #-14]
 4018 0874 0230A0E1 		mov	r3, r2
 4019 0878 0331A0E1 		mov	r3, r3, asl #2
 4020 087c 023083E0 		add	r3, r3, r2
 4021 0880 0333A0E1 		mov	r3, r3, asl #6
 4022 0884 A32FA0E1 		mov	r2, r3, lsr #31
 4023 0888 033082E0 		add	r3, r2, r3
 4024 088c C330A0E1 		mov	r3, r3, asr #1
 4025 0890 C32683E2 		add	r2, r3, #204472320
 4026 0894 962C82E2 		add	r2, r2, #38400
 4027 0898 F4315BE1 		ldrsh	r3, [fp, #-20]
 4028 089c 070083E2 		add	r0, r3, #7
 4029 08a0 000053E3 		cmp	r3, #0
 4030 08a4 0030A0B1 		movlt	r3, r0
 4031 08a8 C331A0E1 		mov	r3, r3, asr #3
 4032 08ac 0338A0E1 		mov	r3, r3, asl #16
 4033 08b0 2338A0E1 		mov	r3, r3, lsr #16
 4034 08b4 0338A0E1 		mov	r3, r3, asl #16
 4035 08b8 4338A0E1 		mov	r3, r3, asr #16
 4036 08bc 0331A0E1 		mov	r3, r3, asl #2
 4037 08c0 033082E0 		add	r3, r2, r3
 4038 08c4 000093E5 		ldr	r0, [r3, #0]
 4039 08c8 F4215BE1 		ldrsh	r2, [fp, #-20]
 4040 08cc C23FA0E1 		mov	r3, r2, asr #31
 4041 08d0 A33EA0E1 		mov	r3, r3, lsr #29
 4042 08d4 032082E0 		add	r2, r2, r3
 4043 08d8 072002E2 		and	r2, r2, #7
 4044 08dc 023063E0 		rsb	r3, r3, r2
 4045 08e0 0338A0E1 		mov	r3, r3, asl #16
 4046 08e4 2338A0E1 		mov	r3, r3, lsr #16
 4047 08e8 0338A0E1 		mov	r3, r3, asl #16
 4048 08ec 4338A0E1 		mov	r3, r3, asr #16
 4049 08f0 0331A0E1 		mov	r3, r3, asl #2
 4050 08f4 0F22A0E3 		mov	r2, #-268435456
 4051 08f8 3233A0E1 		mov	r3, r2, lsr r3
 4052 08fc 0330E0E1 		mvn	r3, r3
 4053 0900 030000E0 		and	r0, r0, r3
 4054 0904 04C0DBE5 		ldrb	ip, [fp, #4]	@ zero_extendqisi2
 4055 0908 F4215BE1 		ldrsh	r2, [fp, #-20]
 4056 090c C23FA0E1 		mov	r3, r2, asr #31
 4057 0910 A33EA0E1 		mov	r3, r3, lsr #29
 4058 0914 032082E0 		add	r2, r2, r3
 4059 0918 072002E2 		and	r2, r2, #7
 4060 091c 023063E0 		rsb	r3, r3, r2
 4061 0920 0338A0E1 		mov	r3, r3, asl #16
 4062 0924 2338A0E1 		mov	r3, r3, lsr #16
 4063 0928 0338A0E1 		mov	r3, r3, asl #16
 4064 092c 4338A0E1 		mov	r3, r3, asr #16
 4065 0930 073063E2 		rsb	r3, r3, #7
 4066 0934 0331A0E1 		mov	r3, r3, asl #2
 4067 0938 1C33A0E1 		mov	r3, ip, asl r3
 4068 093c 033080E1 		orr	r3, r0, r3
 4069 0940 003081E5 		str	r3, [r1, #0]
 177:../lcd.c      **** 		for( m=l; m<=usRight; m++ )
 4070              		.loc 1 177 0 discriminator 2
 4071 0944 B4315BE1 		ldrh	r3, [fp, #-20]	@ movhi
 4072 0948 013083E2 		add	r3, r3, #1
 4073 094c B4314BE1 		strh	r3, [fp, #-20]	@ movhi
 4074              	.L33:
 177:../lcd.c      **** 		for( m=l; m<=usRight; m++ )
 4075              		.loc 1 177 0 is_stmt 0 discriminator 1
 4076 0950 F4215BE1 		ldrsh	r2, [fp, #-20]
 4077 0954 F2325BE1 		ldrsh	r3, [fp, #-34]
 4078 0958 030052E1 		cmp	r2, r3
 4079 095c ADFFFFDA 		ble	.L34
 167:../lcd.c      **** 	for( i=usTop; i<=usBottom; i++ )
 4080              		.loc 1 167 0 is_stmt 1
 4081 0960 BE305BE1 		ldrh	r3, [fp, #-14]	@ movhi
 4082 0964 013083E2 		add	r3, r3, #1
 4083 0968 BE304BE1 		strh	r3, [fp, #-14]	@ movhi
 4084              	.L28:
 167:../lcd.c      **** 	for( i=usTop; i<=usBottom; i++ )
 4085              		.loc 1 167 0 is_stmt 0 discriminator 1
 4086 096c FE205BE1 		ldrsh	r2, [fp, #-14]
 4087 0970 F4325BE1 		ldrsh	r3, [fp, #-36]
 4088 0974 030052E1 		cmp	r2, r3
 4089 0978 2CFFFFDA 		ble	.L35
 4090              	.L17:
 180:../lcd.c      **** 		}
 181:../lcd.c      **** 	}
 182:../lcd.c      **** }
 4091              		.loc 1 182 0 is_stmt 1
 4092 097c 0CD04BE2 		sub	sp, fp, #12
 4093 0980 00689DE8 		ldmfd	sp, {fp, sp, lr}
 4094 0984 1EFF2FE1 		bx	lr
 4095              		.cfi_endproc
 4096              	.LFE4:
 4098              		.align	2
 4099              		.global	Lcd_Draw_Box
 4101              	Lcd_Draw_Box:
 4102              	.LFB5:
 183:../lcd.c      **** 
 184:../lcd.c      **** /*********************************************************************************************
 185:../lcd.c      **** * name:		Lcd_Draw_Box()
 186:../lcd.c      **** * func:		Draw rectangle with appointed color
 187:../lcd.c      **** * para:		usLeft,usTop,usRight,usBottom -- rectangle's acme coordinate
 188:../lcd.c      **** *			ucColor -- appointed color value
 189:../lcd.c      **** * ret:		none
 190:../lcd.c      **** * modify:
 191:../lcd.c      **** * comment:		
 192:../lcd.c      **** *********************************************************************************************/
 193:../lcd.c      **** void Lcd_Draw_Box(INT16 usLeft, INT16 usTop, INT16 usRight, INT16 usBottom, INT8U ucColor)
 194:../lcd.c      **** {
 4103              		.loc 1 194 0
 4104              		.cfi_startproc
 4105              		@ Function supports interworking.
 4106              		@ args = 4, pretend = 0, frame = 8
 4107              		@ frame_needed = 1, uses_anonymous_args = 0
 4108 0988 0DC0A0E1 		mov	ip, sp
 4109              	.LCFI10:
 4110              		.cfi_def_cfa_register 12
 4111 098c 00D82DE9 		stmfd	sp!, {fp, ip, lr, pc}
 4112 0990 04B04CE2 		sub	fp, ip, #4
 4113              		.cfi_offset 14, -8
 4114              		.cfi_offset 13, -12
 4115              		.cfi_offset 11, -16
 4116              	.LCFI11:
 4117              		.cfi_def_cfa 11, 4
 4118 0994 10D04DE2 		sub	sp, sp, #16
 4119 0998 BE004BE1 		strh	r0, [fp, #-14]	@ movhi
 4120 099c B0114BE1 		strh	r1, [fp, #-16]	@ movhi
 4121 09a0 B2214BE1 		strh	r2, [fp, #-18]	@ movhi
 4122 09a4 B4314BE1 		strh	r3, [fp, #-20]	@ movhi
 195:../lcd.c      **** 	Lcd_Draw_HLine(usLeft, usRight,  usTop,    ucColor, 3);
 4123              		.loc 1 195 0
 4124 09a8 FE005BE1 		ldrsh	r0, [fp, #-14]
 4125 09ac F2115BE1 		ldrsh	r1, [fp, #-18]
 4126 09b0 F0215BE1 		ldrsh	r2, [fp, #-16]
 4127 09b4 0430DBE5 		ldrb	r3, [fp, #4]	@ zero_extendqisi2
 4128 09b8 03C0A0E3 		mov	ip, #3
 4129 09bc 00C08DE5 		str	ip, [sp, #0]
 4130 09c0 FEFFFFEB 		bl	Lcd_Draw_HLine
 196:../lcd.c      **** 	Lcd_Draw_HLine(usLeft, usRight,  usBottom, ucColor, 3);
 4131              		.loc 1 196 0
 4132 09c4 FE005BE1 		ldrsh	r0, [fp, #-14]
 4133 09c8 F2115BE1 		ldrsh	r1, [fp, #-18]
 4134 09cc F4215BE1 		ldrsh	r2, [fp, #-20]
 4135 09d0 0430DBE5 		ldrb	r3, [fp, #4]	@ zero_extendqisi2
 4136 09d4 03C0A0E3 		mov	ip, #3
 4137 09d8 00C08DE5 		str	ip, [sp, #0]
 4138 09dc FEFFFFEB 		bl	Lcd_Draw_HLine
 197:../lcd.c      **** 	Lcd_Draw_VLine(usTop,  usBottom, usLeft,   ucColor, 3);
 4139              		.loc 1 197 0
 4140 09e0 F0015BE1 		ldrsh	r0, [fp, #-16]
 4141 09e4 F4115BE1 		ldrsh	r1, [fp, #-20]
 4142 09e8 FE205BE1 		ldrsh	r2, [fp, #-14]
 4143 09ec 0430DBE5 		ldrb	r3, [fp, #4]	@ zero_extendqisi2
 4144 09f0 03C0A0E3 		mov	ip, #3
 4145 09f4 00C08DE5 		str	ip, [sp, #0]
 4146 09f8 FEFFFFEB 		bl	Lcd_Draw_VLine
 198:../lcd.c      **** 	Lcd_Draw_VLine(usTop,  usBottom, usRight,  ucColor, 3);
 4147              		.loc 1 198 0
 4148 09fc F0015BE1 		ldrsh	r0, [fp, #-16]
 4149 0a00 F4115BE1 		ldrsh	r1, [fp, #-20]
 4150 0a04 F2215BE1 		ldrsh	r2, [fp, #-18]
 4151 0a08 0430DBE5 		ldrb	r3, [fp, #4]	@ zero_extendqisi2
 4152 0a0c 03C0A0E3 		mov	ip, #3
 4153 0a10 00C08DE5 		str	ip, [sp, #0]
 4154 0a14 FEFFFFEB 		bl	Lcd_Draw_VLine
 199:../lcd.c      **** }
 4155              		.loc 1 199 0
 4156 0a18 0CD04BE2 		sub	sp, fp, #12
 4157 0a1c 00689DE8 		ldmfd	sp, {fp, sp, lr}
 4158 0a20 1EFF2FE1 		bx	lr
 4159              		.cfi_endproc
 4160              	.LFE5:
 4162              		.global	__aeabi_idiv
 4163              		.align	2
 4164              		.global	Lcd_Draw_Line
 4166              	Lcd_Draw_Line:
 4167              	.LFB6:
 200:../lcd.c      **** 
 201:../lcd.c      **** /*********************************************************************************************
 202:../lcd.c      **** * name:		Lcd_Draw_Line()
 203:../lcd.c      **** * func:		Draw line with appointed color
 204:../lcd.c      **** * para:		usX0,usY0 -- line's start point coordinate
 205:../lcd.c      **** *			usX1,usY1 -- line's end point coordinate
 206:../lcd.c      **** *			ucColor -- appointed color value
 207:../lcd.c      **** *			usWidth -- line's width
 208:../lcd.c      **** * ret:		none
 209:../lcd.c      **** * modify:
 210:../lcd.c      **** * comment:		
 211:../lcd.c      **** *********************************************************************************************/
 212:../lcd.c      **** void Lcd_Draw_Line(INT16 usX0, INT16 usY0, INT16 usX1, INT16 usY1, INT8U ucColor, INT16U usWidth)
 213:../lcd.c      **** {
 4168              		.loc 1 213 0
 4169              		.cfi_startproc
 4170              		@ Function supports interworking.
 4171              		@ args = 8, pretend = 0, frame = 32
 4172              		@ frame_needed = 1, uses_anonymous_args = 0
 4173 0a24 0DC0A0E1 		mov	ip, sp
 4174              	.LCFI12:
 4175              		.cfi_def_cfa_register 12
 4176 0a28 00D82DE9 		stmfd	sp!, {fp, ip, lr, pc}
 4177 0a2c 04B04CE2 		sub	fp, ip, #4
 4178              		.cfi_offset 14, -8
 4179              		.cfi_offset 13, -12
 4180              		.cfi_offset 11, -16
 4181              	.LCFI13:
 4182              		.cfi_def_cfa 11, 4
 4183 0a30 28D04DE2 		sub	sp, sp, #40
 4184 0a34 B6024BE1 		strh	r0, [fp, #-38]	@ movhi
 4185 0a38 B8124BE1 		strh	r1, [fp, #-40]	@ movhi
 4186 0a3c BA224BE1 		strh	r2, [fp, #-42]	@ movhi
 4187 0a40 BC324BE1 		strh	r3, [fp, #-44]	@ movhi
 214:../lcd.c      **** 	INT16 usDx;
 215:../lcd.c      **** 	INT16 usDy;
 216:../lcd.c      **** 	INT16 y_sign;
 217:../lcd.c      **** 	INT16 x_sign;
 218:../lcd.c      **** 	INT16 decision;
 219:../lcd.c      **** 	INT16 wCurx, wCury, wNextx, wNexty, wpy, wpx;
 220:../lcd.c      **** 
 221:../lcd.c      **** 	if( usY0 == usY1 )
 4188              		.loc 1 221 0
 4189 0a44 F8225BE1 		ldrsh	r2, [fp, #-40]
 4190 0a48 FC325BE1 		ldrsh	r3, [fp, #-44]
 4191 0a4c 030052E1 		cmp	r2, r3
 4192 0a50 0700001A 		bne	.L38
 222:../lcd.c      **** 	{
 223:../lcd.c      **** 		Lcd_Draw_HLine (usX0, usX1, usY0, ucColor, usWidth);
 4193              		.loc 1 223 0
 4194 0a54 F6025BE1 		ldrsh	r0, [fp, #-38]
 4195 0a58 FA125BE1 		ldrsh	r1, [fp, #-42]
 4196 0a5c F8225BE1 		ldrsh	r2, [fp, #-40]
 4197 0a60 0430DBE5 		ldrb	r3, [fp, #4]	@ zero_extendqisi2
 4198 0a64 B8C0DBE1 		ldrh	ip, [fp, #8]
 4199 0a68 00C08DE5 		str	ip, [sp, #0]
 4200 0a6c FEFFFFEB 		bl	Lcd_Draw_HLine
 224:../lcd.c      **** 		return;
 4201              		.loc 1 224 0
 4202 0a70 3E0200EA 		b	.L37
 4203              	.L38:
 225:../lcd.c      **** 	}
 226:../lcd.c      **** 	if( usX0 == usX1 )
 4204              		.loc 1 226 0
 4205 0a74 F6225BE1 		ldrsh	r2, [fp, #-38]
 4206 0a78 FA325BE1 		ldrsh	r3, [fp, #-42]
 4207 0a7c 030052E1 		cmp	r2, r3
 4208 0a80 0700001A 		bne	.L40
 227:../lcd.c      **** 	{
 228:../lcd.c      **** 		Lcd_Draw_VLine (usY0, usY1, usX0, ucColor, usWidth);
 4209              		.loc 1 228 0
 4210 0a84 F8025BE1 		ldrsh	r0, [fp, #-40]
 4211 0a88 FC125BE1 		ldrsh	r1, [fp, #-44]
 4212 0a8c F6225BE1 		ldrsh	r2, [fp, #-38]
 4213 0a90 0430DBE5 		ldrb	r3, [fp, #4]	@ zero_extendqisi2
 4214 0a94 B8C0DBE1 		ldrh	ip, [fp, #8]
 4215 0a98 00C08DE5 		str	ip, [sp, #0]
 4216 0a9c FEFFFFEB 		bl	Lcd_Draw_VLine
 229:../lcd.c      **** 		return;
 4217              		.loc 1 229 0
 4218 0aa0 320200EA 		b	.L37
 4219              	.L40:
 230:../lcd.c      **** 	}
 231:../lcd.c      **** 	usDx = abs(usX0 - usX1);
 4220              		.loc 1 231 0
 4221 0aa4 F6225BE1 		ldrsh	r2, [fp, #-38]
 4222 0aa8 FA325BE1 		ldrsh	r3, [fp, #-42]
 4223 0aac 023063E0 		rsb	r3, r3, r2
 4224 0ab0 000053E3 		cmp	r3, #0
 4225 0ab4 003063B2 		rsblt	r3, r3, #0
 4226 0ab8 BC314BE1 		strh	r3, [fp, #-28]	@ movhi
 232:../lcd.c      **** 	usDy = abs(usY0 - usY1);
 4227              		.loc 1 232 0
 4228 0abc F8225BE1 		ldrsh	r2, [fp, #-40]
 4229 0ac0 FC325BE1 		ldrsh	r3, [fp, #-44]
 4230 0ac4 023063E0 		rsb	r3, r3, r2
 4231 0ac8 000053E3 		cmp	r3, #0
 4232 0acc 003063B2 		rsblt	r3, r3, #0
 4233 0ad0 BE314BE1 		strh	r3, [fp, #-30]	@ movhi
 233:../lcd.c      **** 	if( ((usDx >= usDy && (usX0 > usX1)) ||
 4234              		.loc 1 233 0
 4235 0ad4 FC215BE1 		ldrsh	r2, [fp, #-28]
 4236 0ad8 FE315BE1 		ldrsh	r3, [fp, #-30]
 4237 0adc 030052E1 		cmp	r2, r3
 4238 0ae0 030000BA 		blt	.L41
 4239              		.loc 1 233 0 is_stmt 0 discriminator 1
 4240 0ae4 F6225BE1 		ldrsh	r2, [fp, #-38]
 4241 0ae8 FA325BE1 		ldrsh	r3, [fp, #-42]
 4242 0aec 030052E1 		cmp	r2, r3
 4243 0af0 070000CA 		bgt	.L42
 4244              	.L41:
 4245              		.loc 1 233 0 discriminator 2
 4246 0af4 FE215BE1 		ldrsh	r2, [fp, #-30]
 4247 0af8 FC315BE1 		ldrsh	r3, [fp, #-28]
 4248 0afc 030052E1 		cmp	r2, r3
 4249 0b00 1B0000DA 		ble	.L43
 234:../lcd.c      ****         ((usDy > usDx) && (usY0 > usY1))) )
 4250              		.loc 1 234 0 is_stmt 1
 4251 0b04 F8225BE1 		ldrsh	r2, [fp, #-40]
 4252 0b08 FC325BE1 		ldrsh	r3, [fp, #-44]
 4253 0b0c 030052E1 		cmp	r2, r3
 4254 0b10 170000DA 		ble	.L43
 4255              	.L42:
 235:../lcd.c      ****     {
 236:../lcd.c      ****         GUISWAP(usX1, usX0);
 4256              		.loc 1 236 0
 4257 0b14 BA225BE1 		ldrh	r2, [fp, #-42]	@ movhi
 4258 0b18 B6325BE1 		ldrh	r3, [fp, #-38]	@ movhi
 4259 0b1c 033022E0 		eor	r3, r2, r3
 4260 0b20 BA324BE1 		strh	r3, [fp, #-42]	@ movhi
 4261 0b24 B6225BE1 		ldrh	r2, [fp, #-38]	@ movhi
 4262 0b28 BA325BE1 		ldrh	r3, [fp, #-42]	@ movhi
 4263 0b2c 033022E0 		eor	r3, r2, r3
 4264 0b30 B6324BE1 		strh	r3, [fp, #-38]	@ movhi
 4265 0b34 BA225BE1 		ldrh	r2, [fp, #-42]	@ movhi
 4266 0b38 B6325BE1 		ldrh	r3, [fp, #-38]	@ movhi
 4267 0b3c 033022E0 		eor	r3, r2, r3
 4268 0b40 BA324BE1 		strh	r3, [fp, #-42]	@ movhi
 237:../lcd.c      ****         GUISWAP(usY1, usY0);
 4269              		.loc 1 237 0
 4270 0b44 BC225BE1 		ldrh	r2, [fp, #-44]	@ movhi
 4271 0b48 B8325BE1 		ldrh	r3, [fp, #-40]	@ movhi
 4272 0b4c 033022E0 		eor	r3, r2, r3
 4273 0b50 BC324BE1 		strh	r3, [fp, #-44]	@ movhi
 4274 0b54 B8225BE1 		ldrh	r2, [fp, #-40]	@ movhi
 4275 0b58 BC325BE1 		ldrh	r3, [fp, #-44]	@ movhi
 4276 0b5c 033022E0 		eor	r3, r2, r3
 4277 0b60 B8324BE1 		strh	r3, [fp, #-40]	@ movhi
 4278 0b64 BC225BE1 		ldrh	r2, [fp, #-44]	@ movhi
 4279 0b68 B8325BE1 		ldrh	r3, [fp, #-40]	@ movhi
 4280 0b6c 033022E0 		eor	r3, r2, r3
 4281 0b70 BC324BE1 		strh	r3, [fp, #-44]	@ movhi
 4282              	.L43:
 238:../lcd.c      ****     }
 239:../lcd.c      ****     y_sign = (usY1 - usY0) / usDy;
 4283              		.loc 1 239 0
 4284 0b74 FC225BE1 		ldrsh	r2, [fp, #-44]
 4285 0b78 F8325BE1 		ldrsh	r3, [fp, #-40]
 4286 0b7c 022063E0 		rsb	r2, r3, r2
 4287 0b80 FE315BE1 		ldrsh	r3, [fp, #-30]
 4288 0b84 0200A0E1 		mov	r0, r2
 4289 0b88 0310A0E1 		mov	r1, r3
 4290 0b8c FEFFFFEB 		bl	__aeabi_idiv
 4291 0b90 0030A0E1 		mov	r3, r0
 4292 0b94 B0324BE1 		strh	r3, [fp, #-32]	@ movhi
 240:../lcd.c      ****     x_sign = (usX1 - usX0) / usDx;
 4293              		.loc 1 240 0
 4294 0b98 FA225BE1 		ldrsh	r2, [fp, #-42]
 4295 0b9c F6325BE1 		ldrsh	r3, [fp, #-38]
 4296 0ba0 022063E0 		rsb	r2, r3, r2
 4297 0ba4 FC315BE1 		ldrsh	r3, [fp, #-28]
 4298 0ba8 0200A0E1 		mov	r0, r2
 4299 0bac 0310A0E1 		mov	r1, r3
 4300 0bb0 FEFFFFEB 		bl	__aeabi_idiv
 4301 0bb4 0030A0E1 		mov	r3, r0
 4302 0bb8 B2324BE1 		strh	r3, [fp, #-34]	@ movhi
 241:../lcd.c      **** 
 242:../lcd.c      ****     if( usDx >= usDy )
 4303              		.loc 1 242 0
 4304 0bbc FC215BE1 		ldrsh	r2, [fp, #-28]
 4305 0bc0 FE315BE1 		ldrsh	r3, [fp, #-30]
 4306 0bc4 030052E1 		cmp	r2, r3
 4307 0bc8 F40000BA 		blt	.L44
 243:../lcd.c      ****     {
 244:../lcd.c      ****         for( wCurx = usX0, wCury = usY0, wNextx = usX1,
 4308              		.loc 1 244 0
 4309 0bcc B6325BE1 		ldrh	r3, [fp, #-38]	@ movhi
 4310 0bd0 B0314BE1 		strh	r3, [fp, #-16]	@ movhi
 4311 0bd4 B8325BE1 		ldrh	r3, [fp, #-40]	@ movhi
 4312 0bd8 B2314BE1 		strh	r3, [fp, #-18]	@ movhi
 4313 0bdc BA325BE1 		ldrh	r3, [fp, #-42]	@ movhi
 4314 0be0 B4314BE1 		strh	r3, [fp, #-20]	@ movhi
 245:../lcd.c      ****              wNexty = usY1, decision = (usDx >> 1);
 4315              		.loc 1 245 0
 4316 0be4 BC325BE1 		ldrh	r3, [fp, #-44]	@ movhi
 4317 0be8 B6314BE1 		strh	r3, [fp, #-22]	@ movhi
 4318 0bec FC315BE1 		ldrsh	r3, [fp, #-28]
 4319 0bf0 C330A0E1 		mov	r3, r3, asr #1
 4320 0bf4 BE304BE1 		strh	r3, [fp, #-14]	@ movhi
 244:../lcd.c      ****         for( wCurx = usX0, wCury = usY0, wNextx = usX1,
 4321              		.loc 1 244 0
 4322 0bf8 E30000EA 		b	.L45
 4323              	.L51:
 246:../lcd.c      ****              wCurx <= wNextx; wCurx++, wNextx--, decision += usDy )
 247:../lcd.c      ****         {
 248:../lcd.c      ****             if( decision >= usDx )
 4324              		.loc 1 248 0
 4325 0bfc FE205BE1 		ldrsh	r2, [fp, #-14]
 4326 0c00 FC315BE1 		ldrsh	r3, [fp, #-28]
 4327 0c04 030052E1 		cmp	r2, r3
 4328 0c08 110000BA 		blt	.L46
 249:../lcd.c      ****             {
 250:../lcd.c      ****                 decision -= usDx;
 4329              		.loc 1 250 0
 4330 0c0c BE205BE1 		ldrh	r2, [fp, #-14]
 4331 0c10 BC315BE1 		ldrh	r3, [fp, #-28]
 4332 0c14 023063E0 		rsb	r3, r3, r2
 4333 0c18 0338A0E1 		mov	r3, r3, asl #16
 4334 0c1c 2338A0E1 		mov	r3, r3, lsr #16
 4335 0c20 BE304BE1 		strh	r3, [fp, #-14]	@ movhi
 251:../lcd.c      ****                 wCury += y_sign;
 4336              		.loc 1 251 0
 4337 0c24 B2215BE1 		ldrh	r2, [fp, #-18]
 4338 0c28 B0325BE1 		ldrh	r3, [fp, #-32]
 4339 0c2c 033082E0 		add	r3, r2, r3
 4340 0c30 0338A0E1 		mov	r3, r3, asl #16
 4341 0c34 2338A0E1 		mov	r3, r3, lsr #16
 4342 0c38 B2314BE1 		strh	r3, [fp, #-18]	@ movhi
 252:../lcd.c      ****                 wNexty -= y_sign;
 4343              		.loc 1 252 0
 4344 0c3c B6215BE1 		ldrh	r2, [fp, #-22]
 4345 0c40 B0325BE1 		ldrh	r3, [fp, #-32]
 4346 0c44 023063E0 		rsb	r3, r3, r2
 4347 0c48 0338A0E1 		mov	r3, r3, asl #16
 4348 0c4c 2338A0E1 		mov	r3, r3, lsr #16
 4349 0c50 B6314BE1 		strh	r3, [fp, #-22]	@ movhi
 4350              	.L46:
 253:../lcd.c      ****             }
 254:../lcd.c      ****             for( wpy = wCury - usWidth / 2;
 4351              		.loc 1 254 0
 4352 0c54 B2215BE1 		ldrh	r2, [fp, #-18]
 4353 0c58 B830DBE1 		ldrh	r3, [fp, #8]
 4354 0c5c A330A0E1 		mov	r3, r3, lsr #1
 4355 0c60 0338A0E1 		mov	r3, r3, asl #16
 4356 0c64 2338A0E1 		mov	r3, r3, lsr #16
 4357 0c68 023063E0 		rsb	r3, r3, r2
 4358 0c6c 0338A0E1 		mov	r3, r3, asl #16
 4359 0c70 2338A0E1 		mov	r3, r3, lsr #16
 4360 0c74 B8314BE1 		strh	r3, [fp, #-24]	@ movhi
 4361 0c78 4D0000EA 		b	.L47
 4362              	.L48:
 255:../lcd.c      ****                  wpy <= wCury + usWidth / 2; wpy++ )
 256:../lcd.c      ****             {
 257:../lcd.c      ****                 LCD_PutPixel(wCurx, wpy, ucColor);
 4363              		.loc 1 257 0
 4364 0c7c F8215BE1 		ldrsh	r2, [fp, #-24]
 4365 0c80 0230A0E1 		mov	r3, r2
 4366 0c84 0331A0E1 		mov	r3, r3, asl #2
 4367 0c88 023083E0 		add	r3, r3, r2
 4368 0c8c 0333A0E1 		mov	r3, r3, asl #6
 4369 0c90 A32FA0E1 		mov	r2, r3, lsr #31
 4370 0c94 033082E0 		add	r3, r2, r3
 4371 0c98 C330A0E1 		mov	r3, r3, asr #1
 4372 0c9c C32683E2 		add	r2, r3, #204472320
 4373 0ca0 962C82E2 		add	r2, r2, #38400
 4374 0ca4 F0315BE1 		ldrsh	r3, [fp, #-16]
 4375 0ca8 071083E2 		add	r1, r3, #7
 4376 0cac 000053E3 		cmp	r3, #0
 4377 0cb0 0130A0B1 		movlt	r3, r1
 4378 0cb4 C331A0E1 		mov	r3, r3, asr #3
 4379 0cb8 0338A0E1 		mov	r3, r3, asl #16
 4380 0cbc 2338A0E1 		mov	r3, r3, lsr #16
 4381 0cc0 0338A0E1 		mov	r3, r3, asl #16
 4382 0cc4 4338A0E1 		mov	r3, r3, asr #16
 4383 0cc8 0331A0E1 		mov	r3, r3, asl #2
 4384 0ccc 033082E0 		add	r3, r2, r3
 4385 0cd0 0310A0E1 		mov	r1, r3
 4386 0cd4 F8215BE1 		ldrsh	r2, [fp, #-24]
 4387 0cd8 0230A0E1 		mov	r3, r2
 4388 0cdc 0331A0E1 		mov	r3, r3, asl #2
 4389 0ce0 023083E0 		add	r3, r3, r2
 4390 0ce4 0333A0E1 		mov	r3, r3, asl #6
 4391 0ce8 A32FA0E1 		mov	r2, r3, lsr #31
 4392 0cec 033082E0 		add	r3, r2, r3
 4393 0cf0 C330A0E1 		mov	r3, r3, asr #1
 4394 0cf4 C32683E2 		add	r2, r3, #204472320
 4395 0cf8 962C82E2 		add	r2, r2, #38400
 4396 0cfc F0315BE1 		ldrsh	r3, [fp, #-16]
 4397 0d00 070083E2 		add	r0, r3, #7
 4398 0d04 000053E3 		cmp	r3, #0
 4399 0d08 0030A0B1 		movlt	r3, r0
 4400 0d0c C331A0E1 		mov	r3, r3, asr #3
 4401 0d10 0338A0E1 		mov	r3, r3, asl #16
 4402 0d14 2338A0E1 		mov	r3, r3, lsr #16
 4403 0d18 0338A0E1 		mov	r3, r3, asl #16
 4404 0d1c 4338A0E1 		mov	r3, r3, asr #16
 4405 0d20 0331A0E1 		mov	r3, r3, asl #2
 4406 0d24 033082E0 		add	r3, r2, r3
 4407 0d28 000093E5 		ldr	r0, [r3, #0]
 4408 0d2c F0215BE1 		ldrsh	r2, [fp, #-16]
 4409 0d30 C23FA0E1 		mov	r3, r2, asr #31
 4410 0d34 A33EA0E1 		mov	r3, r3, lsr #29
 4411 0d38 032082E0 		add	r2, r2, r3
 4412 0d3c 072002E2 		and	r2, r2, #7
 4413 0d40 023063E0 		rsb	r3, r3, r2
 4414 0d44 0338A0E1 		mov	r3, r3, asl #16
 4415 0d48 2338A0E1 		mov	r3, r3, lsr #16
 4416 0d4c 0338A0E1 		mov	r3, r3, asl #16
 4417 0d50 4338A0E1 		mov	r3, r3, asr #16
 4418 0d54 0331A0E1 		mov	r3, r3, asl #2
 4419 0d58 0F22A0E3 		mov	r2, #-268435456
 4420 0d5c 3233A0E1 		mov	r3, r2, lsr r3
 4421 0d60 0330E0E1 		mvn	r3, r3
 4422 0d64 030000E0 		and	r0, r0, r3
 4423 0d68 04C0DBE5 		ldrb	ip, [fp, #4]	@ zero_extendqisi2
 4424 0d6c F0215BE1 		ldrsh	r2, [fp, #-16]
 4425 0d70 C23FA0E1 		mov	r3, r2, asr #31
 4426 0d74 A33EA0E1 		mov	r3, r3, lsr #29
 4427 0d78 032082E0 		add	r2, r2, r3
 4428 0d7c 072002E2 		and	r2, r2, #7
 4429 0d80 023063E0 		rsb	r3, r3, r2
 4430 0d84 0338A0E1 		mov	r3, r3, asl #16
 4431 0d88 2338A0E1 		mov	r3, r3, lsr #16
 4432 0d8c 0338A0E1 		mov	r3, r3, asl #16
 4433 0d90 4338A0E1 		mov	r3, r3, asr #16
 4434 0d94 073063E2 		rsb	r3, r3, #7
 4435 0d98 0331A0E1 		mov	r3, r3, asl #2
 4436 0d9c 1C33A0E1 		mov	r3, ip, asl r3
 4437 0da0 033080E1 		orr	r3, r0, r3
 4438 0da4 003081E5 		str	r3, [r1, #0]
 255:../lcd.c      ****                  wpy <= wCury + usWidth / 2; wpy++ )
 4439              		.loc 1 255 0
 4440 0da8 B8315BE1 		ldrh	r3, [fp, #-24]	@ movhi
 4441 0dac 013083E2 		add	r3, r3, #1
 4442 0db0 B8314BE1 		strh	r3, [fp, #-24]	@ movhi
 4443              	.L47:
 255:../lcd.c      ****                  wpy <= wCury + usWidth / 2; wpy++ )
 4444              		.loc 1 255 0 is_stmt 0 discriminator 1
 4445 0db4 F8215BE1 		ldrsh	r2, [fp, #-24]
 4446 0db8 F2115BE1 		ldrsh	r1, [fp, #-18]
 4447 0dbc B830DBE1 		ldrh	r3, [fp, #8]
 4448 0dc0 A330A0E1 		mov	r3, r3, lsr #1
 4449 0dc4 0338A0E1 		mov	r3, r3, asl #16
 4450 0dc8 2338A0E1 		mov	r3, r3, lsr #16
 4451 0dcc 033081E0 		add	r3, r1, r3
 254:../lcd.c      ****             for( wpy = wCury - usWidth / 2;
 4452              		.loc 1 254 0 is_stmt 1 discriminator 1
 4453 0dd0 030052E1 		cmp	r2, r3
 4454 0dd4 A8FFFFDA 		ble	.L48
 258:../lcd.c      ****             }
 259:../lcd.c      **** 
 260:../lcd.c      ****             for( wpy = wNexty - usWidth / 2;
 4455              		.loc 1 260 0
 4456 0dd8 B6215BE1 		ldrh	r2, [fp, #-22]
 4457 0ddc B830DBE1 		ldrh	r3, [fp, #8]
 4458 0de0 A330A0E1 		mov	r3, r3, lsr #1
 4459 0de4 0338A0E1 		mov	r3, r3, asl #16
 4460 0de8 2338A0E1 		mov	r3, r3, lsr #16
 4461 0dec 023063E0 		rsb	r3, r3, r2
 4462 0df0 0338A0E1 		mov	r3, r3, asl #16
 4463 0df4 2338A0E1 		mov	r3, r3, lsr #16
 4464 0df8 B8314BE1 		strh	r3, [fp, #-24]	@ movhi
 4465 0dfc 4D0000EA 		b	.L49
 4466              	.L50:
 261:../lcd.c      ****                  wpy <= wNexty + usWidth / 2; wpy++ )
 262:../lcd.c      ****             {
 263:../lcd.c      ****                 LCD_PutPixel(wNextx, wpy, ucColor);
 4467              		.loc 1 263 0
 4468 0e00 F8215BE1 		ldrsh	r2, [fp, #-24]
 4469 0e04 0230A0E1 		mov	r3, r2
 4470 0e08 0331A0E1 		mov	r3, r3, asl #2
 4471 0e0c 023083E0 		add	r3, r3, r2
 4472 0e10 0333A0E1 		mov	r3, r3, asl #6
 4473 0e14 A32FA0E1 		mov	r2, r3, lsr #31
 4474 0e18 033082E0 		add	r3, r2, r3
 4475 0e1c C330A0E1 		mov	r3, r3, asr #1
 4476 0e20 C32683E2 		add	r2, r3, #204472320
 4477 0e24 962C82E2 		add	r2, r2, #38400
 4478 0e28 F4315BE1 		ldrsh	r3, [fp, #-20]
 4479 0e2c 071083E2 		add	r1, r3, #7
 4480 0e30 000053E3 		cmp	r3, #0
 4481 0e34 0130A0B1 		movlt	r3, r1
 4482 0e38 C331A0E1 		mov	r3, r3, asr #3
 4483 0e3c 0338A0E1 		mov	r3, r3, asl #16
 4484 0e40 2338A0E1 		mov	r3, r3, lsr #16
 4485 0e44 0338A0E1 		mov	r3, r3, asl #16
 4486 0e48 4338A0E1 		mov	r3, r3, asr #16
 4487 0e4c 0331A0E1 		mov	r3, r3, asl #2
 4488 0e50 033082E0 		add	r3, r2, r3
 4489 0e54 0310A0E1 		mov	r1, r3
 4490 0e58 F8215BE1 		ldrsh	r2, [fp, #-24]
 4491 0e5c 0230A0E1 		mov	r3, r2
 4492 0e60 0331A0E1 		mov	r3, r3, asl #2
 4493 0e64 023083E0 		add	r3, r3, r2
 4494 0e68 0333A0E1 		mov	r3, r3, asl #6
 4495 0e6c A32FA0E1 		mov	r2, r3, lsr #31
 4496 0e70 033082E0 		add	r3, r2, r3
 4497 0e74 C330A0E1 		mov	r3, r3, asr #1
 4498 0e78 C32683E2 		add	r2, r3, #204472320
 4499 0e7c 962C82E2 		add	r2, r2, #38400
 4500 0e80 F4315BE1 		ldrsh	r3, [fp, #-20]
 4501 0e84 070083E2 		add	r0, r3, #7
 4502 0e88 000053E3 		cmp	r3, #0
 4503 0e8c 0030A0B1 		movlt	r3, r0
 4504 0e90 C331A0E1 		mov	r3, r3, asr #3
 4505 0e94 0338A0E1 		mov	r3, r3, asl #16
 4506 0e98 2338A0E1 		mov	r3, r3, lsr #16
 4507 0e9c 0338A0E1 		mov	r3, r3, asl #16
 4508 0ea0 4338A0E1 		mov	r3, r3, asr #16
 4509 0ea4 0331A0E1 		mov	r3, r3, asl #2
 4510 0ea8 033082E0 		add	r3, r2, r3
 4511 0eac 000093E5 		ldr	r0, [r3, #0]
 4512 0eb0 F4215BE1 		ldrsh	r2, [fp, #-20]
 4513 0eb4 C23FA0E1 		mov	r3, r2, asr #31
 4514 0eb8 A33EA0E1 		mov	r3, r3, lsr #29
 4515 0ebc 032082E0 		add	r2, r2, r3
 4516 0ec0 072002E2 		and	r2, r2, #7
 4517 0ec4 023063E0 		rsb	r3, r3, r2
 4518 0ec8 0338A0E1 		mov	r3, r3, asl #16
 4519 0ecc 2338A0E1 		mov	r3, r3, lsr #16
 4520 0ed0 0338A0E1 		mov	r3, r3, asl #16
 4521 0ed4 4338A0E1 		mov	r3, r3, asr #16
 4522 0ed8 0331A0E1 		mov	r3, r3, asl #2
 4523 0edc 0F22A0E3 		mov	r2, #-268435456
 4524 0ee0 3233A0E1 		mov	r3, r2, lsr r3
 4525 0ee4 0330E0E1 		mvn	r3, r3
 4526 0ee8 030000E0 		and	r0, r0, r3
 4527 0eec 04C0DBE5 		ldrb	ip, [fp, #4]	@ zero_extendqisi2
 4528 0ef0 F4215BE1 		ldrsh	r2, [fp, #-20]
 4529 0ef4 C23FA0E1 		mov	r3, r2, asr #31
 4530 0ef8 A33EA0E1 		mov	r3, r3, lsr #29
 4531 0efc 032082E0 		add	r2, r2, r3
 4532 0f00 072002E2 		and	r2, r2, #7
 4533 0f04 023063E0 		rsb	r3, r3, r2
 4534 0f08 0338A0E1 		mov	r3, r3, asl #16
 4535 0f0c 2338A0E1 		mov	r3, r3, lsr #16
 4536 0f10 0338A0E1 		mov	r3, r3, asl #16
 4537 0f14 4338A0E1 		mov	r3, r3, asr #16
 4538 0f18 073063E2 		rsb	r3, r3, #7
 4539 0f1c 0331A0E1 		mov	r3, r3, asl #2
 4540 0f20 1C33A0E1 		mov	r3, ip, asl r3
 4541 0f24 033080E1 		orr	r3, r0, r3
 4542 0f28 003081E5 		str	r3, [r1, #0]
 261:../lcd.c      ****                  wpy <= wNexty + usWidth / 2; wpy++ )
 4543              		.loc 1 261 0
 4544 0f2c B8315BE1 		ldrh	r3, [fp, #-24]	@ movhi
 4545 0f30 013083E2 		add	r3, r3, #1
 4546 0f34 B8314BE1 		strh	r3, [fp, #-24]	@ movhi
 4547              	.L49:
 261:../lcd.c      ****                  wpy <= wNexty + usWidth / 2; wpy++ )
 4548              		.loc 1 261 0 is_stmt 0 discriminator 1
 4549 0f38 F8215BE1 		ldrsh	r2, [fp, #-24]
 4550 0f3c F6115BE1 		ldrsh	r1, [fp, #-22]
 4551 0f40 B830DBE1 		ldrh	r3, [fp, #8]
 4552 0f44 A330A0E1 		mov	r3, r3, lsr #1
 4553 0f48 0338A0E1 		mov	r3, r3, asl #16
 4554 0f4c 2338A0E1 		mov	r3, r3, lsr #16
 4555 0f50 033081E0 		add	r3, r1, r3
 260:../lcd.c      ****             for( wpy = wNexty - usWidth / 2;
 4556              		.loc 1 260 0 is_stmt 1 discriminator 1
 4557 0f54 030052E1 		cmp	r2, r3
 4558 0f58 A8FFFFDA 		ble	.L50
 246:../lcd.c      ****              wCurx <= wNextx; wCurx++, wNextx--, decision += usDy )
 4559              		.loc 1 246 0
 4560 0f5c B0315BE1 		ldrh	r3, [fp, #-16]	@ movhi
 4561 0f60 013083E2 		add	r3, r3, #1
 4562 0f64 B0314BE1 		strh	r3, [fp, #-16]	@ movhi
 4563 0f68 B4315BE1 		ldrh	r3, [fp, #-20]	@ movhi
 4564 0f6c 013043E2 		sub	r3, r3, #1
 4565 0f70 B4314BE1 		strh	r3, [fp, #-20]	@ movhi
 4566 0f74 BE205BE1 		ldrh	r2, [fp, #-14]
 4567 0f78 BE315BE1 		ldrh	r3, [fp, #-30]
 4568 0f7c 033082E0 		add	r3, r2, r3
 4569 0f80 0338A0E1 		mov	r3, r3, asl #16
 4570 0f84 2338A0E1 		mov	r3, r3, lsr #16
 4571 0f88 BE304BE1 		strh	r3, [fp, #-14]	@ movhi
 4572              	.L45:
 244:../lcd.c      ****         for( wCurx = usX0, wCury = usY0, wNextx = usX1,
 4573              		.loc 1 244 0 discriminator 1
 4574 0f8c F0215BE1 		ldrsh	r2, [fp, #-16]
 4575 0f90 F4315BE1 		ldrsh	r3, [fp, #-20]
 4576 0f94 030052E1 		cmp	r2, r3
 4577 0f98 17FFFFDA 		ble	.L51
 244:../lcd.c      ****         for( wCurx = usX0, wCury = usY0, wNextx = usX1,
 4578              		.loc 1 244 0 is_stmt 0
 4579 0f9c F30000EA 		b	.L37
 4580              	.L44:
 264:../lcd.c      ****             }
 265:../lcd.c      ****         }
 266:../lcd.c      ****     }
 267:../lcd.c      ****     else
 268:../lcd.c      ****     {
 269:../lcd.c      ****         for( wCurx = usX0, wCury = usY0, wNextx = usX1,
 4581              		.loc 1 269 0 is_stmt 1
 4582 0fa0 B6325BE1 		ldrh	r3, [fp, #-38]	@ movhi
 4583 0fa4 B0314BE1 		strh	r3, [fp, #-16]	@ movhi
 4584 0fa8 B8325BE1 		ldrh	r3, [fp, #-40]	@ movhi
 4585 0fac B2314BE1 		strh	r3, [fp, #-18]	@ movhi
 4586 0fb0 BA325BE1 		ldrh	r3, [fp, #-42]	@ movhi
 4587 0fb4 B4314BE1 		strh	r3, [fp, #-20]	@ movhi
 270:../lcd.c      ****              wNexty = usY1, decision = (usDy >> 1);
 4588              		.loc 1 270 0
 4589 0fb8 BC325BE1 		ldrh	r3, [fp, #-44]	@ movhi
 4590 0fbc B6314BE1 		strh	r3, [fp, #-22]	@ movhi
 4591 0fc0 FE315BE1 		ldrsh	r3, [fp, #-30]
 4592 0fc4 C330A0E1 		mov	r3, r3, asr #1
 4593 0fc8 BE304BE1 		strh	r3, [fp, #-14]	@ movhi
 269:../lcd.c      ****         for( wCurx = usX0, wCury = usY0, wNextx = usX1,
 4594              		.loc 1 269 0
 4595 0fcc E30000EA 		b	.L52
 4596              	.L58:
 271:../lcd.c      ****              wCury <= wNexty; wCury++, wNexty--, decision += usDx )
 272:../lcd.c      ****         {
 273:../lcd.c      ****             if( decision >= usDy )
 4597              		.loc 1 273 0
 4598 0fd0 FE205BE1 		ldrsh	r2, [fp, #-14]
 4599 0fd4 FE315BE1 		ldrsh	r3, [fp, #-30]
 4600 0fd8 030052E1 		cmp	r2, r3
 4601 0fdc 110000BA 		blt	.L53
 274:../lcd.c      ****             {
 275:../lcd.c      ****                 decision -= usDy;
 4602              		.loc 1 275 0
 4603 0fe0 BE205BE1 		ldrh	r2, [fp, #-14]
 4604 0fe4 BE315BE1 		ldrh	r3, [fp, #-30]
 4605 0fe8 023063E0 		rsb	r3, r3, r2
 4606 0fec 0338A0E1 		mov	r3, r3, asl #16
 4607 0ff0 2338A0E1 		mov	r3, r3, lsr #16
 4608 0ff4 BE304BE1 		strh	r3, [fp, #-14]	@ movhi
 276:../lcd.c      ****                 wCurx += x_sign;
 4609              		.loc 1 276 0
 4610 0ff8 B0215BE1 		ldrh	r2, [fp, #-16]
 4611 0ffc B2325BE1 		ldrh	r3, [fp, #-34]
 4612 1000 033082E0 		add	r3, r2, r3
 4613 1004 0338A0E1 		mov	r3, r3, asl #16
 4614 1008 2338A0E1 		mov	r3, r3, lsr #16
 4615 100c B0314BE1 		strh	r3, [fp, #-16]	@ movhi
 277:../lcd.c      ****                 wNextx -= x_sign;
 4616              		.loc 1 277 0
 4617 1010 B4215BE1 		ldrh	r2, [fp, #-20]
 4618 1014 B2325BE1 		ldrh	r3, [fp, #-34]
 4619 1018 023063E0 		rsb	r3, r3, r2
 4620 101c 0338A0E1 		mov	r3, r3, asl #16
 4621 1020 2338A0E1 		mov	r3, r3, lsr #16
 4622 1024 B4314BE1 		strh	r3, [fp, #-20]	@ movhi
 4623              	.L53:
 278:../lcd.c      ****             }
 279:../lcd.c      ****             for( wpx = wCurx - usWidth / 2;
 4624              		.loc 1 279 0
 4625 1028 B0215BE1 		ldrh	r2, [fp, #-16]
 4626 102c B830DBE1 		ldrh	r3, [fp, #8]
 4627 1030 A330A0E1 		mov	r3, r3, lsr #1
 4628 1034 0338A0E1 		mov	r3, r3, asl #16
 4629 1038 2338A0E1 		mov	r3, r3, lsr #16
 4630 103c 023063E0 		rsb	r3, r3, r2
 4631 1040 0338A0E1 		mov	r3, r3, asl #16
 4632 1044 2338A0E1 		mov	r3, r3, lsr #16
 4633 1048 BA314BE1 		strh	r3, [fp, #-26]	@ movhi
 4634 104c 4D0000EA 		b	.L54
 4635              	.L55:
 280:../lcd.c      ****                  wpx <= wCurx + usWidth / 2; wpx++ )
 281:../lcd.c      ****             {
 282:../lcd.c      ****                 LCD_PutPixel(wpx, wCury, ucColor);
 4636              		.loc 1 282 0
 4637 1050 F2215BE1 		ldrsh	r2, [fp, #-18]
 4638 1054 0230A0E1 		mov	r3, r2
 4639 1058 0331A0E1 		mov	r3, r3, asl #2
 4640 105c 023083E0 		add	r3, r3, r2
 4641 1060 0333A0E1 		mov	r3, r3, asl #6
 4642 1064 A32FA0E1 		mov	r2, r3, lsr #31
 4643 1068 033082E0 		add	r3, r2, r3
 4644 106c C330A0E1 		mov	r3, r3, asr #1
 4645 1070 C32683E2 		add	r2, r3, #204472320
 4646 1074 962C82E2 		add	r2, r2, #38400
 4647 1078 FA315BE1 		ldrsh	r3, [fp, #-26]
 4648 107c 071083E2 		add	r1, r3, #7
 4649 1080 000053E3 		cmp	r3, #0
 4650 1084 0130A0B1 		movlt	r3, r1
 4651 1088 C331A0E1 		mov	r3, r3, asr #3
 4652 108c 0338A0E1 		mov	r3, r3, asl #16
 4653 1090 2338A0E1 		mov	r3, r3, lsr #16
 4654 1094 0338A0E1 		mov	r3, r3, asl #16
 4655 1098 4338A0E1 		mov	r3, r3, asr #16
 4656 109c 0331A0E1 		mov	r3, r3, asl #2
 4657 10a0 033082E0 		add	r3, r2, r3
 4658 10a4 0310A0E1 		mov	r1, r3
 4659 10a8 F2215BE1 		ldrsh	r2, [fp, #-18]
 4660 10ac 0230A0E1 		mov	r3, r2
 4661 10b0 0331A0E1 		mov	r3, r3, asl #2
 4662 10b4 023083E0 		add	r3, r3, r2
 4663 10b8 0333A0E1 		mov	r3, r3, asl #6
 4664 10bc A32FA0E1 		mov	r2, r3, lsr #31
 4665 10c0 033082E0 		add	r3, r2, r3
 4666 10c4 C330A0E1 		mov	r3, r3, asr #1
 4667 10c8 C32683E2 		add	r2, r3, #204472320
 4668 10cc 962C82E2 		add	r2, r2, #38400
 4669 10d0 FA315BE1 		ldrsh	r3, [fp, #-26]
 4670 10d4 070083E2 		add	r0, r3, #7
 4671 10d8 000053E3 		cmp	r3, #0
 4672 10dc 0030A0B1 		movlt	r3, r0
 4673 10e0 C331A0E1 		mov	r3, r3, asr #3
 4674 10e4 0338A0E1 		mov	r3, r3, asl #16
 4675 10e8 2338A0E1 		mov	r3, r3, lsr #16
 4676 10ec 0338A0E1 		mov	r3, r3, asl #16
 4677 10f0 4338A0E1 		mov	r3, r3, asr #16
 4678 10f4 0331A0E1 		mov	r3, r3, asl #2
 4679 10f8 033082E0 		add	r3, r2, r3
 4680 10fc 000093E5 		ldr	r0, [r3, #0]
 4681 1100 FA215BE1 		ldrsh	r2, [fp, #-26]
 4682 1104 C23FA0E1 		mov	r3, r2, asr #31
 4683 1108 A33EA0E1 		mov	r3, r3, lsr #29
 4684 110c 032082E0 		add	r2, r2, r3
 4685 1110 072002E2 		and	r2, r2, #7
 4686 1114 023063E0 		rsb	r3, r3, r2
 4687 1118 0338A0E1 		mov	r3, r3, asl #16
 4688 111c 2338A0E1 		mov	r3, r3, lsr #16
 4689 1120 0338A0E1 		mov	r3, r3, asl #16
 4690 1124 4338A0E1 		mov	r3, r3, asr #16
 4691 1128 0331A0E1 		mov	r3, r3, asl #2
 4692 112c 0F22A0E3 		mov	r2, #-268435456
 4693 1130 3233A0E1 		mov	r3, r2, lsr r3
 4694 1134 0330E0E1 		mvn	r3, r3
 4695 1138 030000E0 		and	r0, r0, r3
 4696 113c 04C0DBE5 		ldrb	ip, [fp, #4]	@ zero_extendqisi2
 4697 1140 FA215BE1 		ldrsh	r2, [fp, #-26]
 4698 1144 C23FA0E1 		mov	r3, r2, asr #31
 4699 1148 A33EA0E1 		mov	r3, r3, lsr #29
 4700 114c 032082E0 		add	r2, r2, r3
 4701 1150 072002E2 		and	r2, r2, #7
 4702 1154 023063E0 		rsb	r3, r3, r2
 4703 1158 0338A0E1 		mov	r3, r3, asl #16
 4704 115c 2338A0E1 		mov	r3, r3, lsr #16
 4705 1160 0338A0E1 		mov	r3, r3, asl #16
 4706 1164 4338A0E1 		mov	r3, r3, asr #16
 4707 1168 073063E2 		rsb	r3, r3, #7
 4708 116c 0331A0E1 		mov	r3, r3, asl #2
 4709 1170 1C33A0E1 		mov	r3, ip, asl r3
 4710 1174 033080E1 		orr	r3, r0, r3
 4711 1178 003081E5 		str	r3, [r1, #0]
 280:../lcd.c      ****                  wpx <= wCurx + usWidth / 2; wpx++ )
 4712              		.loc 1 280 0
 4713 117c BA315BE1 		ldrh	r3, [fp, #-26]	@ movhi
 4714 1180 013083E2 		add	r3, r3, #1
 4715 1184 BA314BE1 		strh	r3, [fp, #-26]	@ movhi
 4716              	.L54:
 280:../lcd.c      ****                  wpx <= wCurx + usWidth / 2; wpx++ )
 4717              		.loc 1 280 0 is_stmt 0 discriminator 1
 4718 1188 FA215BE1 		ldrsh	r2, [fp, #-26]
 4719 118c F0115BE1 		ldrsh	r1, [fp, #-16]
 4720 1190 B830DBE1 		ldrh	r3, [fp, #8]
 4721 1194 A330A0E1 		mov	r3, r3, lsr #1
 4722 1198 0338A0E1 		mov	r3, r3, asl #16
 4723 119c 2338A0E1 		mov	r3, r3, lsr #16
 4724 11a0 033081E0 		add	r3, r1, r3
 279:../lcd.c      ****             for( wpx = wCurx - usWidth / 2;
 4725              		.loc 1 279 0 is_stmt 1 discriminator 1
 4726 11a4 030052E1 		cmp	r2, r3
 4727 11a8 A8FFFFDA 		ble	.L55
 283:../lcd.c      ****             }
 284:../lcd.c      **** 
 285:../lcd.c      ****             for( wpx = wNextx - usWidth / 2;
 4728              		.loc 1 285 0
 4729 11ac B4215BE1 		ldrh	r2, [fp, #-20]
 4730 11b0 B830DBE1 		ldrh	r3, [fp, #8]
 4731 11b4 A330A0E1 		mov	r3, r3, lsr #1
 4732 11b8 0338A0E1 		mov	r3, r3, asl #16
 4733 11bc 2338A0E1 		mov	r3, r3, lsr #16
 4734 11c0 023063E0 		rsb	r3, r3, r2
 4735 11c4 0338A0E1 		mov	r3, r3, asl #16
 4736 11c8 2338A0E1 		mov	r3, r3, lsr #16
 4737 11cc BA314BE1 		strh	r3, [fp, #-26]	@ movhi
 4738 11d0 4D0000EA 		b	.L56
 4739              	.L57:
 286:../lcd.c      ****                  wpx <= wNextx + usWidth / 2; wpx++ )
 287:../lcd.c      ****             {
 288:../lcd.c      ****                 LCD_PutPixel(wpx, wNexty, ucColor);
 4740              		.loc 1 288 0
 4741 11d4 F6215BE1 		ldrsh	r2, [fp, #-22]
 4742 11d8 0230A0E1 		mov	r3, r2
 4743 11dc 0331A0E1 		mov	r3, r3, asl #2
 4744 11e0 023083E0 		add	r3, r3, r2
 4745 11e4 0333A0E1 		mov	r3, r3, asl #6
 4746 11e8 A32FA0E1 		mov	r2, r3, lsr #31
 4747 11ec 033082E0 		add	r3, r2, r3
 4748 11f0 C330A0E1 		mov	r3, r3, asr #1
 4749 11f4 C32683E2 		add	r2, r3, #204472320
 4750 11f8 962C82E2 		add	r2, r2, #38400
 4751 11fc FA315BE1 		ldrsh	r3, [fp, #-26]
 4752 1200 071083E2 		add	r1, r3, #7
 4753 1204 000053E3 		cmp	r3, #0
 4754 1208 0130A0B1 		movlt	r3, r1
 4755 120c C331A0E1 		mov	r3, r3, asr #3
 4756 1210 0338A0E1 		mov	r3, r3, asl #16
 4757 1214 2338A0E1 		mov	r3, r3, lsr #16
 4758 1218 0338A0E1 		mov	r3, r3, asl #16
 4759 121c 4338A0E1 		mov	r3, r3, asr #16
 4760 1220 0331A0E1 		mov	r3, r3, asl #2
 4761 1224 033082E0 		add	r3, r2, r3
 4762 1228 0310A0E1 		mov	r1, r3
 4763 122c F6215BE1 		ldrsh	r2, [fp, #-22]
 4764 1230 0230A0E1 		mov	r3, r2
 4765 1234 0331A0E1 		mov	r3, r3, asl #2
 4766 1238 023083E0 		add	r3, r3, r2
 4767 123c 0333A0E1 		mov	r3, r3, asl #6
 4768 1240 A32FA0E1 		mov	r2, r3, lsr #31
 4769 1244 033082E0 		add	r3, r2, r3
 4770 1248 C330A0E1 		mov	r3, r3, asr #1
 4771 124c C32683E2 		add	r2, r3, #204472320
 4772 1250 962C82E2 		add	r2, r2, #38400
 4773 1254 FA315BE1 		ldrsh	r3, [fp, #-26]
 4774 1258 070083E2 		add	r0, r3, #7
 4775 125c 000053E3 		cmp	r3, #0
 4776 1260 0030A0B1 		movlt	r3, r0
 4777 1264 C331A0E1 		mov	r3, r3, asr #3
 4778 1268 0338A0E1 		mov	r3, r3, asl #16
 4779 126c 2338A0E1 		mov	r3, r3, lsr #16
 4780 1270 0338A0E1 		mov	r3, r3, asl #16
 4781 1274 4338A0E1 		mov	r3, r3, asr #16
 4782 1278 0331A0E1 		mov	r3, r3, asl #2
 4783 127c 033082E0 		add	r3, r2, r3
 4784 1280 000093E5 		ldr	r0, [r3, #0]
 4785 1284 FA215BE1 		ldrsh	r2, [fp, #-26]
 4786 1288 C23FA0E1 		mov	r3, r2, asr #31
 4787 128c A33EA0E1 		mov	r3, r3, lsr #29
 4788 1290 032082E0 		add	r2, r2, r3
 4789 1294 072002E2 		and	r2, r2, #7
 4790 1298 023063E0 		rsb	r3, r3, r2
 4791 129c 0338A0E1 		mov	r3, r3, asl #16
 4792 12a0 2338A0E1 		mov	r3, r3, lsr #16
 4793 12a4 0338A0E1 		mov	r3, r3, asl #16
 4794 12a8 4338A0E1 		mov	r3, r3, asr #16
 4795 12ac 0331A0E1 		mov	r3, r3, asl #2
 4796 12b0 0F22A0E3 		mov	r2, #-268435456
 4797 12b4 3233A0E1 		mov	r3, r2, lsr r3
 4798 12b8 0330E0E1 		mvn	r3, r3
 4799 12bc 030000E0 		and	r0, r0, r3
 4800 12c0 04C0DBE5 		ldrb	ip, [fp, #4]	@ zero_extendqisi2
 4801 12c4 FA215BE1 		ldrsh	r2, [fp, #-26]
 4802 12c8 C23FA0E1 		mov	r3, r2, asr #31
 4803 12cc A33EA0E1 		mov	r3, r3, lsr #29
 4804 12d0 032082E0 		add	r2, r2, r3
 4805 12d4 072002E2 		and	r2, r2, #7
 4806 12d8 023063E0 		rsb	r3, r3, r2
 4807 12dc 0338A0E1 		mov	r3, r3, asl #16
 4808 12e0 2338A0E1 		mov	r3, r3, lsr #16
 4809 12e4 0338A0E1 		mov	r3, r3, asl #16
 4810 12e8 4338A0E1 		mov	r3, r3, asr #16
 4811 12ec 073063E2 		rsb	r3, r3, #7
 4812 12f0 0331A0E1 		mov	r3, r3, asl #2
 4813 12f4 1C33A0E1 		mov	r3, ip, asl r3
 4814 12f8 033080E1 		orr	r3, r0, r3
 4815 12fc 003081E5 		str	r3, [r1, #0]
 286:../lcd.c      ****                  wpx <= wNextx + usWidth / 2; wpx++ )
 4816              		.loc 1 286 0
 4817 1300 BA315BE1 		ldrh	r3, [fp, #-26]	@ movhi
 4818 1304 013083E2 		add	r3, r3, #1
 4819 1308 BA314BE1 		strh	r3, [fp, #-26]	@ movhi
 4820              	.L56:
 286:../lcd.c      ****                  wpx <= wNextx + usWidth / 2; wpx++ )
 4821              		.loc 1 286 0 is_stmt 0 discriminator 1
 4822 130c FA215BE1 		ldrsh	r2, [fp, #-26]
 4823 1310 F4115BE1 		ldrsh	r1, [fp, #-20]
 4824 1314 B830DBE1 		ldrh	r3, [fp, #8]
 4825 1318 A330A0E1 		mov	r3, r3, lsr #1
 4826 131c 0338A0E1 		mov	r3, r3, asl #16
 4827 1320 2338A0E1 		mov	r3, r3, lsr #16
 4828 1324 033081E0 		add	r3, r1, r3
 285:../lcd.c      ****             for( wpx = wNextx - usWidth / 2;
 4829              		.loc 1 285 0 is_stmt 1 discriminator 1
 4830 1328 030052E1 		cmp	r2, r3
 4831 132c A8FFFFDA 		ble	.L57
 271:../lcd.c      ****              wCury <= wNexty; wCury++, wNexty--, decision += usDx )
 4832              		.loc 1 271 0
 4833 1330 B2315BE1 		ldrh	r3, [fp, #-18]	@ movhi
 4834 1334 013083E2 		add	r3, r3, #1
 4835 1338 B2314BE1 		strh	r3, [fp, #-18]	@ movhi
 4836 133c B6315BE1 		ldrh	r3, [fp, #-22]	@ movhi
 4837 1340 013043E2 		sub	r3, r3, #1
 4838 1344 B6314BE1 		strh	r3, [fp, #-22]	@ movhi
 4839 1348 BE205BE1 		ldrh	r2, [fp, #-14]
 4840 134c BC315BE1 		ldrh	r3, [fp, #-28]
 4841 1350 033082E0 		add	r3, r2, r3
 4842 1354 0338A0E1 		mov	r3, r3, asl #16
 4843 1358 2338A0E1 		mov	r3, r3, lsr #16
 4844 135c BE304BE1 		strh	r3, [fp, #-14]	@ movhi
 4845              	.L52:
 269:../lcd.c      ****         for( wCurx = usX0, wCury = usY0, wNextx = usX1,
 4846              		.loc 1 269 0 discriminator 1
 4847 1360 F2215BE1 		ldrsh	r2, [fp, #-18]
 4848 1364 F6315BE1 		ldrsh	r3, [fp, #-22]
 4849 1368 030052E1 		cmp	r2, r3
 4850 136c 17FFFFDA 		ble	.L58
 4851              	.L37:
 289:../lcd.c      ****             }
 290:../lcd.c      ****         }
 291:../lcd.c      ****     }
 292:../lcd.c      **** }
 4852              		.loc 1 292 0
 4853 1370 0CD04BE2 		sub	sp, fp, #12
 4854 1374 00689DE8 		ldmfd	sp, {fp, sp, lr}
 4855 1378 1EFF2FE1 		bx	lr
 4856              		.cfi_endproc
 4857              	.LFE6:
 4859              		.align	2
 4860              		.global	Lcd_Draw_HLine
 4862              	Lcd_Draw_HLine:
 4863              	.LFB7:
 293:../lcd.c      **** 
 294:../lcd.c      **** /*********************************************************************************************
 295:../lcd.c      **** * name:		Lcd_Draw_HLine()
 296:../lcd.c      **** * func:		Draw horizontal line with appointed color
 297:../lcd.c      **** * para:		usX0,usY0 -- line's start point coordinate
 298:../lcd.c      **** *			usX1 -- line's end point X-coordinate
 299:../lcd.c      **** *			ucColor -- appointed color value
 300:../lcd.c      **** *			usWidth -- line's width
 301:../lcd.c      **** * ret:		none
 302:../lcd.c      **** * modify:
 303:../lcd.c      **** * comment:		
 304:../lcd.c      **** *********************************************************************************************/
 305:../lcd.c      **** void Lcd_Draw_HLine(INT16 usX0, INT16 usX1, INT16 usY0, INT8U ucColor, INT16U usWidth)
 306:../lcd.c      **** {
 4864              		.loc 1 306 0
 4865              		.cfi_startproc
 4866              		@ Function supports interworking.
 4867              		@ args = 4, pretend = 0, frame = 16
 4868              		@ frame_needed = 1, uses_anonymous_args = 0
 4869 137c 0DC0A0E1 		mov	ip, sp
 4870              	.LCFI14:
 4871              		.cfi_def_cfa_register 12
 4872 1380 00D82DE9 		stmfd	sp!, {fp, ip, lr, pc}
 4873 1384 04B04CE2 		sub	fp, ip, #4
 4874              		.cfi_offset 14, -8
 4875              		.cfi_offset 13, -12
 4876              		.cfi_offset 11, -16
 4877              	.LCFI15:
 4878              		.cfi_def_cfa 11, 4
 4879 1388 10D04DE2 		sub	sp, sp, #16
 4880 138c B6014BE1 		strh	r0, [fp, #-22]	@ movhi
 4881 1390 B8114BE1 		strh	r1, [fp, #-24]	@ movhi
 4882 1394 BA214BE1 		strh	r2, [fp, #-26]	@ movhi
 4883 1398 1B304BE5 		strb	r3, [fp, #-27]
 307:../lcd.c      **** 	INT16 usLen;
 308:../lcd.c      **** 
 309:../lcd.c      ****     if( usX1 < usX0 )
 4884              		.loc 1 309 0
 4885 139c F8215BE1 		ldrsh	r2, [fp, #-24]
 4886 13a0 F6315BE1 		ldrsh	r3, [fp, #-22]
 4887 13a4 030052E1 		cmp	r2, r3
 4888 13a8 670000AA 		bge	.L65
 310:../lcd.c      ****     {
 311:../lcd.c      ****         GUISWAP (usX1, usX0);
 4889              		.loc 1 311 0
 4890 13ac B8215BE1 		ldrh	r2, [fp, #-24]	@ movhi
 4891 13b0 B6315BE1 		ldrh	r3, [fp, #-22]	@ movhi
 4892 13b4 033022E0 		eor	r3, r2, r3
 4893 13b8 B8314BE1 		strh	r3, [fp, #-24]	@ movhi
 4894 13bc B6215BE1 		ldrh	r2, [fp, #-22]	@ movhi
 4895 13c0 B8315BE1 		ldrh	r3, [fp, #-24]	@ movhi
 4896 13c4 033022E0 		eor	r3, r2, r3
 4897 13c8 B6314BE1 		strh	r3, [fp, #-22]	@ movhi
 4898 13cc B8215BE1 		ldrh	r2, [fp, #-24]	@ movhi
 4899 13d0 B6315BE1 		ldrh	r3, [fp, #-22]	@ movhi
 4900 13d4 033022E0 		eor	r3, r2, r3
 4901 13d8 B8314BE1 		strh	r3, [fp, #-24]	@ movhi
 312:../lcd.c      ****     }
 313:../lcd.c      **** 
 314:../lcd.c      ****     while( (usWidth--) > 0 )
 4902              		.loc 1 314 0
 4903 13dc 5B0000EA 		b	.L61
 4904              	.L64:
 315:../lcd.c      ****     {
 316:../lcd.c      ****         usLen = usX1 - usX0 + 1;
 4905              		.loc 1 316 0
 4906 13e0 B8215BE1 		ldrh	r2, [fp, #-24]
 4907 13e4 B6315BE1 		ldrh	r3, [fp, #-22]
 4908 13e8 023063E0 		rsb	r3, r3, r2
 4909 13ec 0338A0E1 		mov	r3, r3, asl #16
 4910 13f0 2338A0E1 		mov	r3, r3, lsr #16
 4911 13f4 013083E2 		add	r3, r3, #1
 4912 13f8 0338A0E1 		mov	r3, r3, asl #16
 4913 13fc 2338A0E1 		mov	r3, r3, lsr #16
 4914 1400 BE304BE1 		strh	r3, [fp, #-14]	@ movhi
 317:../lcd.c      ****         while( (usLen--) > 0 )
 4915              		.loc 1 317 0
 4916 1404 420000EA 		b	.L62
 4917              	.L63:
 318:../lcd.c      ****         {
 319:../lcd.c      ****         	LCD_PutPixel(usX0 + usLen, usY0, ucColor);
 4918              		.loc 1 319 0
 4919 1408 FA215BE1 		ldrsh	r2, [fp, #-26]
 4920 140c 0230A0E1 		mov	r3, r2
 4921 1410 0331A0E1 		mov	r3, r3, asl #2
 4922 1414 023083E0 		add	r3, r3, r2
 4923 1418 0333A0E1 		mov	r3, r3, asl #6
 4924 141c A32FA0E1 		mov	r2, r3, lsr #31
 4925 1420 033082E0 		add	r3, r2, r3
 4926 1424 C330A0E1 		mov	r3, r3, asr #1
 4927 1428 C32683E2 		add	r2, r3, #204472320
 4928 142c 962C82E2 		add	r2, r2, #38400
 4929 1430 F6115BE1 		ldrsh	r1, [fp, #-22]
 4930 1434 FE305BE1 		ldrsh	r3, [fp, #-14]
 4931 1438 033081E0 		add	r3, r1, r3
 4932 143c 071083E2 		add	r1, r3, #7
 4933 1440 000053E3 		cmp	r3, #0
 4934 1444 0130A0B1 		movlt	r3, r1
 4935 1448 C331A0E1 		mov	r3, r3, asr #3
 4936 144c 0331A0E1 		mov	r3, r3, asl #2
 4937 1450 033082E0 		add	r3, r2, r3
 4938 1454 0310A0E1 		mov	r1, r3
 4939 1458 FA215BE1 		ldrsh	r2, [fp, #-26]
 4940 145c 0230A0E1 		mov	r3, r2
 4941 1460 0331A0E1 		mov	r3, r3, asl #2
 4942 1464 023083E0 		add	r3, r3, r2
 4943 1468 0333A0E1 		mov	r3, r3, asl #6
 4944 146c A32FA0E1 		mov	r2, r3, lsr #31
 4945 1470 033082E0 		add	r3, r2, r3
 4946 1474 C330A0E1 		mov	r3, r3, asr #1
 4947 1478 C32683E2 		add	r2, r3, #204472320
 4948 147c 962C82E2 		add	r2, r2, #38400
 4949 1480 F6015BE1 		ldrsh	r0, [fp, #-22]
 4950 1484 FE305BE1 		ldrsh	r3, [fp, #-14]
 4951 1488 033080E0 		add	r3, r0, r3
 4952 148c 070083E2 		add	r0, r3, #7
 4953 1490 000053E3 		cmp	r3, #0
 4954 1494 0030A0B1 		movlt	r3, r0
 4955 1498 C331A0E1 		mov	r3, r3, asr #3
 4956 149c 0331A0E1 		mov	r3, r3, asl #2
 4957 14a0 033082E0 		add	r3, r2, r3
 4958 14a4 000093E5 		ldr	r0, [r3, #0]
 4959 14a8 F6215BE1 		ldrsh	r2, [fp, #-22]
 4960 14ac FE305BE1 		ldrsh	r3, [fp, #-14]
 4961 14b0 032082E0 		add	r2, r2, r3
 4962 14b4 C23FA0E1 		mov	r3, r2, asr #31
 4963 14b8 A33EA0E1 		mov	r3, r3, lsr #29
 4964 14bc 032082E0 		add	r2, r2, r3
 4965 14c0 072002E2 		and	r2, r2, #7
 4966 14c4 023063E0 		rsb	r3, r3, r2
 4967 14c8 0331A0E1 		mov	r3, r3, asl #2
 4968 14cc 0F22A0E3 		mov	r2, #-268435456
 4969 14d0 3233A0E1 		mov	r3, r2, lsr r3
 4970 14d4 0330E0E1 		mvn	r3, r3
 4971 14d8 030000E0 		and	r0, r0, r3
 4972 14dc 1BC05BE5 		ldrb	ip, [fp, #-27]	@ zero_extendqisi2
 4973 14e0 F6215BE1 		ldrsh	r2, [fp, #-22]
 4974 14e4 FE305BE1 		ldrsh	r3, [fp, #-14]
 4975 14e8 032082E0 		add	r2, r2, r3
 4976 14ec C23FA0E1 		mov	r3, r2, asr #31
 4977 14f0 A33EA0E1 		mov	r3, r3, lsr #29
 4978 14f4 032082E0 		add	r2, r2, r3
 4979 14f8 072002E2 		and	r2, r2, #7
 4980 14fc 023063E0 		rsb	r3, r3, r2
 4981 1500 073063E2 		rsb	r3, r3, #7
 4982 1504 0331A0E1 		mov	r3, r3, asl #2
 4983 1508 1C33A0E1 		mov	r3, ip, asl r3
 4984 150c 033080E1 		orr	r3, r0, r3
 4985 1510 003081E5 		str	r3, [r1, #0]
 4986              	.L62:
 317:../lcd.c      ****         while( (usLen--) > 0 )
 4987              		.loc 1 317 0 discriminator 1
 4988 1514 FE305BE1 		ldrsh	r3, [fp, #-14]
 4989 1518 000053E3 		cmp	r3, #0
 4990 151c 0030A0D3 		movle	r3, #0
 4991 1520 0130A0C3 		movgt	r3, #1
 4992 1524 FF3003E2 		and	r3, r3, #255
 4993 1528 BE205BE1 		ldrh	r2, [fp, #-14]	@ movhi
 4994 152c 012042E2 		sub	r2, r2, #1
 4995 1530 BE204BE1 		strh	r2, [fp, #-14]	@ movhi
 4996 1534 000053E3 		cmp	r3, #0
 4997 1538 B2FFFF1A 		bne	.L63
 320:../lcd.c      ****         }
 321:../lcd.c      ****         usY0++;
 4998              		.loc 1 321 0
 4999 153c BA315BE1 		ldrh	r3, [fp, #-26]	@ movhi
 5000 1540 013083E2 		add	r3, r3, #1
 5001 1544 BA314BE1 		strh	r3, [fp, #-26]	@ movhi
 5002 1548 000000EA 		b	.L61
 5003              	.L65:
 314:../lcd.c      ****     while( (usWidth--) > 0 )
 5004              		.loc 1 314 0
 5005 154c 0000A0E1 		mov	r0, r0	@ nop
 5006              	.L61:
 314:../lcd.c      ****     while( (usWidth--) > 0 )
 5007              		.loc 1 314 0 is_stmt 0 discriminator 1
 5008 1550 B430DBE1 		ldrh	r3, [fp, #4]
 5009 1554 000053E3 		cmp	r3, #0
 5010 1558 0030A003 		moveq	r3, #0
 5011 155c 0130A013 		movne	r3, #1
 5012 1560 FF3003E2 		and	r3, r3, #255
 5013 1564 B420DBE1 		ldrh	r2, [fp, #4]	@ movhi
 5014 1568 012042E2 		sub	r2, r2, #1
 5015 156c B420CBE1 		strh	r2, [fp, #4]	@ movhi
 5016 1570 000053E3 		cmp	r3, #0
 5017 1574 99FFFF1A 		bne	.L64
 322:../lcd.c      ****     }
 323:../lcd.c      **** }
 5018              		.loc 1 323 0 is_stmt 1
 5019 1578 0CD04BE2 		sub	sp, fp, #12
 5020 157c 00689DE8 		ldmfd	sp, {fp, sp, lr}
 5021 1580 1EFF2FE1 		bx	lr
 5022              		.cfi_endproc
 5023              	.LFE7:
 5025              		.align	2
 5026              		.global	Lcd_Draw_VLine
 5028              	Lcd_Draw_VLine:
 5029              	.LFB8:
 324:../lcd.c      **** 
 325:../lcd.c      **** /*********************************************************************************************
 326:../lcd.c      **** * name:		Lcd_Draw_VLine()
 327:../lcd.c      **** * func:		Draw vertical line with appointed color
 328:../lcd.c      **** * para:		usX0,usY0 -- line's start point coordinate
 329:../lcd.c      **** *			usY1 -- line's end point Y-coordinate
 330:../lcd.c      **** *			ucColor -- appointed color value
 331:../lcd.c      **** *			usWidth -- line's width
 332:../lcd.c      **** * ret:		none
 333:../lcd.c      **** * modify:
 334:../lcd.c      **** * comment:		
 335:../lcd.c      **** *********************************************************************************************/
 336:../lcd.c      **** void Lcd_Draw_VLine (INT16 usY0, INT16 usY1, INT16 usX0, INT8U ucColor, INT16U usWidth)
 337:../lcd.c      **** {
 5030              		.loc 1 337 0
 5031              		.cfi_startproc
 5032              		@ Function supports interworking.
 5033              		@ args = 4, pretend = 0, frame = 16
 5034              		@ frame_needed = 1, uses_anonymous_args = 0
 5035 1584 0DC0A0E1 		mov	ip, sp
 5036              	.LCFI16:
 5037              		.cfi_def_cfa_register 12
 5038 1588 00D82DE9 		stmfd	sp!, {fp, ip, lr, pc}
 5039 158c 04B04CE2 		sub	fp, ip, #4
 5040              		.cfi_offset 14, -8
 5041              		.cfi_offset 13, -12
 5042              		.cfi_offset 11, -16
 5043              	.LCFI17:
 5044              		.cfi_def_cfa 11, 4
 5045 1590 10D04DE2 		sub	sp, sp, #16
 5046 1594 B6014BE1 		strh	r0, [fp, #-22]	@ movhi
 5047 1598 B8114BE1 		strh	r1, [fp, #-24]	@ movhi
 5048 159c BA214BE1 		strh	r2, [fp, #-26]	@ movhi
 5049 15a0 1B304BE5 		strb	r3, [fp, #-27]
 338:../lcd.c      **** 	INT16 usLen;
 339:../lcd.c      **** 
 340:../lcd.c      ****     if( usY1 < usY0 )
 5050              		.loc 1 340 0
 5051 15a4 F8215BE1 		ldrsh	r2, [fp, #-24]
 5052 15a8 F6315BE1 		ldrsh	r3, [fp, #-22]
 5053 15ac 030052E1 		cmp	r2, r3
 5054 15b0 730000AA 		bge	.L72
 341:../lcd.c      ****     {
 342:../lcd.c      ****         GUISWAP (usY1, usY0);
 5055              		.loc 1 342 0
 5056 15b4 B8215BE1 		ldrh	r2, [fp, #-24]	@ movhi
 5057 15b8 B6315BE1 		ldrh	r3, [fp, #-22]	@ movhi
 5058 15bc 033022E0 		eor	r3, r2, r3
 5059 15c0 B8314BE1 		strh	r3, [fp, #-24]	@ movhi
 5060 15c4 B6215BE1 		ldrh	r2, [fp, #-22]	@ movhi
 5061 15c8 B8315BE1 		ldrh	r3, [fp, #-24]	@ movhi
 5062 15cc 033022E0 		eor	r3, r2, r3
 5063 15d0 B6314BE1 		strh	r3, [fp, #-22]	@ movhi
 5064 15d4 B8215BE1 		ldrh	r2, [fp, #-24]	@ movhi
 5065 15d8 B6315BE1 		ldrh	r3, [fp, #-22]	@ movhi
 5066 15dc 033022E0 		eor	r3, r2, r3
 5067 15e0 B8314BE1 		strh	r3, [fp, #-24]	@ movhi
 343:../lcd.c      ****     }
 344:../lcd.c      **** 
 345:../lcd.c      ****     while( (usWidth--) > 0 )
 5068              		.loc 1 345 0
 5069 15e4 670000EA 		b	.L68
 5070              	.L71:
 346:../lcd.c      ****     {
 347:../lcd.c      ****         usLen = usY1 - usY0 + 1;
 5071              		.loc 1 347 0
 5072 15e8 B8215BE1 		ldrh	r2, [fp, #-24]
 5073 15ec B6315BE1 		ldrh	r3, [fp, #-22]
 5074 15f0 023063E0 		rsb	r3, r3, r2
 5075 15f4 0338A0E1 		mov	r3, r3, asl #16
 5076 15f8 2338A0E1 		mov	r3, r3, lsr #16
 5077 15fc 013083E2 		add	r3, r3, #1
 5078 1600 0338A0E1 		mov	r3, r3, asl #16
 5079 1604 2338A0E1 		mov	r3, r3, lsr #16
 5080 1608 BE304BE1 		strh	r3, [fp, #-14]	@ movhi
 348:../lcd.c      ****         while( (usLen--) > 0 )
 5081              		.loc 1 348 0
 5082 160c 4E0000EA 		b	.L69
 5083              	.L70:
 349:../lcd.c      ****         {
 350:../lcd.c      ****         	LCD_PutPixel(usX0, usY0 + usLen, ucColor);
 5084              		.loc 1 350 0
 5085 1610 F6215BE1 		ldrsh	r2, [fp, #-22]
 5086 1614 FE305BE1 		ldrsh	r3, [fp, #-14]
 5087 1618 032082E0 		add	r2, r2, r3
 5088 161c 0230A0E1 		mov	r3, r2
 5089 1620 0331A0E1 		mov	r3, r3, asl #2
 5090 1624 023083E0 		add	r3, r3, r2
 5091 1628 0333A0E1 		mov	r3, r3, asl #6
 5092 162c A32FA0E1 		mov	r2, r3, lsr #31
 5093 1630 033082E0 		add	r3, r2, r3
 5094 1634 C330A0E1 		mov	r3, r3, asr #1
 5095 1638 C32683E2 		add	r2, r3, #204472320
 5096 163c 962C82E2 		add	r2, r2, #38400
 5097 1640 FA315BE1 		ldrsh	r3, [fp, #-26]
 5098 1644 071083E2 		add	r1, r3, #7
 5099 1648 000053E3 		cmp	r3, #0
 5100 164c 0130A0B1 		movlt	r3, r1
 5101 1650 C331A0E1 		mov	r3, r3, asr #3
 5102 1654 0338A0E1 		mov	r3, r3, asl #16
 5103 1658 2338A0E1 		mov	r3, r3, lsr #16
 5104 165c 0338A0E1 		mov	r3, r3, asl #16
 5105 1660 4338A0E1 		mov	r3, r3, asr #16
 5106 1664 0331A0E1 		mov	r3, r3, asl #2
 5107 1668 033082E0 		add	r3, r2, r3
 5108 166c 0310A0E1 		mov	r1, r3
 5109 1670 F6215BE1 		ldrsh	r2, [fp, #-22]
 5110 1674 FE305BE1 		ldrsh	r3, [fp, #-14]
 5111 1678 032082E0 		add	r2, r2, r3
 5112 167c 0230A0E1 		mov	r3, r2
 5113 1680 0331A0E1 		mov	r3, r3, asl #2
 5114 1684 023083E0 		add	r3, r3, r2
 5115 1688 0333A0E1 		mov	r3, r3, asl #6
 5116 168c A32FA0E1 		mov	r2, r3, lsr #31
 5117 1690 033082E0 		add	r3, r2, r3
 5118 1694 C330A0E1 		mov	r3, r3, asr #1
 5119 1698 C32683E2 		add	r2, r3, #204472320
 5120 169c 962C82E2 		add	r2, r2, #38400
 5121 16a0 FA315BE1 		ldrsh	r3, [fp, #-26]
 5122 16a4 070083E2 		add	r0, r3, #7
 5123 16a8 000053E3 		cmp	r3, #0
 5124 16ac 0030A0B1 		movlt	r3, r0
 5125 16b0 C331A0E1 		mov	r3, r3, asr #3
 5126 16b4 0338A0E1 		mov	r3, r3, asl #16
 5127 16b8 2338A0E1 		mov	r3, r3, lsr #16
 5128 16bc 0338A0E1 		mov	r3, r3, asl #16
 5129 16c0 4338A0E1 		mov	r3, r3, asr #16
 5130 16c4 0331A0E1 		mov	r3, r3, asl #2
 5131 16c8 033082E0 		add	r3, r2, r3
 5132 16cc 000093E5 		ldr	r0, [r3, #0]
 5133 16d0 FA215BE1 		ldrsh	r2, [fp, #-26]
 5134 16d4 C23FA0E1 		mov	r3, r2, asr #31
 5135 16d8 A33EA0E1 		mov	r3, r3, lsr #29
 5136 16dc 032082E0 		add	r2, r2, r3
 5137 16e0 072002E2 		and	r2, r2, #7
 5138 16e4 023063E0 		rsb	r3, r3, r2
 5139 16e8 0338A0E1 		mov	r3, r3, asl #16
 5140 16ec 2338A0E1 		mov	r3, r3, lsr #16
 5141 16f0 0338A0E1 		mov	r3, r3, asl #16
 5142 16f4 4338A0E1 		mov	r3, r3, asr #16
 5143 16f8 0331A0E1 		mov	r3, r3, asl #2
 5144 16fc 0F22A0E3 		mov	r2, #-268435456
 5145 1700 3233A0E1 		mov	r3, r2, lsr r3
 5146 1704 0330E0E1 		mvn	r3, r3
 5147 1708 030000E0 		and	r0, r0, r3
 5148 170c 1BC05BE5 		ldrb	ip, [fp, #-27]	@ zero_extendqisi2
 5149 1710 FA215BE1 		ldrsh	r2, [fp, #-26]
 5150 1714 C23FA0E1 		mov	r3, r2, asr #31
 5151 1718 A33EA0E1 		mov	r3, r3, lsr #29
 5152 171c 032082E0 		add	r2, r2, r3
 5153 1720 072002E2 		and	r2, r2, #7
 5154 1724 023063E0 		rsb	r3, r3, r2
 5155 1728 0338A0E1 		mov	r3, r3, asl #16
 5156 172c 2338A0E1 		mov	r3, r3, lsr #16
 5157 1730 0338A0E1 		mov	r3, r3, asl #16
 5158 1734 4338A0E1 		mov	r3, r3, asr #16
 5159 1738 073063E2 		rsb	r3, r3, #7
 5160 173c 0331A0E1 		mov	r3, r3, asl #2
 5161 1740 1C33A0E1 		mov	r3, ip, asl r3
 5162 1744 033080E1 		orr	r3, r0, r3
 5163 1748 003081E5 		str	r3, [r1, #0]
 5164              	.L69:
 348:../lcd.c      ****         while( (usLen--) > 0 )
 5165              		.loc 1 348 0 discriminator 1
 5166 174c FE305BE1 		ldrsh	r3, [fp, #-14]
 5167 1750 000053E3 		cmp	r3, #0
 5168 1754 0030A0D3 		movle	r3, #0
 5169 1758 0130A0C3 		movgt	r3, #1
 5170 175c FF3003E2 		and	r3, r3, #255
 5171 1760 BE205BE1 		ldrh	r2, [fp, #-14]	@ movhi
 5172 1764 012042E2 		sub	r2, r2, #1
 5173 1768 BE204BE1 		strh	r2, [fp, #-14]	@ movhi
 5174 176c 000053E3 		cmp	r3, #0
 5175 1770 A6FFFF1A 		bne	.L70
 351:../lcd.c      ****         }
 352:../lcd.c      ****         usX0++;
 5176              		.loc 1 352 0
 5177 1774 BA315BE1 		ldrh	r3, [fp, #-26]	@ movhi
 5178 1778 013083E2 		add	r3, r3, #1
 5179 177c BA314BE1 		strh	r3, [fp, #-26]	@ movhi
 5180 1780 000000EA 		b	.L68
 5181              	.L72:
 345:../lcd.c      ****     while( (usWidth--) > 0 )
 5182              		.loc 1 345 0
 5183 1784 0000A0E1 		mov	r0, r0	@ nop
 5184              	.L68:
 345:../lcd.c      ****     while( (usWidth--) > 0 )
 5185              		.loc 1 345 0 is_stmt 0 discriminator 1
 5186 1788 B430DBE1 		ldrh	r3, [fp, #4]
 5187 178c 000053E3 		cmp	r3, #0
 5188 1790 0030A003 		moveq	r3, #0
 5189 1794 0130A013 		movne	r3, #1
 5190 1798 FF3003E2 		and	r3, r3, #255
 5191 179c B420DBE1 		ldrh	r2, [fp, #4]	@ movhi
 5192 17a0 012042E2 		sub	r2, r2, #1
 5193 17a4 B420CBE1 		strh	r2, [fp, #4]	@ movhi
 5194 17a8 000053E3 		cmp	r3, #0
 5195 17ac 8DFFFF1A 		bne	.L71
 353:../lcd.c      ****     }
 354:../lcd.c      **** }
 5196              		.loc 1 354 0 is_stmt 1
 5197 17b0 0CD04BE2 		sub	sp, fp, #12
 5198 17b4 00689DE8 		ldmfd	sp, {fp, sp, lr}
 5199 17b8 1EFF2FE1 		bx	lr
 5200              		.cfi_endproc
 5201              	.LFE8:
 5203              		.align	2
 5204              		.global	Lcd_DspAscII8x16
 5206              	Lcd_DspAscII8x16:
 5207              	.LFB9:
 355:../lcd.c      **** 
 356:../lcd.c      **** /*********************************************************************************************
 357:../lcd.c      **** * name:		Lcd_DspAscII8x16()
 358:../lcd.c      **** * func:		display 8x16 ASCII character string 
 359:../lcd.c      **** * para:		usX0,usY0 -- ASCII character string's start point coordinate
 360:../lcd.c      **** *			ForeColor -- appointed color value
 361:../lcd.c      **** *			pucChar   -- ASCII character string
 362:../lcd.c      **** * ret:		none
 363:../lcd.c      **** * modify:
 364:../lcd.c      **** * comment:		
 365:../lcd.c      **** *********************************************************************************************/
 366:../lcd.c      **** void Lcd_DspAscII8x16(INT16U x0, INT16U y0, INT8U ForeColor, INT8U * s)
 367:../lcd.c      **** {
 5208              		.loc 1 367 0
 5209              		.cfi_startproc
 5210              		@ Function supports interworking.
 5211              		@ args = 0, pretend = 0, frame = 56
 5212              		@ frame_needed = 1, uses_anonymous_args = 0
 5213 17bc 0DC0A0E1 		mov	ip, sp
 5214              	.LCFI18:
 5215              		.cfi_def_cfa_register 12
 5216 17c0 10D82DE9 		stmfd	sp!, {r4, fp, ip, lr, pc}
 5217 17c4 04B04CE2 		sub	fp, ip, #4
 5218              		.cfi_offset 14, -8
 5219              		.cfi_offset 13, -12
 5220              		.cfi_offset 11, -16
 5221              		.cfi_offset 4, -20
 5222              	.LCFI19:
 5223              		.cfi_def_cfa 11, 4
 5224 17c8 3CD04DE2 		sub	sp, sp, #60
 5225 17cc 48300BE5 		str	r3, [fp, #-72]
 5226 17d0 BE034BE1 		strh	r0, [fp, #-62]	@ movhi
 5227 17d4 B0144BE1 		strh	r1, [fp, #-64]	@ movhi
 5228 17d8 0230A0E1 		mov	r3, r2
 5229 17dc 41304BE5 		strb	r3, [fp, #-65]
 368:../lcd.c      **** 	INT16 i,j,k,x,y,xx;
 369:../lcd.c      **** 	INT8U qm;
 370:../lcd.c      **** 	INT32U ulOffset;
 371:../lcd.c      **** 	INT8 ywbuf[16],temp[2];
 372:../lcd.c      ****     
 373:../lcd.c      **** 	for( i = 0; i < strlen((const char*)s); i++ )
 5230              		.loc 1 373 0
 5231 17e0 0030A0E3 		mov	r3, #0
 5232 17e4 B6314BE1 		strh	r3, [fp, #-22]	@ movhi
 5233 17e8 AE0000EA 		b	.L74
 5234              	.L84:
 374:../lcd.c      **** 	{
 375:../lcd.c      **** 		if( (INT8U)*(s+i) >= 161 )
 5235              		.loc 1 375 0
 5236 17ec F6315BE1 		ldrsh	r3, [fp, #-22]
 5237 17f0 48201BE5 		ldr	r2, [fp, #-72]
 5238 17f4 033082E0 		add	r3, r2, r3
 5239 17f8 0030D3E5 		ldrb	r3, [r3, #0]	@ zero_extendqisi2
 5240 17fc A00053E3 		cmp	r3, #160
 5241 1800 0700009A 		bls	.L75
 376:../lcd.c      **** 		{
 377:../lcd.c      **** 			temp[0] = *(s + i);
 5242              		.loc 1 377 0
 5243 1804 F6315BE1 		ldrsh	r3, [fp, #-22]
 5244 1808 48201BE5 		ldr	r2, [fp, #-72]
 5245 180c 033082E0 		add	r3, r2, r3
 5246 1810 0030D3E5 		ldrb	r3, [r3, #0]	@ zero_extendqisi2
 5247 1814 3C304BE5 		strb	r3, [fp, #-60]
 378:../lcd.c      **** 			temp[1] = '\0';
 5248              		.loc 1 378 0
 5249 1818 0030A0E3 		mov	r3, #0
 5250 181c 3B304BE5 		strb	r3, [fp, #-59]
 379:../lcd.c      **** 			return;
 5251              		.loc 1 379 0
 5252 1820 A60000EA 		b	.L73
 5253              	.L75:
 380:../lcd.c      **** 		}
 381:../lcd.c      **** 		else
 382:../lcd.c      **** 		{
 383:../lcd.c      **** 			qm = *(s+i);
 5254              		.loc 1 383 0
 5255 1824 F6315BE1 		ldrsh	r3, [fp, #-22]
 5256 1828 48201BE5 		ldr	r2, [fp, #-72]
 5257 182c 033082E0 		add	r3, r2, r3
 5258 1830 0030D3E5 		ldrb	r3, [r3, #0]
 5259 1834 1D304BE5 		strb	r3, [fp, #-29]
 384:../lcd.c      **** 			ulOffset = (INT32U)(qm) * 16;		//Here to be changed tomorrow
 5260              		.loc 1 384 0
 5261 1838 1D305BE5 		ldrb	r3, [fp, #-29]	@ zero_extendqisi2
 5262 183c 0332A0E1 		mov	r3, r3, asl #4
 5263 1840 24300BE5 		str	r3, [fp, #-36]
 385:../lcd.c      **** 			for( j = 0; j < 16; j ++ )
 5264              		.loc 1 385 0
 5265 1844 0030A0E3 		mov	r3, #0
 5266 1848 B8314BE1 		strh	r3, [fp, #-24]	@ movhi
 5267 184c 0D0000EA 		b	.L77
 5268              	.L78:
 386:../lcd.c      **** 			{
 387:../lcd.c      **** 				ywbuf[j] = g_auc_Ascii8x16[ulOffset + j];
 5269              		.loc 1 387 0 discriminator 2
 5270 1850 F8115BE1 		ldrsh	r1, [fp, #-24]
 5271 1854 F8215BE1 		ldrsh	r2, [fp, #-24]
 5272 1858 24301BE5 		ldr	r3, [fp, #-36]
 5273 185c 033082E0 		add	r3, r2, r3
 5274 1860 64229FE5 		ldr	r2, .L85
 5275 1864 0320D2E7 		ldrb	r2, [r2, r3]	@ zero_extendqisi2
 5276 1868 2330E0E3 		mvn	r3, #35
 5277 186c 14004BE2 		sub	r0, fp, #20
 5278 1870 011080E0 		add	r1, r0, r1
 5279 1874 033081E0 		add	r3, r1, r3
 5280 1878 0020C3E5 		strb	r2, [r3, #0]
 385:../lcd.c      **** 			for( j = 0; j < 16; j ++ )
 5281              		.loc 1 385 0 discriminator 2
 5282 187c B8315BE1 		ldrh	r3, [fp, #-24]	@ movhi
 5283 1880 013083E2 		add	r3, r3, #1
 5284 1884 B8314BE1 		strh	r3, [fp, #-24]	@ movhi
 5285              	.L77:
 385:../lcd.c      **** 			for( j = 0; j < 16; j ++ )
 5286              		.loc 1 385 0 is_stmt 0 discriminator 1
 5287 1888 F8315BE1 		ldrsh	r3, [fp, #-24]
 5288 188c 0F0053E3 		cmp	r3, #15
 5289 1890 EEFFFFDA 		ble	.L78
 388:../lcd.c      ****             }
 389:../lcd.c      **** 
 390:../lcd.c      ****             for( y = 0; y < 16; y++ )
 5290              		.loc 1 390 0 is_stmt 1
 5291 1894 0030A0E3 		mov	r3, #0
 5292 1898 BC314BE1 		strh	r3, [fp, #-28]	@ movhi
 5293 189c 7B0000EA 		b	.L79
 5294              	.L83:
 391:../lcd.c      ****             {
 392:../lcd.c      ****             	for( x = 0; x < 8; x++ ) 
 5295              		.loc 1 392 0
 5296 18a0 0030A0E3 		mov	r3, #0
 5297 18a4 BA314BE1 		strh	r3, [fp, #-26]	@ movhi
 5298 18a8 720000EA 		b	.L80
 5299              	.L82:
 393:../lcd.c      ****                	{
 394:../lcd.c      ****                 	k = x % 8;
 5300              		.loc 1 394 0
 5301 18ac FA215BE1 		ldrsh	r2, [fp, #-26]
 5302 18b0 C23FA0E1 		mov	r3, r2, asr #31
 5303 18b4 A33EA0E1 		mov	r3, r3, lsr #29
 5304 18b8 032082E0 		add	r2, r2, r3
 5305 18bc 072002E2 		and	r2, r2, #7
 5306 18c0 023063E0 		rsb	r3, r3, r2
 5307 18c4 B6324BE1 		strh	r3, [fp, #-38]	@ movhi
 395:../lcd.c      **** 			    	if( ywbuf[y]  & (0x80 >> k) )
 5308              		.loc 1 395 0
 5309 18c8 FC215BE1 		ldrsh	r2, [fp, #-28]
 5310 18cc 2330E0E3 		mvn	r3, #35
 5311 18d0 14104BE2 		sub	r1, fp, #20
 5312 18d4 022081E0 		add	r2, r1, r2
 5313 18d8 033082E0 		add	r3, r2, r3
 5314 18dc 0030D3E5 		ldrb	r3, [r3, #0]	@ zero_extendqisi2
 5315 18e0 0320A0E1 		mov	r2, r3
 5316 18e4 F6325BE1 		ldrsh	r3, [fp, #-38]
 5317 18e8 8010A0E3 		mov	r1, #128
 5318 18ec 5133A0E1 		mov	r3, r1, asr r3
 5319 18f0 033002E0 		and	r3, r2, r3
 5320 18f4 000053E3 		cmp	r3, #0
 5321 18f8 5B00000A 		beq	.L81
 396:../lcd.c      **** 			       	{
 397:../lcd.c      **** 			       		xx = x0 + x + i*8;
 5322              		.loc 1 397 0
 5323 18fc BA215BE1 		ldrh	r2, [fp, #-26]
 5324 1900 BE335BE1 		ldrh	r3, [fp, #-62]	@ movhi
 5325 1904 033082E0 		add	r3, r2, r3
 5326 1908 0338A0E1 		mov	r3, r3, asl #16
 5327 190c 2328A0E1 		mov	r2, r3, lsr #16
 5328 1910 B6315BE1 		ldrh	r3, [fp, #-22]
 5329 1914 8331A0E1 		mov	r3, r3, asl #3
 5330 1918 0338A0E1 		mov	r3, r3, asl #16
 5331 191c 2338A0E1 		mov	r3, r3, lsr #16
 5332 1920 033082E0 		add	r3, r2, r3
 5333 1924 0338A0E1 		mov	r3, r3, asl #16
 5334 1928 2338A0E1 		mov	r3, r3, lsr #16
 5335 192c B8324BE1 		strh	r3, [fp, #-40]	@ movhi
 398:../lcd.c      **** 			       		LCD_PutPixel(xx, y + y0, (INT8U)ForeColor);
 5336              		.loc 1 398 0
 5337 1930 FC215BE1 		ldrsh	r2, [fp, #-28]
 5338 1934 B0345BE1 		ldrh	r3, [fp, #-64]
 5339 1938 032082E0 		add	r2, r2, r3
 5340 193c 0230A0E1 		mov	r3, r2
 5341 1940 0331A0E1 		mov	r3, r3, asl #2
 5342 1944 023083E0 		add	r3, r3, r2
 5343 1948 0333A0E1 		mov	r3, r3, asl #6
 5344 194c A32FA0E1 		mov	r2, r3, lsr #31
 5345 1950 033082E0 		add	r3, r2, r3
 5346 1954 C330A0E1 		mov	r3, r3, asr #1
 5347 1958 C32683E2 		add	r2, r3, #204472320
 5348 195c 962C82E2 		add	r2, r2, #38400
 5349 1960 F8325BE1 		ldrsh	r3, [fp, #-40]
 5350 1964 071083E2 		add	r1, r3, #7
 5351 1968 000053E3 		cmp	r3, #0
 5352 196c 0130A0B1 		movlt	r3, r1
 5353 1970 C331A0E1 		mov	r3, r3, asr #3
 5354 1974 0338A0E1 		mov	r3, r3, asl #16
 5355 1978 2338A0E1 		mov	r3, r3, lsr #16
 5356 197c 0338A0E1 		mov	r3, r3, asl #16
 5357 1980 4338A0E1 		mov	r3, r3, asr #16
 5358 1984 0331A0E1 		mov	r3, r3, asl #2
 5359 1988 033082E0 		add	r3, r2, r3
 5360 198c 0310A0E1 		mov	r1, r3
 5361 1990 FC215BE1 		ldrsh	r2, [fp, #-28]
 5362 1994 B0345BE1 		ldrh	r3, [fp, #-64]
 5363 1998 032082E0 		add	r2, r2, r3
 5364 199c 0230A0E1 		mov	r3, r2
 5365 19a0 0331A0E1 		mov	r3, r3, asl #2
 5366 19a4 023083E0 		add	r3, r3, r2
 5367 19a8 0333A0E1 		mov	r3, r3, asl #6
 5368 19ac A32FA0E1 		mov	r2, r3, lsr #31
 5369 19b0 033082E0 		add	r3, r2, r3
 5370 19b4 C330A0E1 		mov	r3, r3, asr #1
 5371 19b8 C32683E2 		add	r2, r3, #204472320
 5372 19bc 962C82E2 		add	r2, r2, #38400
 5373 19c0 F8325BE1 		ldrsh	r3, [fp, #-40]
 5374 19c4 070083E2 		add	r0, r3, #7
 5375 19c8 000053E3 		cmp	r3, #0
 5376 19cc 0030A0B1 		movlt	r3, r0
 5377 19d0 C331A0E1 		mov	r3, r3, asr #3
 5378 19d4 0338A0E1 		mov	r3, r3, asl #16
 5379 19d8 2338A0E1 		mov	r3, r3, lsr #16
 5380 19dc 0338A0E1 		mov	r3, r3, asl #16
 5381 19e0 4338A0E1 		mov	r3, r3, asr #16
 5382 19e4 0331A0E1 		mov	r3, r3, asl #2
 5383 19e8 033082E0 		add	r3, r2, r3
 5384 19ec 000093E5 		ldr	r0, [r3, #0]
 5385 19f0 F8225BE1 		ldrsh	r2, [fp, #-40]
 5386 19f4 C23FA0E1 		mov	r3, r2, asr #31
 5387 19f8 A33EA0E1 		mov	r3, r3, lsr #29
 5388 19fc 032082E0 		add	r2, r2, r3
 5389 1a00 072002E2 		and	r2, r2, #7
 5390 1a04 023063E0 		rsb	r3, r3, r2
 5391 1a08 0338A0E1 		mov	r3, r3, asl #16
 5392 1a0c 2338A0E1 		mov	r3, r3, lsr #16
 5393 1a10 0338A0E1 		mov	r3, r3, asl #16
 5394 1a14 4338A0E1 		mov	r3, r3, asr #16
 5395 1a18 0331A0E1 		mov	r3, r3, asl #2
 5396 1a1c 0F22A0E3 		mov	r2, #-268435456
 5397 1a20 3233A0E1 		mov	r3, r2, lsr r3
 5398 1a24 0330E0E1 		mvn	r3, r3
 5399 1a28 030000E0 		and	r0, r0, r3
 5400 1a2c 41C05BE5 		ldrb	ip, [fp, #-65]	@ zero_extendqisi2
 5401 1a30 F8225BE1 		ldrsh	r2, [fp, #-40]
 5402 1a34 C23FA0E1 		mov	r3, r2, asr #31
 5403 1a38 A33EA0E1 		mov	r3, r3, lsr #29
 5404 1a3c 032082E0 		add	r2, r2, r3
 5405 1a40 072002E2 		and	r2, r2, #7
 5406 1a44 023063E0 		rsb	r3, r3, r2
 5407 1a48 0338A0E1 		mov	r3, r3, asl #16
 5408 1a4c 2338A0E1 		mov	r3, r3, lsr #16
 5409 1a50 0338A0E1 		mov	r3, r3, asl #16
 5410 1a54 4338A0E1 		mov	r3, r3, asr #16
 5411 1a58 073063E2 		rsb	r3, r3, #7
 5412 1a5c 0331A0E1 		mov	r3, r3, asl #2
 5413 1a60 1C33A0E1 		mov	r3, ip, asl r3
 5414 1a64 033080E1 		orr	r3, r0, r3
 5415 1a68 003081E5 		str	r3, [r1, #0]
 5416              	.L81:
 392:../lcd.c      ****             	for( x = 0; x < 8; x++ ) 
 5417              		.loc 1 392 0
 5418 1a6c BA315BE1 		ldrh	r3, [fp, #-26]	@ movhi
 5419 1a70 013083E2 		add	r3, r3, #1
 5420 1a74 BA314BE1 		strh	r3, [fp, #-26]	@ movhi
 5421              	.L80:
 392:../lcd.c      ****             	for( x = 0; x < 8; x++ ) 
 5422              		.loc 1 392 0 is_stmt 0 discriminator 1
 5423 1a78 FA315BE1 		ldrsh	r3, [fp, #-26]
 5424 1a7c 070053E3 		cmp	r3, #7
 5425 1a80 89FFFFDA 		ble	.L82
 390:../lcd.c      ****             for( y = 0; y < 16; y++ )
 5426              		.loc 1 390 0 is_stmt 1
 5427 1a84 BC315BE1 		ldrh	r3, [fp, #-28]	@ movhi
 5428 1a88 013083E2 		add	r3, r3, #1
 5429 1a8c BC314BE1 		strh	r3, [fp, #-28]	@ movhi
 5430              	.L79:
 390:../lcd.c      ****             for( y = 0; y < 16; y++ )
 5431              		.loc 1 390 0 is_stmt 0 discriminator 1
 5432 1a90 FC315BE1 		ldrsh	r3, [fp, #-28]
 5433 1a94 0F0053E3 		cmp	r3, #15
 5434 1a98 80FFFFDA 		ble	.L83
 373:../lcd.c      **** 	for( i = 0; i < strlen((const char*)s); i++ )
 5435              		.loc 1 373 0 is_stmt 1
 5436 1a9c B6315BE1 		ldrh	r3, [fp, #-22]	@ movhi
 5437 1aa0 013083E2 		add	r3, r3, #1
 5438 1aa4 B6314BE1 		strh	r3, [fp, #-22]	@ movhi
 5439              	.L74:
 373:../lcd.c      **** 	for( i = 0; i < strlen((const char*)s); i++ )
 5440              		.loc 1 373 0 is_stmt 0 discriminator 1
 5441 1aa8 F6415BE1 		ldrsh	r4, [fp, #-22]
 5442 1aac 48001BE5 		ldr	r0, [fp, #-72]
 5443 1ab0 FEFFFFEB 		bl	strlen
 5444 1ab4 0030A0E1 		mov	r3, r0
 5445 1ab8 030054E1 		cmp	r4, r3
 5446 1abc 4AFFFF3A 		bcc	.L84
 5447              	.L73:
 399:../lcd.c      **** 			       	}
 400:../lcd.c      **** 			   	}
 401:../lcd.c      ****             }
 402:../lcd.c      **** 		}
 403:../lcd.c      **** 	}
 404:../lcd.c      **** }
 5448              		.loc 1 404 0 is_stmt 1
 5449 1ac0 10D04BE2 		sub	sp, fp, #16
 5450 1ac4 10689DE8 		ldmfd	sp, {r4, fp, sp, lr}
 5451 1ac8 1EFF2FE1 		bx	lr
 5452              	.L86:
 5453              		.align	2
 5454              	.L85:
 5455 1acc 00000000 		.word	g_auc_Ascii8x16
 5456              		.cfi_endproc
 5457              	.LFE9:
 5459              		.align	2
 5460              		.global	ReverseLine
 5462              	ReverseLine:
 5463              	.LFB10:
 405:../lcd.c      **** 
 406:../lcd.c      **** /*********************************************************************************************
 407:../lcd.c      **** * name:		ReverseLine()
 408:../lcd.c      **** * func:		Reverse display some lines 
 409:../lcd.c      **** * para:		ulHeight -- line's height
 410:../lcd.c      **** *			ulY -- line's Y-coordinate
 411:../lcd.c      **** * ret:		none
 412:../lcd.c      **** * modify:
 413:../lcd.c      **** * comment:		
 414:../lcd.c      **** *********************************************************************************************/
 415:../lcd.c      **** void ReverseLine(INT32U ulHeight, INT32U ulY)
 416:../lcd.c      **** {
 5464              		.loc 1 416 0
 5465              		.cfi_startproc
 5466              		@ Function supports interworking.
 5467              		@ args = 0, pretend = 0, frame = 24
 5468              		@ frame_needed = 1, uses_anonymous_args = 0
 5469 1ad0 0DC0A0E1 		mov	ip, sp
 5470              	.LCFI20:
 5471              		.cfi_def_cfa_register 12
 5472 1ad4 00D82DE9 		stmfd	sp!, {fp, ip, lr, pc}
 5473 1ad8 04B04CE2 		sub	fp, ip, #4
 5474              		.cfi_offset 14, -8
 5475              		.cfi_offset 13, -12
 5476              		.cfi_offset 11, -16
 5477              	.LCFI21:
 5478              		.cfi_def_cfa 11, 4
 5479 1adc 18D04DE2 		sub	sp, sp, #24
 5480 1ae0 20000BE5 		str	r0, [fp, #-32]
 5481 1ae4 24100BE5 		str	r1, [fp, #-36]
 417:../lcd.c      **** 	INT32U i, j, temp;
 418:../lcd.c      **** 	
 419:../lcd.c      **** 	for( i = 0; i < ulHeight; i++ )
 5482              		.loc 1 419 0
 5483 1ae8 0030A0E3 		mov	r3, #0
 5484 1aec 10300BE5 		str	r3, [fp, #-16]
 5485 1af0 2C0000EA 		b	.L88
 5486              	.L91:
 420:../lcd.c      **** 	{
 421:../lcd.c      **** 		for( j = 0; j < (SCR_XSIZE/4/2) ; j++ )
 5487              		.loc 1 421 0
 5488 1af4 0030A0E3 		mov	r3, #0
 5489 1af8 14300BE5 		str	r3, [fp, #-20]
 5490 1afc 230000EA 		b	.L89
 5491              	.L90:
 422:../lcd.c      **** 		{
 423:../lcd.c      **** 			temp = *(INT32U*)(LCD_VIRTUAL_BUFFER + (ulY+i)*SCR_XSIZE/2 + j*4);
 5492              		.loc 1 423 0 discriminator 2
 5493 1b00 24201BE5 		ldr	r2, [fp, #-36]
 5494 1b04 10301BE5 		ldr	r3, [fp, #-16]
 5495 1b08 032082E0 		add	r2, r2, r3
 5496 1b0c 0230A0E1 		mov	r3, r2
 5497 1b10 0331A0E1 		mov	r3, r3, asl #2
 5498 1b14 023083E0 		add	r3, r3, r2
 5499 1b18 0333A0E1 		mov	r3, r3, asl #6
 5500 1b1c A320A0E1 		mov	r2, r3, lsr #1
 5501 1b20 14301BE5 		ldr	r3, [fp, #-20]
 5502 1b24 0331A0E1 		mov	r3, r3, asl #2
 5503 1b28 033082E0 		add	r3, r2, r3
 5504 1b2c C33683E2 		add	r3, r3, #204472320
 5505 1b30 963C83E2 		add	r3, r3, #38400
 5506 1b34 003093E5 		ldr	r3, [r3, #0]
 5507 1b38 18300BE5 		str	r3, [fp, #-24]
 424:../lcd.c      **** 			temp ^= 0xFFFFFFFF;
 5508              		.loc 1 424 0 discriminator 2
 5509 1b3c 18301BE5 		ldr	r3, [fp, #-24]
 5510 1b40 0330E0E1 		mvn	r3, r3
 5511 1b44 18300BE5 		str	r3, [fp, #-24]
 425:../lcd.c      **** 			*(INT32U*)(LCD_VIRTUAL_BUFFER + (ulY+i)*SCR_XSIZE/2 + j*4) = temp;
 5512              		.loc 1 425 0 discriminator 2
 5513 1b48 24201BE5 		ldr	r2, [fp, #-36]
 5514 1b4c 10301BE5 		ldr	r3, [fp, #-16]
 5515 1b50 032082E0 		add	r2, r2, r3
 5516 1b54 0230A0E1 		mov	r3, r2
 5517 1b58 0331A0E1 		mov	r3, r3, asl #2
 5518 1b5c 023083E0 		add	r3, r3, r2
 5519 1b60 0333A0E1 		mov	r3, r3, asl #6
 5520 1b64 A320A0E1 		mov	r2, r3, lsr #1
 5521 1b68 14301BE5 		ldr	r3, [fp, #-20]
 5522 1b6c 0331A0E1 		mov	r3, r3, asl #2
 5523 1b70 033082E0 		add	r3, r2, r3
 5524 1b74 C33683E2 		add	r3, r3, #204472320
 5525 1b78 963C83E2 		add	r3, r3, #38400
 5526 1b7c 18201BE5 		ldr	r2, [fp, #-24]
 5527 1b80 002083E5 		str	r2, [r3, #0]
 421:../lcd.c      **** 		for( j = 0; j < (SCR_XSIZE/4/2) ; j++ )
 5528              		.loc 1 421 0 discriminator 2
 5529 1b84 14301BE5 		ldr	r3, [fp, #-20]
 5530 1b88 013083E2 		add	r3, r3, #1
 5531 1b8c 14300BE5 		str	r3, [fp, #-20]
 5532              	.L89:
 421:../lcd.c      **** 		for( j = 0; j < (SCR_XSIZE/4/2) ; j++ )
 5533              		.loc 1 421 0 is_stmt 0 discriminator 1
 5534 1b90 14301BE5 		ldr	r3, [fp, #-20]
 5535 1b94 270053E3 		cmp	r3, #39
 5536 1b98 D8FFFF9A 		bls	.L90
 419:../lcd.c      **** 	for( i = 0; i < ulHeight; i++ )
 5537              		.loc 1 419 0 is_stmt 1
 5538 1b9c 10301BE5 		ldr	r3, [fp, #-16]
 5539 1ba0 013083E2 		add	r3, r3, #1
 5540 1ba4 10300BE5 		str	r3, [fp, #-16]
 5541              	.L88:
 419:../lcd.c      **** 	for( i = 0; i < ulHeight; i++ )
 5542              		.loc 1 419 0 is_stmt 0 discriminator 1
 5543 1ba8 10201BE5 		ldr	r2, [fp, #-16]
 5544 1bac 20301BE5 		ldr	r3, [fp, #-32]
 5545 1bb0 030052E1 		cmp	r2, r3
 5546 1bb4 CEFFFF3A 		bcc	.L91
 426:../lcd.c      **** 		}
 427:../lcd.c      **** 	}
 428:../lcd.c      **** }
 5547              		.loc 1 428 0 is_stmt 1
 5548 1bb8 0CD04BE2 		sub	sp, fp, #12
 5549 1bbc 00689DE8 		ldmfd	sp, {fp, sp, lr}
 5550 1bc0 1EFF2FE1 		bx	lr
 5551              		.cfi_endproc
 5552              	.LFE10:
 5554              		.data
 5557              	ucZdma0Done:
 5558 0014 01       		.byte	1
 5559 0015 000000   		.text
 5560              		.align	2
 5561              		.global	Zdma0Done
 5563              	Zdma0Done:
 5564              	.LFB11:
 429:../lcd.c      **** 
 430:../lcd.c      **** /*********************************************************************************************
 431:../lcd.c      **** * name:		Zdma0Done()
 432:../lcd.c      **** * func:		LCD dma interrupt handle function
 433:../lcd.c      **** * para:		none
 434:../lcd.c      **** * ret:		none
 435:../lcd.c      **** * modify:
 436:../lcd.c      **** * comment:		
 437:../lcd.c      **** *********************************************************************************************/
 438:../lcd.c      **** static INT8U ucZdma0Done=1;	//When DMA is finish,ucZdma0Done is cleared to Zero
 439:../lcd.c      **** void Zdma0Done(void)
 440:../lcd.c      **** {
 5565              		.loc 1 440 0
 5566              		.cfi_startproc
 5567              		@ Interrupt Service Routine.
 5568              		@ args = 0, pretend = 0, frame = 0
 5569              		@ frame_needed = 1, uses_anonymous_args = 0
 5570 1bc4 04C02DE5 		str	ip, [sp, #-4]!
 5571 1bc8 0DC0A0E1 		mov	ip, sp
 5572              	.LCFI22:
 5573              		.cfi_def_cfa_register 12
 5574 1bcc 0CD82DE9 		stmfd	sp!, {r2, r3, fp, ip, lr, pc}
 5575 1bd0 04B04CE2 		sub	fp, ip, #4
 5576              		.cfi_offset 14, -8
 5577              		.cfi_offset 13, -12
 5578              		.cfi_offset 11, -16
 5579              		.cfi_offset 3, -20
 5580              		.cfi_offset 2, -24
 5581              	.LCFI23:
 5582              		.cfi_def_cfa 11, 4
 441:../lcd.c      **** 	rI_ISPC=BIT_ZDMA0;	    //clear pending
 5583              		.loc 1 441 0
 5584 1bd4 20309FE5 		ldr	r3, .L93
 5585 1bd8 0227A0E3 		mov	r2, #524288
 5586 1bdc 002083E5 		str	r2, [r3, #0]
 442:../lcd.c      **** 	ucZdma0Done=0;
 5587              		.loc 1 442 0
 5588 1be0 18309FE5 		ldr	r3, .L93+4
 5589 1be4 0020A0E3 		mov	r2, #0
 5590 1be8 0020C3E5 		strb	r2, [r3, #0]
 443:../lcd.c      **** }
 5591              		.loc 1 443 0
 5592 1bec 14D04BE2 		sub	sp, fp, #20
 5593 1bf0 0C689DE8 		ldmfd	sp, {r2, r3, fp, sp, lr}
 5594 1bf4 04C09DE4 		ldmfd	sp!, {ip}
 5595 1bf8 04F05EE2 		subs	pc, lr, #4
 5596              	.L94:
 5597              		.align	2
 5598              	.L93:
 5599 1bfc 2400E001 		.word	31457316
 5600 1c00 14000000 		.word	ucZdma0Done
 5601              		.cfi_endproc
 5602              	.LFE11:
 5604              		.align	2
 5605              		.global	Lcd_Dma_Trans
 5607              	Lcd_Dma_Trans:
 5608              	.LFB12:
 444:../lcd.c      **** 
 445:../lcd.c      **** /*********************************************************************************************
 446:../lcd.c      **** * name:		Lcd_Dma_Trans()
 447:../lcd.c      **** * func:		dma transport virtual LCD screen to LCD actual screen
 448:../lcd.c      **** * para:		none
 449:../lcd.c      **** * ret:		none
 450:../lcd.c      **** * modify:
 451:../lcd.c      **** * comment:		
 452:../lcd.c      **** *********************************************************************************************/
 453:../lcd.c      **** void Lcd_Dma_Trans(void)
 454:../lcd.c      **** {
 5609              		.loc 1 454 0
 5610              		.cfi_startproc
 5611              		@ Function supports interworking.
 5612              		@ args = 0, pretend = 0, frame = 0
 5613              		@ frame_needed = 1, uses_anonymous_args = 0
 5614 1c04 0DC0A0E1 		mov	ip, sp
 5615              	.LCFI24:
 5616              		.cfi_def_cfa_register 12
 5617 1c08 00D82DE9 		stmfd	sp!, {fp, ip, lr, pc}
 5618 1c0c 04B04CE2 		sub	fp, ip, #4
 5619              		.cfi_offset 14, -8
 5620              		.cfi_offset 13, -12
 5621              		.cfi_offset 11, -16
 5622              	.LCFI25:
 5623              		.cfi_def_cfa 11, 4
 455:../lcd.c      **** 	INT8U err;
 456:../lcd.c      **** 	
 457:../lcd.c      **** 	ucZdma0Done=1;
 5624              		.loc 1 457 0
 5625 1c10 74309FE5 		ldr	r3, .L97
 5626 1c14 0120A0E3 		mov	r2, #1
 5627 1c18 0020C3E5 		strb	r2, [r3, #0]
 458:../lcd.c      **** 	//#define LCD_VIRTUAL_BUFFER	(0xc400000)
 459:../lcd.c      **** 	//#define LCD_ACTIVE_BUFFER	(LCD_VIRTUAL_BUFFER+(SCR_XSIZE*SCR_YSIZE/2))	//DMA ON
 460:../lcd.c      **** 	//#define LCD_ACTIVE_BUFFER	LCD_VIRTUAL_BUFFER								//DMA OFF
 461:../lcd.c      **** 	//#define LCD_BUF_SIZE		(SCR_XSIZE*SCR_YSIZE/2)
 462:../lcd.c      **** 	//So the Lcd Buffer Low area is from LCD_VIRTUAL_BUFFER to (LCD_ACTIVE_BUFFER+(SCR_XSIZE*SCR_YSIZE
 463:../lcd.c      **** 	rNCACHBE1=(((unsigned)(LCD_ACTIVE_BUFFER)>>12) <<16 )|((unsigned)(LCD_VIRTUAL_BUFFER)>>12);
 5628              		.loc 1 463 0
 5629 1c1c 6C309FE5 		ldr	r3, .L97+4
 5630 1c20 6C209FE5 		ldr	r2, .L97+8
 5631 1c24 002083E5 		str	r2, [r3, #0]
 464:../lcd.c      ****   	rZDISRC0=(DW<<30)|(1<<28)|LCD_VIRTUAL_BUFFER; // inc
 5632              		.loc 1 464 0
 5633 1c28 68309FE5 		ldr	r3, .L97+12
 5634 1c2c 68209FE5 		ldr	r2, .L97+16
 5635 1c30 002083E5 		str	r2, [r3, #0]
 465:../lcd.c      ****   	rZDIDES0=( 2<<30)  |(1<<28)|LCD_ACTIVE_BUFFER; // inc
 5636              		.loc 1 465 0
 5637 1c34 64309FE5 		ldr	r3, .L97+20
 5638 1c38 64209FE5 		ldr	r2, .L97+24
 5639 1c3c 002083E5 		str	r2, [r3, #0]
 466:../lcd.c      ****         rZDICNT0=( 2<<28)|(1<<26)|(3<<22)|(0<<20)|(LCD_BUF_SIZE);
 5640              		.loc 1 466 0
 5641 1c40 60309FE5 		ldr	r3, .L97+28
 5642 1c44 60209FE5 		ldr	r2, .L97+32
 5643 1c48 002083E5 		str	r2, [r3, #0]
 467:../lcd.c      ****         //                      |            |            |             |            |---->0 = Disa
 468:../lcd.c      ****         //                      |            |            |             |------------>Int. whenever
 469:../lcd.c      ****         //                      |            |            |-------------------->Write time on the f
 470:../lcd.c      ****         //                      |            |---------------------------->Block(4-word) transfer m
 471:../lcd.c      ****         //                      |------------------------------------>whole service
 472:../lcd.c      **** 	//reEnable ZDMA transfer
 473:../lcd.c      ****   	rZDICNT0 |= (1<<20);		//after ES3
 5644              		.loc 1 473 0
 5645 1c4c 54309FE5 		ldr	r3, .L97+28
 5646 1c50 50209FE5 		ldr	r2, .L97+28
 5647 1c54 002092E5 		ldr	r2, [r2, #0]
 5648 1c58 012682E3 		orr	r2, r2, #1048576
 5649 1c5c 002083E5 		str	r2, [r3, #0]
 474:../lcd.c      ****     rZDCON0=0x1; // start!!!  
 5650              		.loc 1 474 0
 5651 1c60 7A37A0E3 		mov	r3, #31981568
 5652 1c64 0120A0E3 		mov	r2, #1
 5653 1c68 002083E5 		str	r2, [r3, #0]
 475:../lcd.c      **** 
 476:../lcd.c      **** 	//Delay(500);
 477:../lcd.c      **** 	while(ucZdma0Done);		//wait for DMA finish
 5654              		.loc 1 477 0
 5655 1c6c 0000A0E1 		mov	r0, r0	@ nop
 5656              	.L96:
 5657              		.loc 1 477 0 is_stmt 0 discriminator 1
 5658 1c70 14309FE5 		ldr	r3, .L97
 5659 1c74 0030D3E5 		ldrb	r3, [r3, #0]	@ zero_extendqisi2
 5660 1c78 000053E3 		cmp	r3, #0
 5661 1c7c FBFFFF1A 		bne	.L96
 478:../lcd.c      **** }
 5662              		.loc 1 478 0 is_stmt 1
 5663 1c80 0CD04BE2 		sub	sp, fp, #12
 5664 1c84 00689DE8 		ldmfd	sp, {fp, sp, lr}
 5665 1c88 1EFF2FE1 		bx	lr
 5666              	.L98:
 5667              		.align	2
 5668              	.L97:
 5669 1c8c 14000000 		.word	ucZdma0Done
 5670 1c90 0800C001 		.word	29360136
 5671 1c94 09C300C3 		.word	-1023360247
 5672 1c98 0400E801 		.word	31981572
 5673 1c9c 0096301C 		.word	472946176
 5674 1ca0 0800E801 		.word	31981576
 5675 1ca4 0000309C 		.word	-1674575872
 5676 1ca8 0C00E801 		.word	31981580
 5677 1cac 0096C024 		.word	616601088
 5678              		.cfi_endproc
 5679              	.LFE12:
 5681              		.section	.rodata
 5682              		.align	2
 5683              	.LC0:
 5684 0000 436F6469 		.ascii	"Codigo del puesto: \000"
 5684      676F2064 
 5684      656C2070 
 5684      75657374 
 5684      6F3A2000 
 5685              		.text
 5686              		.align	2
 5687              		.global	Lcd_Test
 5689              	Lcd_Test:
 5690              	.LFB13:
 479:../lcd.c      **** 
 480:../lcd.c      **** /*********************************************************************************************
 481:../lcd.c      **** * name:		Lcd_Test()
 482:../lcd.c      **** * func:		LCD test function
 483:../lcd.c      **** * para:		none
 484:../lcd.c      **** * ret:		none
 485:../lcd.c      **** * modify:
 486:../lcd.c      **** * comment:		
 487:../lcd.c      **** *********************************************************************************************/
 488:../lcd.c      **** void Lcd_Test(void)
 489:../lcd.c      **** {
 5691              		.loc 1 489 0
 5692              		.cfi_startproc
 5693              		@ Function supports interworking.
 5694              		@ args = 0, pretend = 0, frame = 0
 5695              		@ frame_needed = 1, uses_anonymous_args = 0
 5696 1cb0 0DC0A0E1 		mov	ip, sp
 5697              	.LCFI26:
 5698              		.cfi_def_cfa_register 12
 5699 1cb4 00D82DE9 		stmfd	sp!, {fp, ip, lr, pc}
 5700 1cb8 04B04CE2 		sub	fp, ip, #4
 5701              		.cfi_offset 14, -8
 5702              		.cfi_offset 13, -12
 5703              		.cfi_offset 11, -16
 5704              	.LCFI27:
 5705              		.cfi_def_cfa 11, 4
 5706 1cbc 08D04DE2 		sub	sp, sp, #8
 490:../lcd.c      **** 	/* initial LCD controller */
 491:../lcd.c      **** 	Lcd_Init();
 5707              		.loc 1 491 0
 5708 1cc0 FEFFFFEB 		bl	Lcd_Init
 492:../lcd.c      **** 	/* clear screen */
 493:../lcd.c      **** 	Lcd_Clr();
 5709              		.loc 1 493 0
 5710 1cc4 FEFFFFEB 		bl	Lcd_Clr
 494:../lcd.c      **** 	Lcd_Active_Clr();
 5711              		.loc 1 494 0
 5712 1cc8 FEFFFFEB 		bl	Lcd_Active_Clr
 495:../lcd.c      **** 
 496:../lcd.c      **** 	/* draw rectangle pattern */ 
 497:../lcd.c      ****     #ifdef Eng_v // english version
 498:../lcd.c      **** 	Lcd_DspAscII8x16(10,0,DARKGRAY,"Embest S3CEV40 ");
 499:../lcd.c      **** 	#else
 500:../lcd.c      **** //	Lcd_DspHz16(10,0,DARKGRAY,"");
 501:../lcd.c      **** 	#endif
 502:../lcd.c      **** 	Lcd_DspAscII8x16(10,20,BLACK,"Codigo del puesto: ");
 5713              		.loc 1 502 0
 5714 1ccc 0A00A0E3 		mov	r0, #10
 5715 1cd0 1410A0E3 		mov	r1, #20
 5716 1cd4 0F20A0E3 		mov	r2, #15
 5717 1cd8 A0319FE5 		ldr	r3, .L100
 5718 1cdc FEFFFFEB 		bl	Lcd_DspAscII8x16
 503:../lcd.c      **** 	Lcd_Draw_Box(10,40,310,230,14);
 5719              		.loc 1 503 0
 5720 1ce0 0E30A0E3 		mov	r3, #14
 5721 1ce4 00308DE5 		str	r3, [sp, #0]
 5722 1ce8 0A00A0E3 		mov	r0, #10
 5723 1cec 2810A0E3 		mov	r1, #40
 5724 1cf0 8C219FE5 		ldr	r2, .L100+4
 5725 1cf4 E630A0E3 		mov	r3, #230
 5726 1cf8 FEFFFFEB 		bl	Lcd_Draw_Box
 504:../lcd.c      **** 	Lcd_Draw_Box(20,45,300,225,13);
 5727              		.loc 1 504 0
 5728 1cfc 0D30A0E3 		mov	r3, #13
 5729 1d00 00308DE5 		str	r3, [sp, #0]
 5730 1d04 1400A0E3 		mov	r0, #20
 5731 1d08 2D10A0E3 		mov	r1, #45
 5732 1d0c 4B2FA0E3 		mov	r2, #300
 5733 1d10 E130A0E3 		mov	r3, #225
 5734 1d14 FEFFFFEB 		bl	Lcd_Draw_Box
 505:../lcd.c      **** 	Lcd_Draw_Box(30,50,290,220,12);
 5735              		.loc 1 505 0
 5736 1d18 0C30A0E3 		mov	r3, #12
 5737 1d1c 00308DE5 		str	r3, [sp, #0]
 5738 1d20 1E00A0E3 		mov	r0, #30
 5739 1d24 3210A0E3 		mov	r1, #50
 5740 1d28 58219FE5 		ldr	r2, .L100+8
 5741 1d2c DC30A0E3 		mov	r3, #220
 5742 1d30 FEFFFFEB 		bl	Lcd_Draw_Box
 506:../lcd.c      **** 	Lcd_Draw_Box(40,55,280,215,11);
 5743              		.loc 1 506 0
 5744 1d34 0B30A0E3 		mov	r3, #11
 5745 1d38 00308DE5 		str	r3, [sp, #0]
 5746 1d3c 2800A0E3 		mov	r0, #40
 5747 1d40 3710A0E3 		mov	r1, #55
 5748 1d44 462FA0E3 		mov	r2, #280
 5749 1d48 D730A0E3 		mov	r3, #215
 5750 1d4c FEFFFFEB 		bl	Lcd_Draw_Box
 507:../lcd.c      **** 	Lcd_Draw_Box(50,60,270,210,10);
 5751              		.loc 1 507 0
 5752 1d50 0A30A0E3 		mov	r3, #10
 5753 1d54 00308DE5 		str	r3, [sp, #0]
 5754 1d58 3200A0E3 		mov	r0, #50
 5755 1d5c 3C10A0E3 		mov	r1, #60
 5756 1d60 24219FE5 		ldr	r2, .L100+12
 5757 1d64 D230A0E3 		mov	r3, #210
 5758 1d68 FEFFFFEB 		bl	Lcd_Draw_Box
 508:../lcd.c      **** 	Lcd_Draw_Box(60,65,260,205,9);
 5759              		.loc 1 508 0
 5760 1d6c 0930A0E3 		mov	r3, #9
 5761 1d70 00308DE5 		str	r3, [sp, #0]
 5762 1d74 3C00A0E3 		mov	r0, #60
 5763 1d78 4110A0E3 		mov	r1, #65
 5764 1d7c 412FA0E3 		mov	r2, #260
 5765 1d80 CD30A0E3 		mov	r3, #205
 5766 1d84 FEFFFFEB 		bl	Lcd_Draw_Box
 509:../lcd.c      **** 	Lcd_Draw_Box(70,70,250,200,8);
 5767              		.loc 1 509 0
 5768 1d88 0830A0E3 		mov	r3, #8
 5769 1d8c 00308DE5 		str	r3, [sp, #0]
 5770 1d90 4600A0E3 		mov	r0, #70
 5771 1d94 4610A0E3 		mov	r1, #70
 5772 1d98 FA20A0E3 		mov	r2, #250
 5773 1d9c C830A0E3 		mov	r3, #200
 5774 1da0 FEFFFFEB 		bl	Lcd_Draw_Box
 510:../lcd.c      **** 	Lcd_Draw_Box(80,75,240,195,7);
 5775              		.loc 1 510 0
 5776 1da4 0730A0E3 		mov	r3, #7
 5777 1da8 00308DE5 		str	r3, [sp, #0]
 5778 1dac 5000A0E3 		mov	r0, #80
 5779 1db0 4B10A0E3 		mov	r1, #75
 5780 1db4 F020A0E3 		mov	r2, #240
 5781 1db8 C330A0E3 		mov	r3, #195
 5782 1dbc FEFFFFEB 		bl	Lcd_Draw_Box
 511:../lcd.c      **** 	Lcd_Draw_Box(90,80,230,190,6);
 5783              		.loc 1 511 0
 5784 1dc0 0630A0E3 		mov	r3, #6
 5785 1dc4 00308DE5 		str	r3, [sp, #0]
 5786 1dc8 5A00A0E3 		mov	r0, #90
 5787 1dcc 5010A0E3 		mov	r1, #80
 5788 1dd0 E620A0E3 		mov	r2, #230
 5789 1dd4 BE30A0E3 		mov	r3, #190
 5790 1dd8 FEFFFFEB 		bl	Lcd_Draw_Box
 512:../lcd.c      **** 	Lcd_Draw_Box(100,85,220,185,5);
 5791              		.loc 1 512 0
 5792 1ddc 0530A0E3 		mov	r3, #5
 5793 1de0 00308DE5 		str	r3, [sp, #0]
 5794 1de4 6400A0E3 		mov	r0, #100
 5795 1de8 5510A0E3 		mov	r1, #85
 5796 1dec DC20A0E3 		mov	r2, #220
 5797 1df0 B930A0E3 		mov	r3, #185
 5798 1df4 FEFFFFEB 		bl	Lcd_Draw_Box
 513:../lcd.c      **** 	Lcd_Draw_Box(110,90,210,180,4);
 5799              		.loc 1 513 0
 5800 1df8 0430A0E3 		mov	r3, #4
 5801 1dfc 00308DE5 		str	r3, [sp, #0]
 5802 1e00 6E00A0E3 		mov	r0, #110
 5803 1e04 5A10A0E3 		mov	r1, #90
 5804 1e08 D220A0E3 		mov	r2, #210
 5805 1e0c B430A0E3 		mov	r3, #180
 5806 1e10 FEFFFFEB 		bl	Lcd_Draw_Box
 514:../lcd.c      **** 	Lcd_Draw_Box(120,95,200,175,3);
 5807              		.loc 1 514 0
 5808 1e14 0330A0E3 		mov	r3, #3
 5809 1e18 00308DE5 		str	r3, [sp, #0]
 5810 1e1c 7800A0E3 		mov	r0, #120
 5811 1e20 5F10A0E3 		mov	r1, #95
 5812 1e24 C820A0E3 		mov	r2, #200
 5813 1e28 AF30A0E3 		mov	r3, #175
 5814 1e2c FEFFFFEB 		bl	Lcd_Draw_Box
 515:../lcd.c      **** 	Lcd_Draw_Box(130,100,190,170,2);
 5815              		.loc 1 515 0
 5816 1e30 0230A0E3 		mov	r3, #2
 5817 1e34 00308DE5 		str	r3, [sp, #0]
 5818 1e38 8200A0E3 		mov	r0, #130
 5819 1e3c 6410A0E3 		mov	r1, #100
 5820 1e40 BE20A0E3 		mov	r2, #190
 5821 1e44 AA30A0E3 		mov	r3, #170
 5822 1e48 FEFFFFEB 		bl	Lcd_Draw_Box
 516:../lcd.c      **** 	BitmapView(125,135,Stru_Bitmap_gbMouse);
 5823              		.loc 1 516 0
 5824 1e4c 3C309FE5 		ldr	r3, .L100+16
 5825 1e50 0D20A0E1 		mov	r2, sp
 5826 1e54 081083E2 		add	r1, r3, #8
 5827 1e58 030091E8 		ldmia	r1, {r0, r1}
 5828 1e5c 030082E8 		stmia	r2, {r0, r1}
 5829 1e60 0C0093E8 		ldmia	r3, {r2, r3}
 5830 1e64 7D00A0E3 		mov	r0, #125
 5831 1e68 8710A0E3 		mov	r1, #135
 5832 1e6c FEFFFFEB 		bl	BitmapView
 517:../lcd.c      **** 	Lcd_Dma_Trans();
 5833              		.loc 1 517 0
 5834 1e70 FEFFFFEB 		bl	Lcd_Dma_Trans
 518:../lcd.c      **** 
 519:../lcd.c      **** }
 5835              		.loc 1 519 0
 5836 1e74 0CD04BE2 		sub	sp, fp, #12
 5837 1e78 00689DE8 		ldmfd	sp, {fp, sp, lr}
 5838 1e7c 1EFF2FE1 		bx	lr
 5839              	.L101:
 5840              		.align	2
 5841              	.L100:
 5842 1e80 00000000 		.word	.LC0
 5843 1e84 36010000 		.word	310
 5844 1e88 22010000 		.word	290
 5845 1e8c 0E010000 		.word	270
 5846 1e90 00000000 		.word	Stru_Bitmap_gbMouse
 5847              		.cfi_endproc
 5848              	.LFE13:
 5850              		.section	.rodata
 5851              		.align	2
 5852              	.LC1:
 5853 0014 5355444F 		.ascii	"SUDOKU\000"
 5853      4B5500
 5854 001b 00       		.align	2
 5855              	.LC2:
 5856 001c 50554C53 		.ascii	"PULSE UN BOTON PARA JUGAR\000"
 5856      4520554E 
 5856      20424F54 
 5856      4F4E2050 
 5856      41524120 
 5857 0036 0000     		.align	2
 5858              	.LC3:
 5859 0038 496E7374 		.ascii	"Instrucciones: \000"
 5859      72756363 
 5859      696F6E65 
 5859      733A2000 
 5860              		.align	2
 5861              	.LC4:
 5862 0048 202D2050 		.ascii	" - Primero debera elegir la fila\000"
 5862      72696D65 
 5862      726F2064 
 5862      65626572 
 5862      6120656C 
 5863 0069 000000   		.align	2
 5864              	.LC5:
 5865 006c 202D2053 		.ascii	" - Segundo debera elegir la columna\000"
 5865      6567756E 
 5865      646F2064 
 5865      65626572 
 5865      6120656C 
 5866              		.align	2
 5867              	.LC6:
 5868 0090 202D2046 		.ascii	" - Finalmente debera elegir el valor\000"
 5868      696E616C 
 5868      6D656E74 
 5868      65206465 
 5868      62657261 
 5869 00b5 000000   		.align	2
 5870              	.LC7:
 5871 00b8 202D2042 		.ascii	" - Borre el valor de la casilla con 0\000"
 5871      6F727265 
 5871      20656C20 
 5871      76616C6F 
 5871      72206465 
 5872 00de 0000     		.align	2
 5873              	.LC8:
 5874 00e0 202D2042 		.ascii	" - Boton izquierdo para cambiar un valor\000"
 5874      6F746F6E 
 5874      20697A71 
 5874      75696572 
 5874      646F2070 
 5875 0109 000000   		.align	2
 5876              	.LC9:
 5877 010c 202D2042 		.ascii	" - Boton derecho para confirmar el valor\000"
 5877      6F746F6E 
 5877      20646572 
 5877      6563686F 
 5877      20706172 
 5878 0135 000000   		.align	2
 5879              	.LC10:
 5880 0138 202D2046 		.ascii	" - Finalice el juego eligiendo la fila A\000"
 5880      696E616C 
 5880      69636520 
 5880      656C206A 
 5880      7565676F 
 5881 0161 000000   		.align	2
 5882              	.LC11:
 5883 0164 202D2045 		.ascii	" - El juego acabara con sudoku completo\000"
 5883      6C206A75 
 5883      65676F20 
 5883      61636162 
 5883      61726120 
 5884              		.align	2
 5885              	.LC12:
 5886 018c 202D204C 		.ascii	" - Las pistas se marcan con un recuadro\000"
 5886      61732070 
 5886      69737461 
 5886      73207365 
 5886      206D6172 
 5887              		.align	2
 5888              	.LC13:
 5889 01b4 202D204C 		.ascii	" - Los errores se marcan en negro\000"
 5889      6F732065 
 5889      72726F72 
 5889      65732073 
 5889      65206D61 
 5890 01d6 0000     		.align	2
 5891              	.LC14:
 5892 01d8 416C6265 		.ascii	"Alberto Revel y Ruben Quilez\000"
 5892      72746F20 
 5892      52657665 
 5892      6C207920 
 5892      52756265 
 5893              		.text
 5894              		.align	2
 5895              		.global	pantalla_inicial
 5897              	pantalla_inicial:
 5898              	.LFB14:
 520:../lcd.c      **** 
 521:../lcd.c      **** void pantalla_inicial () {
 5899              		.loc 1 521 0
 5900              		.cfi_startproc
 5901              		@ Function supports interworking.
 5902              		@ args = 0, pretend = 0, frame = 0
 5903              		@ frame_needed = 1, uses_anonymous_args = 0
 5904 1e94 0DC0A0E1 		mov	ip, sp
 5905              	.LCFI28:
 5906              		.cfi_def_cfa_register 12
 5907 1e98 00D82DE9 		stmfd	sp!, {fp, ip, lr, pc}
 5908 1e9c 04B04CE2 		sub	fp, ip, #4
 5909              		.cfi_offset 14, -8
 5910              		.cfi_offset 13, -12
 5911              		.cfi_offset 11, -16
 5912              	.LCFI29:
 5913              		.cfi_def_cfa 11, 4
 522:../lcd.c      **** 	Lcd_Clr();
 5914              		.loc 1 522 0
 5915 1ea0 FEFFFFEB 		bl	Lcd_Clr
 523:../lcd.c      **** 	Lcd_Active_Clr();
 5916              		.loc 1 523 0
 5917 1ea4 FEFFFFEB 		bl	Lcd_Active_Clr
 524:../lcd.c      **** 	Lcd_DspAscII8x16(140,15,BLACK,"SUDOKU");
 5918              		.loc 1 524 0
 5919 1ea8 8C00A0E3 		mov	r0, #140
 5920 1eac 0F10A0E3 		mov	r1, #15
 5921 1eb0 0F20A0E3 		mov	r2, #15
 5922 1eb4 14319FE5 		ldr	r3, .L103
 5923 1eb8 FEFFFFEB 		bl	Lcd_DspAscII8x16
 525:../lcd.c      **** 	Lcd_DspAscII8x16(10,70,BLACK,"PULSE UN BOTON PARA JUGAR");
 5924              		.loc 1 525 0
 5925 1ebc 0A00A0E3 		mov	r0, #10
 5926 1ec0 4610A0E3 		mov	r1, #70
 5927 1ec4 0F20A0E3 		mov	r2, #15
 5928 1ec8 04319FE5 		ldr	r3, .L103+4
 5929 1ecc FEFFFFEB 		bl	Lcd_DspAscII8x16
 526:../lcd.c      **** 	Lcd_DspAscII8x16(0,90,BLACK,"Instrucciones: ");
 5930              		.loc 1 526 0
 5931 1ed0 0000A0E3 		mov	r0, #0
 5932 1ed4 5A10A0E3 		mov	r1, #90
 5933 1ed8 0F20A0E3 		mov	r2, #15
 5934 1edc F4309FE5 		ldr	r3, .L103+8
 5935 1ee0 FEFFFFEB 		bl	Lcd_DspAscII8x16
 527:../lcd.c      **** 	Lcd_DspAscII8x16(0,100,BLACK," - Primero debera elegir la fila");
 5936              		.loc 1 527 0
 5937 1ee4 0000A0E3 		mov	r0, #0
 5938 1ee8 6410A0E3 		mov	r1, #100
 5939 1eec 0F20A0E3 		mov	r2, #15
 5940 1ef0 E4309FE5 		ldr	r3, .L103+12
 5941 1ef4 FEFFFFEB 		bl	Lcd_DspAscII8x16
 528:../lcd.c      **** 	Lcd_DspAscII8x16(0,110,BLACK," - Segundo debera elegir la columna");
 5942              		.loc 1 528 0
 5943 1ef8 0000A0E3 		mov	r0, #0
 5944 1efc 6E10A0E3 		mov	r1, #110
 5945 1f00 0F20A0E3 		mov	r2, #15
 5946 1f04 D4309FE5 		ldr	r3, .L103+16
 5947 1f08 FEFFFFEB 		bl	Lcd_DspAscII8x16
 529:../lcd.c      **** 	Lcd_DspAscII8x16(0,120,BLACK," - Finalmente debera elegir el valor");
 5948              		.loc 1 529 0
 5949 1f0c 0000A0E3 		mov	r0, #0
 5950 1f10 7810A0E3 		mov	r1, #120
 5951 1f14 0F20A0E3 		mov	r2, #15
 5952 1f18 C4309FE5 		ldr	r3, .L103+20
 5953 1f1c FEFFFFEB 		bl	Lcd_DspAscII8x16
 530:../lcd.c      **** 	Lcd_DspAscII8x16(0,130,BLACK," - Borre el valor de la casilla con 0");
 5954              		.loc 1 530 0
 5955 1f20 0000A0E3 		mov	r0, #0
 5956 1f24 8210A0E3 		mov	r1, #130
 5957 1f28 0F20A0E3 		mov	r2, #15
 5958 1f2c B4309FE5 		ldr	r3, .L103+24
 5959 1f30 FEFFFFEB 		bl	Lcd_DspAscII8x16
 531:../lcd.c      **** 	Lcd_DspAscII8x16(0,140,BLACK," - Boton izquierdo para cambiar un valor");
 5960              		.loc 1 531 0
 5961 1f34 0000A0E3 		mov	r0, #0
 5962 1f38 8C10A0E3 		mov	r1, #140
 5963 1f3c 0F20A0E3 		mov	r2, #15
 5964 1f40 A4309FE5 		ldr	r3, .L103+28
 5965 1f44 FEFFFFEB 		bl	Lcd_DspAscII8x16
 532:../lcd.c      **** 	Lcd_DspAscII8x16(0,150,BLACK," - Boton derecho para confirmar el valor");
 5966              		.loc 1 532 0
 5967 1f48 0000A0E3 		mov	r0, #0
 5968 1f4c 9610A0E3 		mov	r1, #150
 5969 1f50 0F20A0E3 		mov	r2, #15
 5970 1f54 94309FE5 		ldr	r3, .L103+32
 5971 1f58 FEFFFFEB 		bl	Lcd_DspAscII8x16
 533:../lcd.c      **** 	Lcd_DspAscII8x16(0,160,BLACK," - Finalice el juego eligiendo la fila A");
 5972              		.loc 1 533 0
 5973 1f5c 0000A0E3 		mov	r0, #0
 5974 1f60 A010A0E3 		mov	r1, #160
 5975 1f64 0F20A0E3 		mov	r2, #15
 5976 1f68 84309FE5 		ldr	r3, .L103+36
 5977 1f6c FEFFFFEB 		bl	Lcd_DspAscII8x16
 534:../lcd.c      **** 	Lcd_DspAscII8x16(0,170,BLACK," - El juego acabara con sudoku completo");
 5978              		.loc 1 534 0
 5979 1f70 0000A0E3 		mov	r0, #0
 5980 1f74 AA10A0E3 		mov	r1, #170
 5981 1f78 0F20A0E3 		mov	r2, #15
 5982 1f7c 74309FE5 		ldr	r3, .L103+40
 5983 1f80 FEFFFFEB 		bl	Lcd_DspAscII8x16
 535:../lcd.c      **** 	Lcd_DspAscII8x16(0,180,BLACK," - Las pistas se marcan con un recuadro");
 5984              		.loc 1 535 0
 5985 1f84 0000A0E3 		mov	r0, #0
 5986 1f88 B410A0E3 		mov	r1, #180
 5987 1f8c 0F20A0E3 		mov	r2, #15
 5988 1f90 64309FE5 		ldr	r3, .L103+44
 5989 1f94 FEFFFFEB 		bl	Lcd_DspAscII8x16
 536:../lcd.c      **** 	Lcd_DspAscII8x16(0,190,BLACK," - Los errores se marcan en negro");
 5990              		.loc 1 536 0
 5991 1f98 0000A0E3 		mov	r0, #0
 5992 1f9c BE10A0E3 		mov	r1, #190
 5993 1fa0 0F20A0E3 		mov	r2, #15
 5994 1fa4 54309FE5 		ldr	r3, .L103+48
 5995 1fa8 FEFFFFEB 		bl	Lcd_DspAscII8x16
 537:../lcd.c      **** 	Lcd_DspAscII8x16(40,225,BLACK,"Alberto Revel y Ruben Quilez");
 5996              		.loc 1 537 0
 5997 1fac 2800A0E3 		mov	r0, #40
 5998 1fb0 E110A0E3 		mov	r1, #225
 5999 1fb4 0F20A0E3 		mov	r2, #15
 6000 1fb8 44309FE5 		ldr	r3, .L103+52
 6001 1fbc FEFFFFEB 		bl	Lcd_DspAscII8x16
 538:../lcd.c      **** 	Lcd_Dma_Trans();
 6002              		.loc 1 538 0
 6003 1fc0 FEFFFFEB 		bl	Lcd_Dma_Trans
 539:../lcd.c      **** }
 6004              		.loc 1 539 0
 6005 1fc4 0CD04BE2 		sub	sp, fp, #12
 6006 1fc8 00689DE8 		ldmfd	sp, {fp, sp, lr}
 6007 1fcc 1EFF2FE1 		bx	lr
 6008              	.L104:
 6009              		.align	2
 6010              	.L103:
 6011 1fd0 14000000 		.word	.LC1
 6012 1fd4 1C000000 		.word	.LC2
 6013 1fd8 38000000 		.word	.LC3
 6014 1fdc 48000000 		.word	.LC4
 6015 1fe0 6C000000 		.word	.LC5
 6016 1fe4 90000000 		.word	.LC6
 6017 1fe8 B8000000 		.word	.LC7
 6018 1fec E0000000 		.word	.LC8
 6019 1ff0 0C010000 		.word	.LC9
 6020 1ff4 38010000 		.word	.LC10
 6021 1ff8 64010000 		.word	.LC11
 6022 1ffc 8C010000 		.word	.LC12
 6023 2000 B4010000 		.word	.LC13
 6024 2004 D8010000 		.word	.LC14
 6025              		.cfi_endproc
 6026              	.LFE14:
 6028              		.align	2
 6029              		.global	reverse_string
 6031              	reverse_string:
 6032              	.LFB15:
 540:../lcd.c      **** 
 541:../lcd.c      **** 
 542:../lcd.c      **** void* reverse_string(char *str)
 543:../lcd.c      **** {
 6033              		.loc 1 543 0
 6034              		.cfi_startproc
 6035              		@ Function supports interworking.
 6036              		@ args = 0, pretend = 0, frame = 24
 6037              		@ frame_needed = 1, uses_anonymous_args = 0
 6038 2008 0DC0A0E1 		mov	ip, sp
 6039              	.LCFI30:
 6040              		.cfi_def_cfa_register 12
 6041 200c 00D82DE9 		stmfd	sp!, {fp, ip, lr, pc}
 6042 2010 04B04CE2 		sub	fp, ip, #4
 6043              		.cfi_offset 14, -8
 6044              		.cfi_offset 13, -12
 6045              		.cfi_offset 11, -16
 6046              	.LCFI31:
 6047              		.cfi_def_cfa 11, 4
 6048 2014 18D04DE2 		sub	sp, sp, #24
 6049 2018 20000BE5 		str	r0, [fp, #-32]
 544:../lcd.c      **** char temp;
 545:../lcd.c      **** size_t len = strlen(str) - 1;
 6050              		.loc 1 545 0
 6051 201c 20001BE5 		ldr	r0, [fp, #-32]
 6052 2020 FEFFFFEB 		bl	strlen
 6053 2024 0030A0E1 		mov	r3, r0
 6054 2028 013043E2 		sub	r3, r3, #1
 6055 202c 18300BE5 		str	r3, [fp, #-24]
 546:../lcd.c      **** size_t i;
 547:../lcd.c      **** size_t k = len;
 6056              		.loc 1 547 0
 6057 2030 18301BE5 		ldr	r3, [fp, #-24]
 6058 2034 14300BE5 		str	r3, [fp, #-20]
 548:../lcd.c      **** 
 549:../lcd.c      **** for(i = 0; i < len; i++)
 6059              		.loc 1 549 0
 6060 2038 0030A0E3 		mov	r3, #0
 6061 203c 10300BE5 		str	r3, [fp, #-16]
 6062 2040 1C0000EA 		b	.L106
 6063              	.L109:
 550:../lcd.c      **** {
 551:../lcd.c      **** 	temp = str[k];
 6064              		.loc 1 551 0
 6065 2044 20201BE5 		ldr	r2, [fp, #-32]
 6066 2048 14301BE5 		ldr	r3, [fp, #-20]
 6067 204c 033082E0 		add	r3, r2, r3
 6068 2050 0030D3E5 		ldrb	r3, [r3, #0]
 6069 2054 19304BE5 		strb	r3, [fp, #-25]
 552:../lcd.c      **** 	str[k] = str[i];
 6070              		.loc 1 552 0
 6071 2058 20201BE5 		ldr	r2, [fp, #-32]
 6072 205c 14301BE5 		ldr	r3, [fp, #-20]
 6073 2060 033082E0 		add	r3, r2, r3
 6074 2064 20101BE5 		ldr	r1, [fp, #-32]
 6075 2068 10201BE5 		ldr	r2, [fp, #-16]
 6076 206c 022081E0 		add	r2, r1, r2
 6077 2070 0020D2E5 		ldrb	r2, [r2, #0]	@ zero_extendqisi2
 6078 2074 0020C3E5 		strb	r2, [r3, #0]
 553:../lcd.c      **** 	str[i] = temp;
 6079              		.loc 1 553 0
 6080 2078 20201BE5 		ldr	r2, [fp, #-32]
 6081 207c 10301BE5 		ldr	r3, [fp, #-16]
 6082 2080 033082E0 		add	r3, r2, r3
 6083 2084 19205BE5 		ldrb	r2, [fp, #-25]
 6084 2088 0020C3E5 		strb	r2, [r3, #0]
 554:../lcd.c      **** 	k--;
 6085              		.loc 1 554 0
 6086 208c 14301BE5 		ldr	r3, [fp, #-20]
 6087 2090 013043E2 		sub	r3, r3, #1
 6088 2094 14300BE5 		str	r3, [fp, #-20]
 555:../lcd.c      **** 
 556:../lcd.c      **** 	    /* As 2 characters are changing place for each cycle of the loop
 557:../lcd.c      **** 	       only traverse half the array of characters */
 558:../lcd.c      **** 	    if(k == (len / 2))
 6089              		.loc 1 558 0
 6090 2098 18301BE5 		ldr	r3, [fp, #-24]
 6091 209c A320A0E1 		mov	r2, r3, lsr #1
 6092 20a0 14301BE5 		ldr	r3, [fp, #-20]
 6093 20a4 030052E1 		cmp	r2, r3
 6094 20a8 0700000A 		beq	.L111
 6095              	.L107:
 549:../lcd.c      **** for(i = 0; i < len; i++)
 6096              		.loc 1 549 0
 6097 20ac 10301BE5 		ldr	r3, [fp, #-16]
 6098 20b0 013083E2 		add	r3, r3, #1
 6099 20b4 10300BE5 		str	r3, [fp, #-16]
 6100              	.L106:
 549:../lcd.c      **** for(i = 0; i < len; i++)
 6101              		.loc 1 549 0 is_stmt 0 discriminator 1
 6102 20b8 10201BE5 		ldr	r2, [fp, #-16]
 6103 20bc 18301BE5 		ldr	r3, [fp, #-24]
 6104 20c0 030052E1 		cmp	r2, r3
 6105 20c4 DEFFFF3A 		bcc	.L109
 6106 20c8 000000EA 		b	.L110
 6107              	.L111:
 559:../lcd.c      **** 	    {
 560:../lcd.c      **** 	   	    break;
 6108              		.loc 1 560 0 is_stmt 1
 6109 20cc 0000A0E1 		mov	r0, r0	@ nop
 6110              	.L110:
 561:../lcd.c      **** 	    }
 562:../lcd.c      ****     }
 563:../lcd.c      **** }
 6111              		.loc 1 563 0
 6112 20d0 0300A0E1 		mov	r0, r3
 6113 20d4 0CD04BE2 		sub	sp, fp, #12
 6114 20d8 00689DE8 		ldmfd	sp, {fp, sp, lr}
 6115 20dc 1EFF2FE1 		bx	lr
 6116              		.cfi_endproc
 6117              	.LFE15:
 6119              		.global	__aeabi_idivmod
 6120              		.align	2
 6121              		.global	itoa
 6123              	itoa:
 6124              	.LFB16:
 564:../lcd.c      **** 
 565:../lcd.c      **** char* itoa(int num, char* str, int base)
 566:../lcd.c      **** {
 6125              		.loc 1 566 0
 6126              		.cfi_startproc
 6127              		@ Function supports interworking.
 6128              		@ args = 0, pretend = 0, frame = 32
 6129              		@ frame_needed = 1, uses_anonymous_args = 0
 6130 20e0 0DC0A0E1 		mov	ip, sp
 6131              	.LCFI32:
 6132              		.cfi_def_cfa_register 12
 6133 20e4 00D82DE9 		stmfd	sp!, {fp, ip, lr, pc}
 6134 20e8 04B04CE2 		sub	fp, ip, #4
 6135              		.cfi_offset 14, -8
 6136              		.cfi_offset 13, -12
 6137              		.cfi_offset 11, -16
 6138              	.LCFI33:
 6139              		.cfi_def_cfa 11, 4
 6140 20ec 20D04DE2 		sub	sp, sp, #32
 6141 20f0 20000BE5 		str	r0, [fp, #-32]
 6142 20f4 24100BE5 		str	r1, [fp, #-36]
 6143 20f8 28200BE5 		str	r2, [fp, #-40]
 567:../lcd.c      ****     int i = 0;
 6144              		.loc 1 567 0
 6145 20fc 0030A0E3 		mov	r3, #0
 6146 2100 10300BE5 		str	r3, [fp, #-16]
 568:../lcd.c      ****     int isNegative = 0;
 6147              		.loc 1 568 0
 6148 2104 0030A0E3 		mov	r3, #0
 6149 2108 14300BE5 		str	r3, [fp, #-20]
 569:../lcd.c      **** 
 570:../lcd.c      ****     /* Handle 0 explicitely, otherwise empty string is printed for 0 */
 571:../lcd.c      ****     if (num == 0)
 6150              		.loc 1 571 0
 6151 210c 20301BE5 		ldr	r3, [fp, #-32]
 6152 2110 000053E3 		cmp	r3, #0
 6153 2114 0E00001A 		bne	.L113
 572:../lcd.c      ****     {
 573:../lcd.c      ****         str[i++] = '0';
 6154              		.loc 1 573 0
 6155 2118 10301BE5 		ldr	r3, [fp, #-16]
 6156 211c 24201BE5 		ldr	r2, [fp, #-36]
 6157 2120 033082E0 		add	r3, r2, r3
 6158 2124 3020A0E3 		mov	r2, #48
 6159 2128 0020C3E5 		strb	r2, [r3, #0]
 6160 212c 10301BE5 		ldr	r3, [fp, #-16]
 6161 2130 013083E2 		add	r3, r3, #1
 6162 2134 10300BE5 		str	r3, [fp, #-16]
 574:../lcd.c      ****         str[i] = '\0';
 6163              		.loc 1 574 0
 6164 2138 10301BE5 		ldr	r3, [fp, #-16]
 6165 213c 24201BE5 		ldr	r2, [fp, #-36]
 6166 2140 033082E0 		add	r3, r2, r3
 6167 2144 0020A0E3 		mov	r2, #0
 6168 2148 0020C3E5 		strb	r2, [r3, #0]
 575:../lcd.c      ****         return str;
 6169              		.loc 1 575 0
 6170 214c 24301BE5 		ldr	r3, [fp, #-36]
 6171 2150 3F0000EA 		b	.L114
 6172              	.L113:
 576:../lcd.c      ****     }
 577:../lcd.c      **** 
 578:../lcd.c      ****     // In standard itoa(), negative numbers are handled only with
 579:../lcd.c      ****     // base 10. Otherwise numbers are considered unsigned.
 580:../lcd.c      ****     if (num < 0 && base == 10)
 6173              		.loc 1 580 0
 6174 2154 20301BE5 		ldr	r3, [fp, #-32]
 6175 2158 000053E3 		cmp	r3, #0
 6176 215c 260000AA 		bge	.L116
 6177              		.loc 1 580 0 is_stmt 0 discriminator 1
 6178 2160 28301BE5 		ldr	r3, [fp, #-40]
 6179 2164 0A0053E3 		cmp	r3, #10
 6180 2168 2300001A 		bne	.L116
 581:../lcd.c      ****     {
 582:../lcd.c      ****         isNegative = 1;
 6181              		.loc 1 582 0 is_stmt 1
 6182 216c 0130A0E3 		mov	r3, #1
 6183 2170 14300BE5 		str	r3, [fp, #-20]
 583:../lcd.c      ****         num = -num;
 6184              		.loc 1 583 0
 6185 2174 20301BE5 		ldr	r3, [fp, #-32]
 6186 2178 003063E2 		rsb	r3, r3, #0
 6187 217c 20300BE5 		str	r3, [fp, #-32]
 584:../lcd.c      ****     }
 585:../lcd.c      **** 
 586:../lcd.c      ****     // Process individual digits
 587:../lcd.c      ****     while (num != 0)
 6188              		.loc 1 587 0
 6189 2180 1D0000EA 		b	.L116
 6190              	.L119:
 6191              	.LBB2:
 588:../lcd.c      ****     {
 589:../lcd.c      ****         int rem = num % base;
 6192              		.loc 1 589 0
 6193 2184 20301BE5 		ldr	r3, [fp, #-32]
 6194 2188 0300A0E1 		mov	r0, r3
 6195 218c 28101BE5 		ldr	r1, [fp, #-40]
 6196 2190 FEFFFFEB 		bl	__aeabi_idivmod
 6197 2194 0130A0E1 		mov	r3, r1
 6198 2198 18300BE5 		str	r3, [fp, #-24]
 590:../lcd.c      ****         str[i++] = (rem > 9)? (rem-10) + 'a' : rem + '0';
 6199              		.loc 1 590 0
 6200 219c 10301BE5 		ldr	r3, [fp, #-16]
 6201 21a0 24201BE5 		ldr	r2, [fp, #-36]
 6202 21a4 032082E0 		add	r2, r2, r3
 6203 21a8 18301BE5 		ldr	r3, [fp, #-24]
 6204 21ac 090053E3 		cmp	r3, #9
 6205 21b0 040000DA 		ble	.L117
 6206              		.loc 1 590 0 is_stmt 0 discriminator 1
 6207 21b4 18301BE5 		ldr	r3, [fp, #-24]
 6208 21b8 FF3003E2 		and	r3, r3, #255
 6209 21bc 573083E2 		add	r3, r3, #87
 6210 21c0 FF3003E2 		and	r3, r3, #255
 6211 21c4 030000EA 		b	.L118
 6212              	.L117:
 6213              		.loc 1 590 0 discriminator 2
 6214 21c8 18301BE5 		ldr	r3, [fp, #-24]
 6215 21cc FF3003E2 		and	r3, r3, #255
 6216 21d0 303083E2 		add	r3, r3, #48
 6217 21d4 FF3003E2 		and	r3, r3, #255
 6218              	.L118:
 6219              		.loc 1 590 0 discriminator 3
 6220 21d8 0030C2E5 		strb	r3, [r2, #0]
 6221 21dc 10301BE5 		ldr	r3, [fp, #-16]
 6222 21e0 013083E2 		add	r3, r3, #1
 6223 21e4 10300BE5 		str	r3, [fp, #-16]
 591:../lcd.c      ****         num = num/base;
 6224              		.loc 1 591 0 is_stmt 1 discriminator 3
 6225 21e8 20001BE5 		ldr	r0, [fp, #-32]
 6226 21ec 28101BE5 		ldr	r1, [fp, #-40]
 6227 21f0 FEFFFFEB 		bl	__aeabi_idiv
 6228 21f4 0030A0E1 		mov	r3, r0
 6229 21f8 20300BE5 		str	r3, [fp, #-32]
 6230              	.L116:
 6231              	.LBE2:
 587:../lcd.c      ****     while (num != 0)
 6232              		.loc 1 587 0 discriminator 1
 6233 21fc 20301BE5 		ldr	r3, [fp, #-32]
 6234 2200 000053E3 		cmp	r3, #0
 6235 2204 DEFFFF1A 		bne	.L119
 592:../lcd.c      ****     }
 593:../lcd.c      **** 
 594:../lcd.c      ****     // If number is negative, append '-'
 595:../lcd.c      ****     if (isNegative==1)
 6236              		.loc 1 595 0
 6237 2208 14301BE5 		ldr	r3, [fp, #-20]
 6238 220c 010053E3 		cmp	r3, #1
 6239 2210 0700001A 		bne	.L120
 596:../lcd.c      ****         str[i++] = '-';
 6240              		.loc 1 596 0
 6241 2214 10301BE5 		ldr	r3, [fp, #-16]
 6242 2218 24201BE5 		ldr	r2, [fp, #-36]
 6243 221c 033082E0 		add	r3, r2, r3
 6244 2220 2D20A0E3 		mov	r2, #45
 6245 2224 0020C3E5 		strb	r2, [r3, #0]
 6246 2228 10301BE5 		ldr	r3, [fp, #-16]
 6247 222c 013083E2 		add	r3, r3, #1
 6248 2230 10300BE5 		str	r3, [fp, #-16]
 6249              	.L120:
 597:../lcd.c      **** 
 598:../lcd.c      ****     str[i] = '\0'; // Append string terminator
 6250              		.loc 1 598 0
 6251 2234 10301BE5 		ldr	r3, [fp, #-16]
 6252 2238 24201BE5 		ldr	r2, [fp, #-36]
 6253 223c 033082E0 		add	r3, r2, r3
 6254 2240 0020A0E3 		mov	r2, #0
 6255 2244 0020C3E5 		strb	r2, [r3, #0]
 599:../lcd.c      **** 
 600:../lcd.c      ****     // Reverse the string
 601:../lcd.c      ****     reverse_string(str);
 6256              		.loc 1 601 0
 6257 2248 24001BE5 		ldr	r0, [fp, #-36]
 6258 224c FEFFFFEB 		bl	reverse_string
 602:../lcd.c      **** 
 603:../lcd.c      ****     return str;
 6259              		.loc 1 603 0
 6260 2250 24301BE5 		ldr	r3, [fp, #-36]
 6261              	.L114:
 604:../lcd.c      **** }
 6262              		.loc 1 604 0
 6263 2254 0300A0E1 		mov	r0, r3
 6264 2258 0CD04BE2 		sub	sp, fp, #12
 6265 225c 00689DE8 		ldmfd	sp, {fp, sp, lr}
 6266 2260 1EFF2FE1 		bx	lr
 6267              		.cfi_endproc
 6268              	.LFE16:
 6270              		.section	.rodata
 6271 01f5 000000   		.align	2
 6272              	.LC15:
 6273 01f8 5469656D 		.ascii	"Tiempo Total:\000"
 6273      706F2054 
 6273      6F74616C 
 6273      3A00
 6274 0206 0000     		.align	2
 6275              	.LC16:
 6276 0208 732E2054 		.ascii	"s. Tiempo Calc:\000"
 6276      69656D70 
 6276      6F204361 
 6276      6C633A00 
 6277              		.align	2
 6278              	.LC17:
 6279 0218 6D732E00 		.ascii	"ms.\000"
 6280              		.text
 6281              		.align	2
 6282              		.global	mostrarTiempo
 6284              	mostrarTiempo:
 6285              	.LFB17:
 605:../lcd.c      **** void mostrarTiempo() {
 6286              		.loc 1 605 0
 6287              		.cfi_startproc
 6288              		@ Function supports interworking.
 6289              		@ args = 0, pretend = 0, frame = 96
 6290              		@ frame_needed = 1, uses_anonymous_args = 0
 6291 2264 0DC0A0E1 		mov	ip, sp
 6292              	.LCFI34:
 6293              		.cfi_def_cfa_register 12
 6294 2268 00D82DE9 		stmfd	sp!, {fp, ip, lr, pc}
 6295 226c 04B04CE2 		sub	fp, ip, #4
 6296              		.cfi_offset 14, -8
 6297              		.cfi_offset 13, -12
 6298              		.cfi_offset 11, -16
 6299              	.LCFI35:
 6300              		.cfi_def_cfa 11, 4
 6301 2270 68D04DE2 		sub	sp, sp, #104
 606:../lcd.c      **** 	LcdClrRect(0,0,SCR_XSIZE,initY-1,0);
 6302              		.loc 1 606 0
 6303 2274 44319FE5 		ldr	r3, .L122
 6304 2278 003093E5 		ldr	r3, [r3, #0]
 6305 227c 0338A0E1 		mov	r3, r3, asl #16
 6306 2280 2338A0E1 		mov	r3, r3, lsr #16
 6307 2284 013043E2 		sub	r3, r3, #1
 6308 2288 0338A0E1 		mov	r3, r3, asl #16
 6309 228c 2338A0E1 		mov	r3, r3, lsr #16
 6310 2290 0338A0E1 		mov	r3, r3, asl #16
 6311 2294 2338A0E1 		mov	r3, r3, lsr #16
 6312 2298 0338A0E1 		mov	r3, r3, asl #16
 6313 229c 4338A0E1 		mov	r3, r3, asr #16
 6314 22a0 0020A0E3 		mov	r2, #0
 6315 22a4 00208DE5 		str	r2, [sp, #0]
 6316 22a8 0000A0E3 		mov	r0, #0
 6317 22ac 0010A0E3 		mov	r1, #0
 6318 22b0 052DA0E3 		mov	r2, #320
 6319 22b4 FEFFFFEB 		bl	LcdClrRect
 607:../lcd.c      **** 	char buffer [5];
 608:../lcd.c      **** 	char buffer2 [5];
 609:../lcd.c      **** 	itoa (tiempoTotal/1000000,buffer, 10);
 6320              		.loc 1 609 0
 6321 22b8 04319FE5 		ldr	r3, .L122+4
 6322 22bc 002093E5 		ldr	r2, [r3, #0]
 6323 22c0 00319FE5 		ldr	r3, .L122+8
 6324 22c4 921383E0 		umull	r1, r3, r2, r3
 6325 22c8 2339A0E1 		mov	r3, r3, lsr #18
 6326 22cc 0320A0E1 		mov	r2, r3
 6327 22d0 14304BE2 		sub	r3, fp, #20
 6328 22d4 0200A0E1 		mov	r0, r2
 6329 22d8 0310A0E1 		mov	r1, r3
 6330 22dc 0A20A0E3 		mov	r2, #10
 6331 22e0 FEFFFFEB 		bl	itoa
 610:../lcd.c      **** 	itoa (tiempoCalculo/1000,buffer2, 10);
 6332              		.loc 1 610 0
 6333 22e4 E0309FE5 		ldr	r3, .L122+12
 6334 22e8 002093E5 		ldr	r2, [r3, #0]
 6335 22ec DC309FE5 		ldr	r3, .L122+16
 6336 22f0 921383E0 		umull	r1, r3, r2, r3
 6337 22f4 2333A0E1 		mov	r3, r3, lsr #6
 6338 22f8 0320A0E1 		mov	r2, r3
 6339 22fc 1C304BE2 		sub	r3, fp, #28
 6340 2300 0200A0E1 		mov	r0, r2
 6341 2304 0310A0E1 		mov	r1, r3
 6342 2308 0A20A0E3 		mov	r2, #10
 6343 230c FEFFFFEB 		bl	itoa
 611:../lcd.c      **** 	char str[80];
 612:../lcd.c      **** 	strcpy(str, "Tiempo Total:");
 6344              		.loc 1 612 0
 6345 2310 6C304BE2 		sub	r3, fp, #108
 6346 2314 0300A0E1 		mov	r0, r3
 6347 2318 B4109FE5 		ldr	r1, .L122+20
 6348 231c 0E20A0E3 		mov	r2, #14
 6349 2320 FEFFFFEB 		bl	memcpy
 613:../lcd.c      **** 	strcat(str, buffer);
 6350              		.loc 1 613 0
 6351 2324 6C204BE2 		sub	r2, fp, #108
 6352 2328 14304BE2 		sub	r3, fp, #20
 6353 232c 0200A0E1 		mov	r0, r2
 6354 2330 0310A0E1 		mov	r1, r3
 6355 2334 FEFFFFEB 		bl	strcat
 614:../lcd.c      **** 	strcat(str, "s. Tiempo Calc:");
 6356              		.loc 1 614 0
 6357 2338 6C304BE2 		sub	r3, fp, #108
 6358 233c 0300A0E1 		mov	r0, r3
 6359 2340 FEFFFFEB 		bl	strlen
 6360 2344 0030A0E1 		mov	r3, r0
 6361 2348 6C204BE2 		sub	r2, fp, #108
 6362 234c 033082E0 		add	r3, r2, r3
 6363 2350 0300A0E1 		mov	r0, r3
 6364 2354 7C109FE5 		ldr	r1, .L122+24
 6365 2358 1020A0E3 		mov	r2, #16
 6366 235c FEFFFFEB 		bl	memcpy
 615:../lcd.c      **** 	strcat(str, buffer2);
 6367              		.loc 1 615 0
 6368 2360 6C204BE2 		sub	r2, fp, #108
 6369 2364 1C304BE2 		sub	r3, fp, #28
 6370 2368 0200A0E1 		mov	r0, r2
 6371 236c 0310A0E1 		mov	r1, r3
 6372 2370 FEFFFFEB 		bl	strcat
 616:../lcd.c      **** 	strcat(str, "ms.");
 6373              		.loc 1 616 0
 6374 2374 6C304BE2 		sub	r3, fp, #108
 6375 2378 0300A0E1 		mov	r0, r3
 6376 237c FEFFFFEB 		bl	strlen
 6377 2380 0030A0E1 		mov	r3, r0
 6378 2384 6C204BE2 		sub	r2, fp, #108
 6379 2388 033082E0 		add	r3, r2, r3
 6380 238c 0300A0E1 		mov	r0, r3
 6381 2390 44109FE5 		ldr	r1, .L122+28
 6382 2394 0420A0E3 		mov	r2, #4
 6383 2398 FEFFFFEB 		bl	memcpy
 617:../lcd.c      **** 	Lcd_DspAscII8x16(0,0,BLACK,str);
 6384              		.loc 1 617 0
 6385 239c 6C304BE2 		sub	r3, fp, #108
 6386 23a0 0000A0E3 		mov	r0, #0
 6387 23a4 0010A0E3 		mov	r1, #0
 6388 23a8 0F20A0E3 		mov	r2, #15
 6389 23ac FEFFFFEB 		bl	Lcd_DspAscII8x16
 618:../lcd.c      **** 	Lcd_Dma_Trans();
 6390              		.loc 1 618 0
 6391 23b0 FEFFFFEB 		bl	Lcd_Dma_Trans
 619:../lcd.c      **** }
 6392              		.loc 1 619 0
 6393 23b4 0CD04BE2 		sub	sp, fp, #12
 6394 23b8 00689DE8 		ldmfd	sp, {fp, sp, lr}
 6395 23bc 1EFF2FE1 		bx	lr
 6396              	.L123:
 6397              		.align	2
 6398              	.L122:
 6399 23c0 08000000 		.word	initY
 6400 23c4 00000000 		.word	tiempoTotal
 6401 23c8 83DE1B43 		.word	1125899907
 6402 23cc 00000000 		.word	tiempoCalculo
 6403 23d0 D34D6210 		.word	274877907
 6404 23d4 F8010000 		.word	.LC15
 6405 23d8 08020000 		.word	.LC16
 6406 23dc 18020000 		.word	.LC17
 6407              		.cfi_endproc
 6408              	.LFE17:
 6410              		.section	.rodata
 6411              		.align	2
 6412              	.LC18:
 6413 021c 494E5452 		.ascii	"INTRODUZCA FILA A PARA ACABAR LA PARTIDA\000"
 6413      4F44555A 
 6413      43412046 
 6413      494C4120 
 6413      41205041 
 6414              		.text
 6415              		.align	2
 6416              		.global	tablero
 6418              	tablero:
 6419              	.LFB18:
 620:../lcd.c      **** 
 621:../lcd.c      **** void tablero () {
 6420              		.loc 1 621 0
 6421              		.cfi_startproc
 6422              		@ Function supports interworking.
 6423              		@ args = 0, pretend = 0, frame = 8
 6424              		@ frame_needed = 1, uses_anonymous_args = 0
 6425 23e0 0DC0A0E1 		mov	ip, sp
 6426              	.LCFI36:
 6427              		.cfi_def_cfa_register 12
 6428 23e4 00D82DE9 		stmfd	sp!, {fp, ip, lr, pc}
 6429 23e8 04B04CE2 		sub	fp, ip, #4
 6430              		.cfi_offset 14, -8
 6431              		.cfi_offset 13, -12
 6432              		.cfi_offset 11, -16
 6433              	.LCFI37:
 6434              		.cfi_def_cfa 11, 4
 6435 23ec 10D04DE2 		sub	sp, sp, #16
 622:../lcd.c      **** 	// Borramos la pantalla
 623:../lcd.c      **** 	Lcd_Clr();
 6436              		.loc 1 623 0
 6437 23f0 FEFFFFEB 		bl	Lcd_Clr
 624:../lcd.c      **** 	Lcd_Active_Clr();
 6438              		.loc 1 624 0
 6439 23f4 FEFFFFEB 		bl	Lcd_Active_Clr
 625:../lcd.c      **** 	// Pintamos el recuadro exterior en el que ira dibujado el tablero
 626:../lcd.c      **** 
 627:../lcd.c      ****     mostrarTiempo();
 6440              		.loc 1 627 0
 6441 23f8 FEFFFFEB 		bl	mostrarTiempo
 628:../lcd.c      **** 	Lcd_Draw_Box(initX,initY,limitX,limitY,14);
 6442              		.loc 1 628 0
 6443 23fc 64339FE5 		ldr	r3, .L129
 6444 2400 003093E5 		ldr	r3, [r3, #0]
 6445 2404 0338A0E1 		mov	r3, r3, asl #16
 6446 2408 2308A0E1 		mov	r0, r3, lsr #16
 6447 240c 58339FE5 		ldr	r3, .L129+4
 6448 2410 003093E5 		ldr	r3, [r3, #0]
 6449 2414 0338A0E1 		mov	r3, r3, asl #16
 6450 2418 2318A0E1 		mov	r1, r3, lsr #16
 6451 241c 4C339FE5 		ldr	r3, .L129+8
 6452 2420 003093E5 		ldr	r3, [r3, #0]
 6453 2424 0338A0E1 		mov	r3, r3, asl #16
 6454 2428 2328A0E1 		mov	r2, r3, lsr #16
 6455 242c 40339FE5 		ldr	r3, .L129+12
 6456 2430 003093E5 		ldr	r3, [r3, #0]
 6457 2434 0338A0E1 		mov	r3, r3, asl #16
 6458 2438 2338A0E1 		mov	r3, r3, lsr #16
 6459 243c 0008A0E1 		mov	r0, r0, asl #16
 6460 2440 4008A0E1 		mov	r0, r0, asr #16
 6461 2444 0118A0E1 		mov	r1, r1, asl #16
 6462 2448 4118A0E1 		mov	r1, r1, asr #16
 6463 244c 0228A0E1 		mov	r2, r2, asl #16
 6464 2450 4228A0E1 		mov	r2, r2, asr #16
 6465 2454 0338A0E1 		mov	r3, r3, asl #16
 6466 2458 4338A0E1 		mov	r3, r3, asr #16
 6467 245c 0EC0A0E3 		mov	ip, #14
 6468 2460 00C08DE5 		str	ip, [sp, #0]
 6469 2464 FEFFFFEB 		bl	Lcd_Draw_Box
 629:../lcd.c      **** 	// Pintamos las lineas (Horizontales y verticales) que conformaran el tablero e informacin
 630:../lcd.c      **** 	int i = 1;
 6470              		.loc 1 630 0
 6471 2468 0130A0E3 		mov	r3, #1
 6472 246c 10300BE5 		str	r3, [fp, #-16]
 631:../lcd.c      **** 	for ( i = 1; i < 9; i++) {
 6473              		.loc 1 631 0
 6474 2470 0130A0E3 		mov	r3, #1
 6475 2474 10300BE5 		str	r3, [fp, #-16]
 6476 2478 AE0000EA 		b	.L125
 6477              	.L128:
 632:../lcd.c      **** 		if( i % 3 == 0)
 6478              		.loc 1 632 0
 6479 247c 10101BE5 		ldr	r1, [fp, #-16]
 6480 2480 F0329FE5 		ldr	r3, .L129+16
 6481 2484 9301C2E0 		smull	r0, r2, r3, r1
 6482 2488 C13FA0E1 		mov	r3, r1, asr #31
 6483 248c 022063E0 		rsb	r2, r3, r2
 6484 2490 0230A0E1 		mov	r3, r2
 6485 2494 8330A0E1 		mov	r3, r3, asl #1
 6486 2498 023083E0 		add	r3, r3, r2
 6487 249c 012063E0 		rsb	r2, r3, r1
 6488 24a0 000052E3 		cmp	r2, #0
 6489 24a4 5000001A 		bne	.L126
 633:../lcd.c      **** 		{
 634:../lcd.c      **** 			Lcd_Draw_HLine(initX,limitX,initY + (i*spawnY),14,3);
 6490              		.loc 1 634 0
 6491 24a8 B8329FE5 		ldr	r3, .L129
 6492 24ac 003093E5 		ldr	r3, [r3, #0]
 6493 24b0 0338A0E1 		mov	r3, r3, asl #16
 6494 24b4 2318A0E1 		mov	r1, r3, lsr #16
 6495 24b8 B0329FE5 		ldr	r3, .L129+8
 6496 24bc 003093E5 		ldr	r3, [r3, #0]
 6497 24c0 0338A0E1 		mov	r3, r3, asl #16
 6498 24c4 2328A0E1 		mov	r2, r3, lsr #16
 6499 24c8 10301BE5 		ldr	r3, [fp, #-16]
 6500 24cc 0338A0E1 		mov	r3, r3, asl #16
 6501 24d0 2338A0E1 		mov	r3, r3, lsr #16
 6502 24d4 A0029FE5 		ldr	r0, .L129+20
 6503 24d8 000090E5 		ldr	r0, [r0, #0]
 6504 24dc 0008A0E1 		mov	r0, r0, asl #16
 6505 24e0 2008A0E1 		mov	r0, r0, lsr #16
 6506 24e4 900303E0 		mul	r3, r0, r3
 6507 24e8 0338A0E1 		mov	r3, r3, asl #16
 6508 24ec 2308A0E1 		mov	r0, r3, lsr #16
 6509 24f0 74329FE5 		ldr	r3, .L129+4
 6510 24f4 003093E5 		ldr	r3, [r3, #0]
 6511 24f8 0338A0E1 		mov	r3, r3, asl #16
 6512 24fc 2338A0E1 		mov	r3, r3, lsr #16
 6513 2500 033080E0 		add	r3, r0, r3
 6514 2504 0338A0E1 		mov	r3, r3, asl #16
 6515 2508 2338A0E1 		mov	r3, r3, lsr #16
 6516 250c 0338A0E1 		mov	r3, r3, asl #16
 6517 2510 2338A0E1 		mov	r3, r3, lsr #16
 6518 2514 0118A0E1 		mov	r1, r1, asl #16
 6519 2518 4118A0E1 		mov	r1, r1, asr #16
 6520 251c 0228A0E1 		mov	r2, r2, asl #16
 6521 2520 4228A0E1 		mov	r2, r2, asr #16
 6522 2524 0338A0E1 		mov	r3, r3, asl #16
 6523 2528 4338A0E1 		mov	r3, r3, asr #16
 6524 252c 0300A0E3 		mov	r0, #3
 6525 2530 00008DE5 		str	r0, [sp, #0]
 6526 2534 0100A0E1 		mov	r0, r1
 6527 2538 0210A0E1 		mov	r1, r2
 6528 253c 0320A0E1 		mov	r2, r3
 6529 2540 0E30A0E3 		mov	r3, #14
 6530 2544 FEFFFFEB 		bl	Lcd_Draw_HLine
 635:../lcd.c      **** 			Lcd_Draw_VLine(initY,limitY,initX + (i*spawnX),14,3);
 6531              		.loc 1 635 0
 6532 2548 1C329FE5 		ldr	r3, .L129+4
 6533 254c 003093E5 		ldr	r3, [r3, #0]
 6534 2550 0338A0E1 		mov	r3, r3, asl #16
 6535 2554 2318A0E1 		mov	r1, r3, lsr #16
 6536 2558 14329FE5 		ldr	r3, .L129+12
 6537 255c 003093E5 		ldr	r3, [r3, #0]
 6538 2560 0338A0E1 		mov	r3, r3, asl #16
 6539 2564 2328A0E1 		mov	r2, r3, lsr #16
 6540 2568 10301BE5 		ldr	r3, [fp, #-16]
 6541 256c 0338A0E1 		mov	r3, r3, asl #16
 6542 2570 2338A0E1 		mov	r3, r3, lsr #16
 6543 2574 04029FE5 		ldr	r0, .L129+24
 6544 2578 000090E5 		ldr	r0, [r0, #0]
 6545 257c 0008A0E1 		mov	r0, r0, asl #16
 6546 2580 2008A0E1 		mov	r0, r0, lsr #16
 6547 2584 900303E0 		mul	r3, r0, r3
 6548 2588 0338A0E1 		mov	r3, r3, asl #16
 6549 258c 2308A0E1 		mov	r0, r3, lsr #16
 6550 2590 D0319FE5 		ldr	r3, .L129
 6551 2594 003093E5 		ldr	r3, [r3, #0]
 6552 2598 0338A0E1 		mov	r3, r3, asl #16
 6553 259c 2338A0E1 		mov	r3, r3, lsr #16
 6554 25a0 033080E0 		add	r3, r0, r3
 6555 25a4 0338A0E1 		mov	r3, r3, asl #16
 6556 25a8 2338A0E1 		mov	r3, r3, lsr #16
 6557 25ac 0338A0E1 		mov	r3, r3, asl #16
 6558 25b0 2338A0E1 		mov	r3, r3, lsr #16
 6559 25b4 0118A0E1 		mov	r1, r1, asl #16
 6560 25b8 4118A0E1 		mov	r1, r1, asr #16
 6561 25bc 0228A0E1 		mov	r2, r2, asl #16
 6562 25c0 4228A0E1 		mov	r2, r2, asr #16
 6563 25c4 0338A0E1 		mov	r3, r3, asl #16
 6564 25c8 4338A0E1 		mov	r3, r3, asr #16
 6565 25cc 0300A0E3 		mov	r0, #3
 6566 25d0 00008DE5 		str	r0, [sp, #0]
 6567 25d4 0100A0E1 		mov	r0, r1
 6568 25d8 0210A0E1 		mov	r1, r2
 6569 25dc 0320A0E1 		mov	r2, r3
 6570 25e0 0E30A0E3 		mov	r3, #14
 6571 25e4 FEFFFFEB 		bl	Lcd_Draw_VLine
 6572 25e8 4F0000EA 		b	.L127
 6573              	.L126:
 636:../lcd.c      **** 		}
 637:../lcd.c      **** 		else
 638:../lcd.c      **** 		{
 639:../lcd.c      **** 		Lcd_Draw_HLine(initX,limitX,initY + (i*spawnY),14,1);
 6574              		.loc 1 639 0
 6575 25ec 74319FE5 		ldr	r3, .L129
 6576 25f0 003093E5 		ldr	r3, [r3, #0]
 6577 25f4 0338A0E1 		mov	r3, r3, asl #16
 6578 25f8 2318A0E1 		mov	r1, r3, lsr #16
 6579 25fc 6C319FE5 		ldr	r3, .L129+8
 6580 2600 003093E5 		ldr	r3, [r3, #0]
 6581 2604 0338A0E1 		mov	r3, r3, asl #16
 6582 2608 2328A0E1 		mov	r2, r3, lsr #16
 6583 260c 10301BE5 		ldr	r3, [fp, #-16]
 6584 2610 0338A0E1 		mov	r3, r3, asl #16
 6585 2614 2338A0E1 		mov	r3, r3, lsr #16
 6586 2618 5C019FE5 		ldr	r0, .L129+20
 6587 261c 000090E5 		ldr	r0, [r0, #0]
 6588 2620 0008A0E1 		mov	r0, r0, asl #16
 6589 2624 2008A0E1 		mov	r0, r0, lsr #16
 6590 2628 900303E0 		mul	r3, r0, r3
 6591 262c 0338A0E1 		mov	r3, r3, asl #16
 6592 2630 2308A0E1 		mov	r0, r3, lsr #16
 6593 2634 30319FE5 		ldr	r3, .L129+4
 6594 2638 003093E5 		ldr	r3, [r3, #0]
 6595 263c 0338A0E1 		mov	r3, r3, asl #16
 6596 2640 2338A0E1 		mov	r3, r3, lsr #16
 6597 2644 033080E0 		add	r3, r0, r3
 6598 2648 0338A0E1 		mov	r3, r3, asl #16
 6599 264c 2338A0E1 		mov	r3, r3, lsr #16
 6600 2650 0338A0E1 		mov	r3, r3, asl #16
 6601 2654 2338A0E1 		mov	r3, r3, lsr #16
 6602 2658 0118A0E1 		mov	r1, r1, asl #16
 6603 265c 4118A0E1 		mov	r1, r1, asr #16
 6604 2660 0228A0E1 		mov	r2, r2, asl #16
 6605 2664 4228A0E1 		mov	r2, r2, asr #16
 6606 2668 0338A0E1 		mov	r3, r3, asl #16
 6607 266c 4338A0E1 		mov	r3, r3, asr #16
 6608 2670 0100A0E3 		mov	r0, #1
 6609 2674 00008DE5 		str	r0, [sp, #0]
 6610 2678 0100A0E1 		mov	r0, r1
 6611 267c 0210A0E1 		mov	r1, r2
 6612 2680 0320A0E1 		mov	r2, r3
 6613 2684 0E30A0E3 		mov	r3, #14
 6614 2688 FEFFFFEB 		bl	Lcd_Draw_HLine
 640:../lcd.c      **** 		Lcd_Draw_VLine(initY,limitY,initX + (i*spawnX),14,1);
 6615              		.loc 1 640 0
 6616 268c D8309FE5 		ldr	r3, .L129+4
 6617 2690 003093E5 		ldr	r3, [r3, #0]
 6618 2694 0338A0E1 		mov	r3, r3, asl #16
 6619 2698 2318A0E1 		mov	r1, r3, lsr #16
 6620 269c D0309FE5 		ldr	r3, .L129+12
 6621 26a0 003093E5 		ldr	r3, [r3, #0]
 6622 26a4 0338A0E1 		mov	r3, r3, asl #16
 6623 26a8 2328A0E1 		mov	r2, r3, lsr #16
 6624 26ac 10301BE5 		ldr	r3, [fp, #-16]
 6625 26b0 0338A0E1 		mov	r3, r3, asl #16
 6626 26b4 2338A0E1 		mov	r3, r3, lsr #16
 6627 26b8 C0009FE5 		ldr	r0, .L129+24
 6628 26bc 000090E5 		ldr	r0, [r0, #0]
 6629 26c0 0008A0E1 		mov	r0, r0, asl #16
 6630 26c4 2008A0E1 		mov	r0, r0, lsr #16
 6631 26c8 900303E0 		mul	r3, r0, r3
 6632 26cc 0338A0E1 		mov	r3, r3, asl #16
 6633 26d0 2308A0E1 		mov	r0, r3, lsr #16
 6634 26d4 8C309FE5 		ldr	r3, .L129
 6635 26d8 003093E5 		ldr	r3, [r3, #0]
 6636 26dc 0338A0E1 		mov	r3, r3, asl #16
 6637 26e0 2338A0E1 		mov	r3, r3, lsr #16
 6638 26e4 033080E0 		add	r3, r0, r3
 6639 26e8 0338A0E1 		mov	r3, r3, asl #16
 6640 26ec 2338A0E1 		mov	r3, r3, lsr #16
 6641 26f0 0338A0E1 		mov	r3, r3, asl #16
 6642 26f4 2338A0E1 		mov	r3, r3, lsr #16
 6643 26f8 0118A0E1 		mov	r1, r1, asl #16
 6644 26fc 4118A0E1 		mov	r1, r1, asr #16
 6645 2700 0228A0E1 		mov	r2, r2, asl #16
 6646 2704 4228A0E1 		mov	r2, r2, asr #16
 6647 2708 0338A0E1 		mov	r3, r3, asl #16
 6648 270c 4338A0E1 		mov	r3, r3, asr #16
 6649 2710 0100A0E3 		mov	r0, #1
 6650 2714 00008DE5 		str	r0, [sp, #0]
 6651 2718 0100A0E1 		mov	r0, r1
 6652 271c 0210A0E1 		mov	r1, r2
 6653 2720 0320A0E1 		mov	r2, r3
 6654 2724 0E30A0E3 		mov	r3, #14
 6655 2728 FEFFFFEB 		bl	Lcd_Draw_VLine
 6656              	.L127:
 631:../lcd.c      **** 	for ( i = 1; i < 9; i++) {
 6657              		.loc 1 631 0
 6658 272c 10301BE5 		ldr	r3, [fp, #-16]
 6659 2730 013083E2 		add	r3, r3, #1
 6660 2734 10300BE5 		str	r3, [fp, #-16]
 6661              	.L125:
 631:../lcd.c      **** 	for ( i = 1; i < 9; i++) {
 6662              		.loc 1 631 0 is_stmt 0 discriminator 1
 6663 2738 10301BE5 		ldr	r3, [fp, #-16]
 6664 273c 080053E3 		cmp	r3, #8
 6665 2740 4DFFFFDA 		ble	.L128
 641:../lcd.c      **** 		}
 642:../lcd.c      **** 	}
 643:../lcd.c      **** 	Lcd_DspAscII8x16(0,SCR_YSIZE-15,BLACK,"INTRODUZCA FILA A PARA ACABAR LA PARTIDA");
 6666              		.loc 1 643 0 is_stmt 1
 6667 2744 0000A0E3 		mov	r0, #0
 6668 2748 E110A0E3 		mov	r1, #225
 6669 274c 0F20A0E3 		mov	r2, #15
 6670 2750 2C309FE5 		ldr	r3, .L129+28
 6671 2754 FEFFFFEB 		bl	Lcd_DspAscII8x16
 644:../lcd.c      **** 	Lcd_Dma_Trans();
 6672              		.loc 1 644 0
 6673 2758 FEFFFFEB 		bl	Lcd_Dma_Trans
 645:../lcd.c      **** }
 6674              		.loc 1 645 0
 6675 275c 0CD04BE2 		sub	sp, fp, #12
 6676 2760 00689DE8 		ldmfd	sp, {fp, sp, lr}
 6677 2764 1EFF2FE1 		bx	lr
 6678              	.L130:
 6679              		.align	2
 6680              	.L129:
 6681 2768 00000000 		.word	initX
 6682 276c 08000000 		.word	initY
 6683 2770 00000000 		.word	limitX
 6684 2774 04000000 		.word	limitY
 6685 2778 56555555 		.word	1431655766
 6686 277c 10000000 		.word	spawnY
 6687 2780 0C000000 		.word	spawnX
 6688 2784 1C020000 		.word	.LC18
 6689              		.cfi_endproc
 6690              	.LFE18:
 6692              		.align	2
 6693              		.global	putData
 6695              	putData:
 6696              	.LFB19:
 646:../lcd.c      **** 
 647:../lcd.c      **** void putData(char * valor, int x, int y) {
 6697              		.loc 1 647 0
 6698              		.cfi_startproc
 6699              		@ Function supports interworking.
 6700              		@ args = 0, pretend = 0, frame = 24
 6701              		@ frame_needed = 1, uses_anonymous_args = 0
 6702 2788 0DC0A0E1 		mov	ip, sp
 6703              	.LCFI38:
 6704              		.cfi_def_cfa_register 12
 6705 278c 00D82DE9 		stmfd	sp!, {fp, ip, lr, pc}
 6706 2790 04B04CE2 		sub	fp, ip, #4
 6707              		.cfi_offset 14, -8
 6708              		.cfi_offset 13, -12
 6709              		.cfi_offset 11, -16
 6710              	.LCFI39:
 6711              		.cfi_def_cfa 11, 4
 6712 2794 18D04DE2 		sub	sp, sp, #24
 6713 2798 18000BE5 		str	r0, [fp, #-24]
 6714 279c 1C100BE5 		str	r1, [fp, #-28]
 6715 27a0 20200BE5 		str	r2, [fp, #-32]
 648:../lcd.c      **** 	int x0 = initX + spawnX * y;
 6716              		.loc 1 648 0
 6717 27a4 88309FE5 		ldr	r3, .L132
 6718 27a8 003093E5 		ldr	r3, [r3, #0]
 6719 27ac 20201BE5 		ldr	r2, [fp, #-32]
 6720 27b0 930202E0 		mul	r2, r3, r2
 6721 27b4 7C309FE5 		ldr	r3, .L132+4
 6722 27b8 003093E5 		ldr	r3, [r3, #0]
 6723 27bc 033082E0 		add	r3, r2, r3
 6724 27c0 10300BE5 		str	r3, [fp, #-16]
 649:../lcd.c      **** 	int y0 = initY + spawnY * x;
 6725              		.loc 1 649 0
 6726 27c4 70309FE5 		ldr	r3, .L132+8
 6727 27c8 003093E5 		ldr	r3, [r3, #0]
 6728 27cc 1C201BE5 		ldr	r2, [fp, #-28]
 6729 27d0 930202E0 		mul	r2, r3, r2
 6730 27d4 64309FE5 		ldr	r3, .L132+12
 6731 27d8 003093E5 		ldr	r3, [r3, #0]
 6732 27dc 033082E0 		add	r3, r2, r3
 6733 27e0 14300BE5 		str	r3, [fp, #-20]
 650:../lcd.c      **** //	int x1 = x0 + spawnX;
 651:../lcd.c      **** //	int y1 = y0 + spawnY;
 652:../lcd.c      **** 	Lcd_DspAscII8x16(x0 + 15,y0 + 7,BLACK,valor);
 6734              		.loc 1 652 0
 6735 27e4 10301BE5 		ldr	r3, [fp, #-16]
 6736 27e8 0338A0E1 		mov	r3, r3, asl #16
 6737 27ec 2338A0E1 		mov	r3, r3, lsr #16
 6738 27f0 0F3083E2 		add	r3, r3, #15
 6739 27f4 0338A0E1 		mov	r3, r3, asl #16
 6740 27f8 2328A0E1 		mov	r2, r3, lsr #16
 6741 27fc 14301BE5 		ldr	r3, [fp, #-20]
 6742 2800 0338A0E1 		mov	r3, r3, asl #16
 6743 2804 2338A0E1 		mov	r3, r3, lsr #16
 6744 2808 073083E2 		add	r3, r3, #7
 6745 280c 0338A0E1 		mov	r3, r3, asl #16
 6746 2810 2338A0E1 		mov	r3, r3, lsr #16
 6747 2814 0200A0E1 		mov	r0, r2
 6748 2818 0310A0E1 		mov	r1, r3
 6749 281c 0F20A0E3 		mov	r2, #15
 6750 2820 18301BE5 		ldr	r3, [fp, #-24]
 6751 2824 FEFFFFEB 		bl	Lcd_DspAscII8x16
 653:../lcd.c      **** }
 6752              		.loc 1 653 0
 6753 2828 0CD04BE2 		sub	sp, fp, #12
 6754 282c 00689DE8 		ldmfd	sp, {fp, sp, lr}
 6755 2830 1EFF2FE1 		bx	lr
 6756              	.L133:
 6757              		.align	2
 6758              	.L132:
 6759 2834 0C000000 		.word	spawnX
 6760 2838 00000000 		.word	initX
 6761 283c 10000000 		.word	spawnY
 6762 2840 08000000 		.word	initY
 6763              		.cfi_endproc
 6764              	.LFE19:
 6766              		.align	2
 6767              		.global	putError
 6769              	putError:
 6770              	.LFB20:
 654:../lcd.c      **** void putError(char * valor, int x, int y, int pista) {
 6771              		.loc 1 654 0
 6772              		.cfi_startproc
 6773              		@ Function supports interworking.
 6774              		@ args = 0, pretend = 0, frame = 32
 6775              		@ frame_needed = 1, uses_anonymous_args = 0
 6776 2844 0DC0A0E1 		mov	ip, sp
 6777              	.LCFI40:
 6778              		.cfi_def_cfa_register 12
 6779 2848 00D82DE9 		stmfd	sp!, {fp, ip, lr, pc}
 6780 284c 04B04CE2 		sub	fp, ip, #4
 6781              		.cfi_offset 14, -8
 6782              		.cfi_offset 13, -12
 6783              		.cfi_offset 11, -16
 6784              	.LCFI41:
 6785              		.cfi_def_cfa 11, 4
 6786 2850 28D04DE2 		sub	sp, sp, #40
 6787 2854 20000BE5 		str	r0, [fp, #-32]
 6788 2858 24100BE5 		str	r1, [fp, #-36]
 6789 285c 28200BE5 		str	r2, [fp, #-40]
 6790 2860 2C300BE5 		str	r3, [fp, #-44]
 655:../lcd.c      **** 	int x0 = initX + spawnX * y;
 6791              		.loc 1 655 0
 6792 2864 14329FE5 		ldr	r3, .L136
 6793 2868 003093E5 		ldr	r3, [r3, #0]
 6794 286c 28201BE5 		ldr	r2, [fp, #-40]
 6795 2870 930202E0 		mul	r2, r3, r2
 6796 2874 08329FE5 		ldr	r3, .L136+4
 6797 2878 003093E5 		ldr	r3, [r3, #0]
 6798 287c 033082E0 		add	r3, r2, r3
 6799 2880 10300BE5 		str	r3, [fp, #-16]
 656:../lcd.c      **** 	int y0 = initY + spawnY * x;
 6800              		.loc 1 656 0
 6801 2884 FC319FE5 		ldr	r3, .L136+8
 6802 2888 003093E5 		ldr	r3, [r3, #0]
 6803 288c 24201BE5 		ldr	r2, [fp, #-36]
 6804 2890 930202E0 		mul	r2, r3, r2
 6805 2894 F0319FE5 		ldr	r3, .L136+12
 6806 2898 003093E5 		ldr	r3, [r3, #0]
 6807 289c 033082E0 		add	r3, r2, r3
 6808 28a0 14300BE5 		str	r3, [fp, #-20]
 657:../lcd.c      **** 	int x1 = x0 + spawnX;
 6809              		.loc 1 657 0
 6810 28a4 D4319FE5 		ldr	r3, .L136
 6811 28a8 003093E5 		ldr	r3, [r3, #0]
 6812 28ac 10201BE5 		ldr	r2, [fp, #-16]
 6813 28b0 033082E0 		add	r3, r2, r3
 6814 28b4 18300BE5 		str	r3, [fp, #-24]
 658:../lcd.c      **** 	int y1 = y0 + spawnY;
 6815              		.loc 1 658 0
 6816 28b8 C8319FE5 		ldr	r3, .L136+8
 6817 28bc 003093E5 		ldr	r3, [r3, #0]
 6818 28c0 14201BE5 		ldr	r2, [fp, #-20]
 6819 28c4 033082E0 		add	r3, r2, r3
 6820 28c8 1C300BE5 		str	r3, [fp, #-28]
 659:../lcd.c      **** 	LcdClrRect(x0 + 1,y0 + 1,x1 - 1,y1 - 1,14);
 6821              		.loc 1 659 0
 6822 28cc 10301BE5 		ldr	r3, [fp, #-16]
 6823 28d0 0338A0E1 		mov	r3, r3, asl #16
 6824 28d4 2338A0E1 		mov	r3, r3, lsr #16
 6825 28d8 013083E2 		add	r3, r3, #1
 6826 28dc 0338A0E1 		mov	r3, r3, asl #16
 6827 28e0 2338A0E1 		mov	r3, r3, lsr #16
 6828 28e4 0338A0E1 		mov	r3, r3, asl #16
 6829 28e8 2308A0E1 		mov	r0, r3, lsr #16
 6830 28ec 14301BE5 		ldr	r3, [fp, #-20]
 6831 28f0 0338A0E1 		mov	r3, r3, asl #16
 6832 28f4 2338A0E1 		mov	r3, r3, lsr #16
 6833 28f8 013083E2 		add	r3, r3, #1
 6834 28fc 0338A0E1 		mov	r3, r3, asl #16
 6835 2900 2338A0E1 		mov	r3, r3, lsr #16
 6836 2904 0338A0E1 		mov	r3, r3, asl #16
 6837 2908 2318A0E1 		mov	r1, r3, lsr #16
 6838 290c 18301BE5 		ldr	r3, [fp, #-24]
 6839 2910 0338A0E1 		mov	r3, r3, asl #16
 6840 2914 2338A0E1 		mov	r3, r3, lsr #16
 6841 2918 013043E2 		sub	r3, r3, #1
 6842 291c 0338A0E1 		mov	r3, r3, asl #16
 6843 2920 2338A0E1 		mov	r3, r3, lsr #16
 6844 2924 0338A0E1 		mov	r3, r3, asl #16
 6845 2928 2328A0E1 		mov	r2, r3, lsr #16
 6846 292c 1C301BE5 		ldr	r3, [fp, #-28]
 6847 2930 0338A0E1 		mov	r3, r3, asl #16
 6848 2934 2338A0E1 		mov	r3, r3, lsr #16
 6849 2938 013043E2 		sub	r3, r3, #1
 6850 293c 0338A0E1 		mov	r3, r3, asl #16
 6851 2940 2338A0E1 		mov	r3, r3, lsr #16
 6852 2944 0338A0E1 		mov	r3, r3, asl #16
 6853 2948 2338A0E1 		mov	r3, r3, lsr #16
 6854 294c 0008A0E1 		mov	r0, r0, asl #16
 6855 2950 4008A0E1 		mov	r0, r0, asr #16
 6856 2954 0118A0E1 		mov	r1, r1, asl #16
 6857 2958 4118A0E1 		mov	r1, r1, asr #16
 6858 295c 0228A0E1 		mov	r2, r2, asl #16
 6859 2960 4228A0E1 		mov	r2, r2, asr #16
 6860 2964 0338A0E1 		mov	r3, r3, asl #16
 6861 2968 4338A0E1 		mov	r3, r3, asr #16
 6862 296c 0EC0A0E3 		mov	ip, #14
 6863 2970 00C08DE5 		str	ip, [sp, #0]
 6864 2974 FEFFFFEB 		bl	LcdClrRect
 660:../lcd.c      **** 	if (pista==1) {
 6865              		.loc 1 660 0
 6866 2978 2C301BE5 		ldr	r3, [fp, #-44]
 6867 297c 010053E3 		cmp	r3, #1
 6868 2980 2A00001A 		bne	.L135
 661:../lcd.c      **** 		Lcd_Draw_Box(x0 + 5,y0 + 2,x1 - 5,y1 - 3,5);
 6869              		.loc 1 661 0
 6870 2984 10301BE5 		ldr	r3, [fp, #-16]
 6871 2988 0338A0E1 		mov	r3, r3, asl #16
 6872 298c 2338A0E1 		mov	r3, r3, lsr #16
 6873 2990 053083E2 		add	r3, r3, #5
 6874 2994 0338A0E1 		mov	r3, r3, asl #16
 6875 2998 2338A0E1 		mov	r3, r3, lsr #16
 6876 299c 0338A0E1 		mov	r3, r3, asl #16
 6877 29a0 2308A0E1 		mov	r0, r3, lsr #16
 6878 29a4 14301BE5 		ldr	r3, [fp, #-20]
 6879 29a8 0338A0E1 		mov	r3, r3, asl #16
 6880 29ac 2338A0E1 		mov	r3, r3, lsr #16
 6881 29b0 023083E2 		add	r3, r3, #2
 6882 29b4 0338A0E1 		mov	r3, r3, asl #16
 6883 29b8 2338A0E1 		mov	r3, r3, lsr #16
 6884 29bc 0338A0E1 		mov	r3, r3, asl #16
 6885 29c0 2318A0E1 		mov	r1, r3, lsr #16
 6886 29c4 18301BE5 		ldr	r3, [fp, #-24]
 6887 29c8 0338A0E1 		mov	r3, r3, asl #16
 6888 29cc 2338A0E1 		mov	r3, r3, lsr #16
 6889 29d0 053043E2 		sub	r3, r3, #5
 6890 29d4 0338A0E1 		mov	r3, r3, asl #16
 6891 29d8 2338A0E1 		mov	r3, r3, lsr #16
 6892 29dc 0338A0E1 		mov	r3, r3, asl #16
 6893 29e0 2328A0E1 		mov	r2, r3, lsr #16
 6894 29e4 1C301BE5 		ldr	r3, [fp, #-28]
 6895 29e8 0338A0E1 		mov	r3, r3, asl #16
 6896 29ec 2338A0E1 		mov	r3, r3, lsr #16
 6897 29f0 033043E2 		sub	r3, r3, #3
 6898 29f4 0338A0E1 		mov	r3, r3, asl #16
 6899 29f8 2338A0E1 		mov	r3, r3, lsr #16
 6900 29fc 0338A0E1 		mov	r3, r3, asl #16
 6901 2a00 2338A0E1 		mov	r3, r3, lsr #16
 6902 2a04 0008A0E1 		mov	r0, r0, asl #16
 6903 2a08 4008A0E1 		mov	r0, r0, asr #16
 6904 2a0c 0118A0E1 		mov	r1, r1, asl #16
 6905 2a10 4118A0E1 		mov	r1, r1, asr #16
 6906 2a14 0228A0E1 		mov	r2, r2, asl #16
 6907 2a18 4228A0E1 		mov	r2, r2, asr #16
 6908 2a1c 0338A0E1 		mov	r3, r3, asl #16
 6909 2a20 4338A0E1 		mov	r3, r3, asr #16
 6910 2a24 05C0A0E3 		mov	ip, #5
 6911 2a28 00C08DE5 		str	ip, [sp, #0]
 6912 2a2c FEFFFFEB 		bl	Lcd_Draw_Box
 6913              	.L135:
 662:../lcd.c      **** 	}
 663:../lcd.c      **** //	Lcd_Draw_Box(x0 + 1,y0 + 1,x1 - 1,y1 - 1,14);
 664:../lcd.c      **** //	Lcd_Draw_Box(x0 + 2,y0 + 2,x1 - 2,y1 - 2,14);
 665:../lcd.c      **** 	Lcd_DspAscII8x16(x0 + 15,y0 + 7,WHITE,valor);
 6914              		.loc 1 665 0
 6915 2a30 10301BE5 		ldr	r3, [fp, #-16]
 6916 2a34 0338A0E1 		mov	r3, r3, asl #16
 6917 2a38 2338A0E1 		mov	r3, r3, lsr #16
 6918 2a3c 0F3083E2 		add	r3, r3, #15
 6919 2a40 0338A0E1 		mov	r3, r3, asl #16
 6920 2a44 2328A0E1 		mov	r2, r3, lsr #16
 6921 2a48 14301BE5 		ldr	r3, [fp, #-20]
 6922 2a4c 0338A0E1 		mov	r3, r3, asl #16
 6923 2a50 2338A0E1 		mov	r3, r3, lsr #16
 6924 2a54 073083E2 		add	r3, r3, #7
 6925 2a58 0338A0E1 		mov	r3, r3, asl #16
 6926 2a5c 2338A0E1 		mov	r3, r3, lsr #16
 6927 2a60 0200A0E1 		mov	r0, r2
 6928 2a64 0310A0E1 		mov	r1, r3
 6929 2a68 0020A0E3 		mov	r2, #0
 6930 2a6c 20301BE5 		ldr	r3, [fp, #-32]
 6931 2a70 FEFFFFEB 		bl	Lcd_DspAscII8x16
 666:../lcd.c      **** 	//putData(valor, x, y);
 667:../lcd.c      **** 
 668:../lcd.c      **** }
 6932              		.loc 1 668 0
 6933 2a74 0CD04BE2 		sub	sp, fp, #12
 6934 2a78 00689DE8 		ldmfd	sp, {fp, sp, lr}
 6935 2a7c 1EFF2FE1 		bx	lr
 6936              	.L137:
 6937              		.align	2
 6938              	.L136:
 6939 2a80 0C000000 		.word	spawnX
 6940 2a84 00000000 		.word	initX
 6941 2a88 10000000 		.word	spawnY
 6942 2a8c 08000000 		.word	initY
 6943              		.cfi_endproc
 6944              	.LFE20:
 6946              		.align	2
 6947              		.global	putPista
 6949              	putPista:
 6950              	.LFB21:
 669:../lcd.c      **** void putPista(int x, int y) {
 6951              		.loc 1 669 0
 6952              		.cfi_startproc
 6953              		@ Function supports interworking.
 6954              		@ args = 0, pretend = 0, frame = 24
 6955              		@ frame_needed = 1, uses_anonymous_args = 0
 6956 2a90 0DC0A0E1 		mov	ip, sp
 6957              	.LCFI42:
 6958              		.cfi_def_cfa_register 12
 6959 2a94 00D82DE9 		stmfd	sp!, {fp, ip, lr, pc}
 6960 2a98 04B04CE2 		sub	fp, ip, #4
 6961              		.cfi_offset 14, -8
 6962              		.cfi_offset 13, -12
 6963              		.cfi_offset 11, -16
 6964              	.LCFI43:
 6965              		.cfi_def_cfa 11, 4
 6966 2a9c 20D04DE2 		sub	sp, sp, #32
 6967 2aa0 20000BE5 		str	r0, [fp, #-32]
 6968 2aa4 24100BE5 		str	r1, [fp, #-36]
 670:../lcd.c      **** 	int x0 = initX + spawnX * y;
 6969              		.loc 1 670 0
 6970 2aa8 18319FE5 		ldr	r3, .L139
 6971 2aac 003093E5 		ldr	r3, [r3, #0]
 6972 2ab0 24201BE5 		ldr	r2, [fp, #-36]
 6973 2ab4 930202E0 		mul	r2, r3, r2
 6974 2ab8 0C319FE5 		ldr	r3, .L139+4
 6975 2abc 003093E5 		ldr	r3, [r3, #0]
 6976 2ac0 033082E0 		add	r3, r2, r3
 6977 2ac4 10300BE5 		str	r3, [fp, #-16]
 671:../lcd.c      **** 	int y0 = initY + spawnY * x;
 6978              		.loc 1 671 0
 6979 2ac8 00319FE5 		ldr	r3, .L139+8
 6980 2acc 003093E5 		ldr	r3, [r3, #0]
 6981 2ad0 20201BE5 		ldr	r2, [fp, #-32]
 6982 2ad4 930202E0 		mul	r2, r3, r2
 6983 2ad8 F4309FE5 		ldr	r3, .L139+12
 6984 2adc 003093E5 		ldr	r3, [r3, #0]
 6985 2ae0 033082E0 		add	r3, r2, r3
 6986 2ae4 14300BE5 		str	r3, [fp, #-20]
 672:../lcd.c      **** 	int x1 = x0 + spawnX;
 6987              		.loc 1 672 0
 6988 2ae8 D8309FE5 		ldr	r3, .L139
 6989 2aec 003093E5 		ldr	r3, [r3, #0]
 6990 2af0 10201BE5 		ldr	r2, [fp, #-16]
 6991 2af4 033082E0 		add	r3, r2, r3
 6992 2af8 18300BE5 		str	r3, [fp, #-24]
 673:../lcd.c      **** 	int y1 = y0 + spawnY;
 6993              		.loc 1 673 0
 6994 2afc CC309FE5 		ldr	r3, .L139+8
 6995 2b00 003093E5 		ldr	r3, [r3, #0]
 6996 2b04 14201BE5 		ldr	r2, [fp, #-20]
 6997 2b08 033082E0 		add	r3, r2, r3
 6998 2b0c 1C300BE5 		str	r3, [fp, #-28]
 674:../lcd.c      **** 	Lcd_Draw_Box(x0 + 5,y0 + 2,x1 - 5,y1 - 3,14);
 6999              		.loc 1 674 0
 7000 2b10 10301BE5 		ldr	r3, [fp, #-16]
 7001 2b14 0338A0E1 		mov	r3, r3, asl #16
 7002 2b18 2338A0E1 		mov	r3, r3, lsr #16
 7003 2b1c 053083E2 		add	r3, r3, #5
 7004 2b20 0338A0E1 		mov	r3, r3, asl #16
 7005 2b24 2338A0E1 		mov	r3, r3, lsr #16
 7006 2b28 0338A0E1 		mov	r3, r3, asl #16
 7007 2b2c 2308A0E1 		mov	r0, r3, lsr #16
 7008 2b30 14301BE5 		ldr	r3, [fp, #-20]
 7009 2b34 0338A0E1 		mov	r3, r3, asl #16
 7010 2b38 2338A0E1 		mov	r3, r3, lsr #16
 7011 2b3c 023083E2 		add	r3, r3, #2
 7012 2b40 0338A0E1 		mov	r3, r3, asl #16
 7013 2b44 2338A0E1 		mov	r3, r3, lsr #16
 7014 2b48 0338A0E1 		mov	r3, r3, asl #16
 7015 2b4c 2318A0E1 		mov	r1, r3, lsr #16
 7016 2b50 18301BE5 		ldr	r3, [fp, #-24]
 7017 2b54 0338A0E1 		mov	r3, r3, asl #16
 7018 2b58 2338A0E1 		mov	r3, r3, lsr #16
 7019 2b5c 053043E2 		sub	r3, r3, #5
 7020 2b60 0338A0E1 		mov	r3, r3, asl #16
 7021 2b64 2338A0E1 		mov	r3, r3, lsr #16
 7022 2b68 0338A0E1 		mov	r3, r3, asl #16
 7023 2b6c 2328A0E1 		mov	r2, r3, lsr #16
 7024 2b70 1C301BE5 		ldr	r3, [fp, #-28]
 7025 2b74 0338A0E1 		mov	r3, r3, asl #16
 7026 2b78 2338A0E1 		mov	r3, r3, lsr #16
 7027 2b7c 033043E2 		sub	r3, r3, #3
 7028 2b80 0338A0E1 		mov	r3, r3, asl #16
 7029 2b84 2338A0E1 		mov	r3, r3, lsr #16
 7030 2b88 0338A0E1 		mov	r3, r3, asl #16
 7031 2b8c 2338A0E1 		mov	r3, r3, lsr #16
 7032 2b90 0008A0E1 		mov	r0, r0, asl #16
 7033 2b94 4008A0E1 		mov	r0, r0, asr #16
 7034 2b98 0118A0E1 		mov	r1, r1, asl #16
 7035 2b9c 4118A0E1 		mov	r1, r1, asr #16
 7036 2ba0 0228A0E1 		mov	r2, r2, asl #16
 7037 2ba4 4228A0E1 		mov	r2, r2, asr #16
 7038 2ba8 0338A0E1 		mov	r3, r3, asl #16
 7039 2bac 4338A0E1 		mov	r3, r3, asr #16
 7040 2bb0 0EC0A0E3 		mov	ip, #14
 7041 2bb4 00C08DE5 		str	ip, [sp, #0]
 7042 2bb8 FEFFFFEB 		bl	Lcd_Draw_Box
 675:../lcd.c      **** }
 7043              		.loc 1 675 0
 7044 2bbc 0CD04BE2 		sub	sp, fp, #12
 7045 2bc0 00689DE8 		ldmfd	sp, {fp, sp, lr}
 7046 2bc4 1EFF2FE1 		bx	lr
 7047              	.L140:
 7048              		.align	2
 7049              	.L139:
 7050 2bc8 0C000000 		.word	spawnX
 7051 2bcc 00000000 		.word	initX
 7052 2bd0 10000000 		.word	spawnY
 7053 2bd4 08000000 		.word	initY
 7054              		.cfi_endproc
 7055              	.LFE21:
 7057              		.align	2
 7058              		.global	putCandidates
 7060              	putCandidates:
 7061              	.LFB22:
 676:../lcd.c      **** 
 677:../lcd.c      **** void putCandidates(int candidatos, int x, int y) {
 7062              		.loc 1 677 0
 7063              		.cfi_startproc
 7064              		@ Function supports interworking.
 7065              		@ args = 0, pretend = 0, frame = 40
 7066              		@ frame_needed = 1, uses_anonymous_args = 0
 7067 2bd8 0DC0A0E1 		mov	ip, sp
 7068              	.LCFI44:
 7069              		.cfi_def_cfa_register 12
 7070 2bdc 00D82DE9 		stmfd	sp!, {fp, ip, lr, pc}
 7071 2be0 04B04CE2 		sub	fp, ip, #4
 7072              		.cfi_offset 14, -8
 7073              		.cfi_offset 13, -12
 7074              		.cfi_offset 11, -16
 7075              	.LCFI45:
 7076              		.cfi_def_cfa 11, 4
 7077 2be4 28D04DE2 		sub	sp, sp, #40
 7078 2be8 28000BE5 		str	r0, [fp, #-40]
 7079 2bec 2C100BE5 		str	r1, [fp, #-44]
 7080 2bf0 30200BE5 		str	r2, [fp, #-48]
 678:../lcd.c      **** 	int x0 = initX + spawnX * y + 6; //Add dots margin (in-cell)
 7081              		.loc 1 678 0
 7082 2bf4 2C319FE5 		ldr	r3, .L147
 7083 2bf8 003093E5 		ldr	r3, [r3, #0]
 7084 2bfc 30201BE5 		ldr	r2, [fp, #-48]
 7085 2c00 930202E0 		mul	r2, r3, r2
 7086 2c04 20319FE5 		ldr	r3, .L147+4
 7087 2c08 003093E5 		ldr	r3, [r3, #0]
 7088 2c0c 033082E0 		add	r3, r2, r3
 7089 2c10 063083E2 		add	r3, r3, #6
 7090 2c14 10300BE5 		str	r3, [fp, #-16]
 679:../lcd.c      **** 	int y0 = initY + spawnY * x - 4;
 7091              		.loc 1 679 0
 7092 2c18 10319FE5 		ldr	r3, .L147+8
 7093 2c1c 003093E5 		ldr	r3, [r3, #0]
 7094 2c20 2C201BE5 		ldr	r2, [fp, #-44]
 7095 2c24 930202E0 		mul	r2, r3, r2
 7096 2c28 04319FE5 		ldr	r3, .L147+12
 7097 2c2c 003093E5 		ldr	r3, [r3, #0]
 7098 2c30 033082E0 		add	r3, r2, r3
 7099 2c34 043043E2 		sub	r3, r3, #4
 7100 2c38 14300BE5 		str	r3, [fp, #-20]
 680:../lcd.c      **** 	int xcell = 9;
 7101              		.loc 1 680 0
 7102 2c3c 0930A0E3 		mov	r3, #9
 7103 2c40 1C300BE5 		str	r3, [fp, #-28]
 681:../lcd.c      **** 	int ycell = 7;
 7104              		.loc 1 681 0
 7105 2c44 0730A0E3 		mov	r3, #7
 7106 2c48 20300BE5 		str	r3, [fp, #-32]
 682:../lcd.c      **** 
 683:../lcd.c      **** 	int i = 1;
 7107              		.loc 1 683 0
 7108 2c4c 0130A0E3 		mov	r3, #1
 7109 2c50 18300BE5 		str	r3, [fp, #-24]
 684:../lcd.c      **** 	for ( i = 1; i < 10; i++) {
 7110              		.loc 1 684 0
 7111 2c54 0130A0E3 		mov	r3, #1
 7112 2c58 18300BE5 		str	r3, [fp, #-24]
 7113 2c5c 2B0000EA 		b	.L142
 7114              	.L146:
 685:../lcd.c      **** 		// chek if it's in the mask
 686:../lcd.c      **** 		if(((1 << (i - 1)) & candidatos) != 0) {
 7115              		.loc 1 686 0
 7116 2c60 18301BE5 		ldr	r3, [fp, #-24]
 7117 2c64 013043E2 		sub	r3, r3, #1
 7118 2c68 28201BE5 		ldr	r2, [fp, #-40]
 7119 2c6c 5233A0E1 		mov	r3, r2, asr r3
 7120 2c70 013003E2 		and	r3, r3, #1
 7121 2c74 FF3003E2 		and	r3, r3, #255
 7122 2c78 000053E3 		cmp	r3, #0
 7123 2c7c 0400000A 		beq	.L143
 7124              	.LBB3:
 687:../lcd.c      **** 			paintCircle(x0,y0);
 7125              		.loc 1 687 0
 7126 2c80 B0309FE5 		ldr	r3, .L147+16
 7127 2c84 10001BE5 		ldr	r0, [fp, #-16]
 7128 2c88 14101BE5 		ldr	r1, [fp, #-20]
 7129 2c8c 0FE0A0E1 		mov	lr, pc
 7130 2c90 13FF2FE1 		bx	r3
 7131              	.L143:
 7132              	.LBE3:
 688:../lcd.c      **** 		}
 689:../lcd.c      **** 
 690:../lcd.c      **** 		// move position ptr
 691:../lcd.c      **** 		if( i % 3 == 0)
 7133              		.loc 1 691 0
 7134 2c94 18101BE5 		ldr	r1, [fp, #-24]
 7135 2c98 9C309FE5 		ldr	r3, .L147+20
 7136 2c9c 9301C2E0 		smull	r0, r2, r3, r1
 7137 2ca0 C13FA0E1 		mov	r3, r1, asr #31
 7138 2ca4 022063E0 		rsb	r2, r3, r2
 7139 2ca8 0230A0E1 		mov	r3, r2
 7140 2cac 8330A0E1 		mov	r3, r3, asl #1
 7141 2cb0 023083E0 		add	r3, r3, r2
 7142 2cb4 012063E0 		rsb	r2, r3, r1
 7143 2cb8 000052E3 		cmp	r2, #0
 7144 2cbc 0C00001A 		bne	.L144
 692:../lcd.c      **** 		{
 693:../lcd.c      **** 			x0 -= (xcell * 2);
 7145              		.loc 1 693 0
 7146 2cc0 1C201BE5 		ldr	r2, [fp, #-28]
 7147 2cc4 0230A0E1 		mov	r3, r2
 7148 2cc8 833FA0E1 		mov	r3, r3, asl #31
 7149 2ccc 033062E0 		rsb	r3, r2, r3
 7150 2cd0 8330A0E1 		mov	r3, r3, asl #1
 7151 2cd4 10201BE5 		ldr	r2, [fp, #-16]
 7152 2cd8 033082E0 		add	r3, r2, r3
 7153 2cdc 10300BE5 		str	r3, [fp, #-16]
 694:../lcd.c      **** 			y0 += ycell;
 7154              		.loc 1 694 0
 7155 2ce0 14201BE5 		ldr	r2, [fp, #-20]
 7156 2ce4 20301BE5 		ldr	r3, [fp, #-32]
 7157 2ce8 033082E0 		add	r3, r2, r3
 7158 2cec 14300BE5 		str	r3, [fp, #-20]
 7159 2cf0 030000EA 		b	.L145
 7160              	.L144:
 695:../lcd.c      **** 		}
 696:../lcd.c      **** 		else
 697:../lcd.c      **** 		{
 698:../lcd.c      **** 			x0 += xcell;
 7161              		.loc 1 698 0
 7162 2cf4 10201BE5 		ldr	r2, [fp, #-16]
 7163 2cf8 1C301BE5 		ldr	r3, [fp, #-28]
 7164 2cfc 033082E0 		add	r3, r2, r3
 7165 2d00 10300BE5 		str	r3, [fp, #-16]
 7166              	.L145:
 684:../lcd.c      **** 	for ( i = 1; i < 10; i++) {
 7167              		.loc 1 684 0
 7168 2d04 18301BE5 		ldr	r3, [fp, #-24]
 7169 2d08 013083E2 		add	r3, r3, #1
 7170 2d0c 18300BE5 		str	r3, [fp, #-24]
 7171              	.L142:
 684:../lcd.c      **** 	for ( i = 1; i < 10; i++) {
 7172              		.loc 1 684 0 is_stmt 0 discriminator 1
 7173 2d10 18301BE5 		ldr	r3, [fp, #-24]
 7174 2d14 090053E3 		cmp	r3, #9
 7175 2d18 D0FFFFDA 		ble	.L146
 699:../lcd.c      **** 		}
 700:../lcd.c      **** 	}
 701:../lcd.c      **** 
 702:../lcd.c      **** }
 7176              		.loc 1 702 0 is_stmt 1
 7177 2d1c 0CD04BE2 		sub	sp, fp, #12
 7178 2d20 00689DE8 		ldmfd	sp, {fp, sp, lr}
 7179 2d24 1EFF2FE1 		bx	lr
 7180              	.L148:
 7181              		.align	2
 7182              	.L147:
 7183 2d28 0C000000 		.word	spawnX
 7184 2d2c 00000000 		.word	initX
 7185 2d30 10000000 		.word	spawnY
 7186 2d34 08000000 		.word	initY
 7187 2d38 00000000 		.word	paintCircle
 7188 2d3c 56555555 		.word	1431655766
 7189              		.cfi_endproc
 7190              	.LFE22:
 7192              		.section	.rodata
 7193 0245 000000   		.align	2
 7194              	.LC19:
 7195 0248 6F00     		.ascii	"o\000"
 7196              		.text
 7197              		.align	2
 7198              		.global	paintCircle
 7200              	paintCircle:
 7201              	.LFB23:
 703:../lcd.c      **** void paintCircle(int x, int y) {
 7202              		.loc 1 703 0
 7203              		.cfi_startproc
 7204              		@ Function supports interworking.
 7205              		@ args = 0, pretend = 0, frame = 8
 7206              		@ frame_needed = 1, uses_anonymous_args = 0
 7207 2d40 0DC0A0E1 		mov	ip, sp
 7208              	.LCFI46:
 7209              		.cfi_def_cfa_register 12
 7210 2d44 00D82DE9 		stmfd	sp!, {fp, ip, lr, pc}
 7211 2d48 04B04CE2 		sub	fp, ip, #4
 7212              		.cfi_offset 14, -8
 7213              		.cfi_offset 13, -12
 7214              		.cfi_offset 11, -16
 7215              	.LCFI47:
 7216              		.cfi_def_cfa 11, 4
 7217 2d4c 08D04DE2 		sub	sp, sp, #8
 7218 2d50 10000BE5 		str	r0, [fp, #-16]
 7219 2d54 14100BE5 		str	r1, [fp, #-20]
 704:../lcd.c      **** 	Lcd_DspAscII8x16(x,y,BLACK,"o");
 7220              		.loc 1 704 0
 7221 2d58 10301BE5 		ldr	r3, [fp, #-16]
 7222 2d5c 0338A0E1 		mov	r3, r3, asl #16
 7223 2d60 2328A0E1 		mov	r2, r3, lsr #16
 7224 2d64 14301BE5 		ldr	r3, [fp, #-20]
 7225 2d68 0338A0E1 		mov	r3, r3, asl #16
 7226 2d6c 2338A0E1 		mov	r3, r3, lsr #16
 7227 2d70 0200A0E1 		mov	r0, r2
 7228 2d74 0310A0E1 		mov	r1, r3
 7229 2d78 0F20A0E3 		mov	r2, #15
 7230 2d7c 0C309FE5 		ldr	r3, .L150
 7231 2d80 FEFFFFEB 		bl	Lcd_DspAscII8x16
 705:../lcd.c      **** //	Lcd_DspAscII8x16(x+1,y+1,BLACK,"..");
 706:../lcd.c      **** 
 707:../lcd.c      **** }
 7232              		.loc 1 707 0
 7233 2d84 0CD04BE2 		sub	sp, fp, #12
 7234 2d88 00689DE8 		ldmfd	sp, {fp, sp, lr}
 7235 2d8c 1EFF2FE1 		bx	lr
 7236              	.L151:
 7237              		.align	2
 7238              	.L150:
 7239 2d90 48020000 		.word	.LC19
 7240              		.cfi_endproc
 7241              	.LFE23:
 7243              		.section	.rodata
 7244 024a 0000     		.align	2
 7245              	.LC20:
 7246 024c 20454E48 		.ascii	" ENHORABUENA, HA COMPLETADO EL SUDOKU\000"
 7246      4F524142 
 7246      55454E41 
 7246      2C204841 
 7246      20434F4D 
 7247 0272 0000     		.align	2
 7248              	.LC21:
 7249 0274 4A756567 		.ascii	"Juego abandonado.\000"
 7249      6F206162 
 7249      616E646F 
 7249      6E61646F 
 7249      2E00
 7250 0286 0000     		.text
 7251              		.align	2
 7252              		.global	putFinal
 7254              	putFinal:
 7255              	.LFB24:
 708:../lcd.c      **** 
 709:../lcd.c      **** void putFinal(int celdas_vacias)
 710:../lcd.c      **** {
 7256              		.loc 1 710 0
 7257              		.cfi_startproc
 7258              		@ Function supports interworking.
 7259              		@ args = 0, pretend = 0, frame = 8
 7260              		@ frame_needed = 1, uses_anonymous_args = 0
 7261 2d94 0DC0A0E1 		mov	ip, sp
 7262              	.LCFI48:
 7263              		.cfi_def_cfa_register 12
 7264 2d98 00D82DE9 		stmfd	sp!, {fp, ip, lr, pc}
 7265 2d9c 04B04CE2 		sub	fp, ip, #4
 7266              		.cfi_offset 14, -8
 7267              		.cfi_offset 13, -12
 7268              		.cfi_offset 11, -16
 7269              	.LCFI49:
 7270              		.cfi_def_cfa 11, 4
 7271 2da0 08D04DE2 		sub	sp, sp, #8
 7272 2da4 10000BE5 		str	r0, [fp, #-16]
 711:../lcd.c      **** 	// Borramos la pantalla
 712:../lcd.c      **** 		mostrarTiempo();
 7273              		.loc 1 712 0
 7274 2da8 FEFFFFEB 		bl	mostrarTiempo
 713:../lcd.c      **** 
 714:../lcd.c      **** 		if(celdas_vacias == 0) {
 7275              		.loc 1 714 0
 7276 2dac 10301BE5 		ldr	r3, [fp, #-16]
 7277 2db0 000053E3 		cmp	r3, #0
 7278 2db4 0500001A 		bne	.L153
 715:../lcd.c      **** 			Lcd_DspAscII8x16(0,40,BLACK," ENHORABUENA, HA COMPLETADO EL SUDOKU");
 7279              		.loc 1 715 0
 7280 2db8 0000A0E3 		mov	r0, #0
 7281 2dbc 2810A0E3 		mov	r1, #40
 7282 2dc0 0F20A0E3 		mov	r2, #15
 7283 2dc4 28309FE5 		ldr	r3, .L155
 7284 2dc8 FEFFFFEB 		bl	Lcd_DspAscII8x16
 7285 2dcc 040000EA 		b	.L154
 7286              	.L153:
 716:../lcd.c      **** 		} else {
 717:../lcd.c      **** 			Lcd_DspAscII8x16(0,40,BLACK,"Juego abandonado.");
 7287              		.loc 1 717 0
 7288 2dd0 0000A0E3 		mov	r0, #0
 7289 2dd4 2810A0E3 		mov	r1, #40
 7290 2dd8 0F20A0E3 		mov	r2, #15
 7291 2ddc 14309FE5 		ldr	r3, .L155+4
 7292 2de0 FEFFFFEB 		bl	Lcd_DspAscII8x16
 7293              	.L154:
 718:../lcd.c      **** 		}
 719:../lcd.c      **** 
 720:../lcd.c      **** 		Lcd_Dma_Trans();
 7294              		.loc 1 720 0
 7295 2de4 FEFFFFEB 		bl	Lcd_Dma_Trans
 721:../lcd.c      **** }
 7296              		.loc 1 721 0
 7297 2de8 0CD04BE2 		sub	sp, fp, #12
 7298 2dec 00689DE8 		ldmfd	sp, {fp, sp, lr}
 7299 2df0 1EFF2FE1 		bx	lr
 7300              	.L156:
 7301              		.align	2
 7302              	.L155:
 7303 2df4 4C020000 		.word	.LC20
 7304 2df8 74020000 		.word	.LC21
 7305              		.cfi_endproc
 7306              	.LFE24:
 7308              	.Letext0: