
Practica2.elf:     file format elf32-littlearm

Sections:
Idx Name          Size      VMA       LMA       File off  Algn
  0 .text         000061b8  0c000000  0c000000  00008000  2**2
                  CONTENTS, ALLOC, LOAD, READONLY, CODE
  1 .data         00000084  0c0061b8  0c0061b8  0000e1b8  2**2
                  CONTENTS, ALLOC, LOAD, DATA
  2 .rodata       0000137c  0c00623c  0c00623c  0000e23c  2**2
                  CONTENTS, ALLOC, LOAD, READONLY, DATA
  3 .bss          000000d4  0c0075b8  0c0075b8  0000f5b8  2**2
                  ALLOC
  4 .ARM.attributes 0000002e  00000000  00000000  0000f5b8  2**0
                  CONTENTS, READONLY
  5 .comment      0000002a  00000000  00000000  0000f5e6  2**0
                  CONTENTS, READONLY
  6 .debug_line   0000196f  00000000  00000000  0000f610  2**0
                  CONTENTS, READONLY, DEBUGGING
  7 .debug_info   00001d7f  00000000  00000000  00010f7f  2**0
                  CONTENTS, READONLY, DEBUGGING
  8 .debug_abbrev 000009af  00000000  00000000  00012cfe  2**0
                  CONTENTS, READONLY, DEBUGGING
  9 .debug_aranges 00000200  00000000  00000000  000136b0  2**3
                  CONTENTS, READONLY, DEBUGGING
 10 .debug_macinfo 0004173e  00000000  00000000  000138b0  2**0
                  CONTENTS, READONLY, DEBUGGING
 11 .debug_loc    00000c08  00000000  00000000  00054fee  2**0
                  CONTENTS, READONLY, DEBUGGING
 12 .debug_pubnames 0000063d  00000000  00000000  00055bf6  2**0
                  CONTENTS, READONLY, DEBUGGING
 13 .debug_pubtypes 000000be  00000000  00000000  00056233  2**0
                  CONTENTS, READONLY, DEBUGGING
 14 .debug_str    00000830  00000000  00000000  000562f1  2**0
                  CONTENTS, READONLY, DEBUGGING
 15 .debug_frame  00000a84  00000000  00000000  00056b24  2**2
                  CONTENTS, READONLY, DEBUGGING
 16 .debug_ranges 00000018  00000000  00000000  000575a8  2**0
                  CONTENTS, READONLY, DEBUGGING

Disassembly of section .text:

0c000000 <ENTRY>:
    .extern parpadeos
    
    .text

    ENTRY:
    b ResetHandler			/* for debug            */
 c000000:	ea00010d 	b	c00043c <ResetHandler>
    b HandlerUndef      	/* handlerUndef         */
 c000004:	ea000042 	b	c000114 <HandlerUndef>
    b HandlerSWI        	/* SWI interrupt handler*/
 c000008:	ea000047 	b	c00012c <HandlerSWI>
    b HandlerPabort     	/* handlerPAbort        */
 c00000c:	ea000052 	b	c00015c <HandlerPabort>
    b HandlerDabort     	/* handlerDAbort        */
 c000010:	ea00004b 	b	c000144 <HandlerDabort>
    b .                 	/* handlerReserved      */
 c000014:	eafffffe 	b	c000014 <ENTRY+0x14>
    b HandlerIRQ
 c000018:	ea000037 	b	c0000fc <HandlerIRQ>
    b HandlerFIQ
 c00001c:	ea000030 	b	c0000e4 <HandlerFIQ>

0c000020 <VECTOR_BRANCH>:
	#be changed like below, to work-around with H/W bug of S3C44B0X interrupt controller. 
	# b HandlerIRQ  ->  subs pc,lr,#4
	# b HandlerIRQ  ->  subs pc,lr,#4

VECTOR_BRANCH:
    ldr pc,=HandlerEINT0    /*mGA    H/W interrupt vector table  */
 c000020:	e59ff614 	ldr	pc, [pc, #1556]	; c00063c <U0+0x14>
    ldr pc,=HandlerEINT1    /*	                                 */	
 c000024:	e59ff614 	ldr	pc, [pc, #1556]	; c000640 <U0+0x18>
    ldr pc,=HandlerEINT2    /*                                   */  
 c000028:	e59ff614 	ldr	pc, [pc, #1556]	; c000644 <U0+0x1c>
    ldr pc,=HandlerEINT3    /*                                   */  
 c00002c:	e59ff614 	ldr	pc, [pc, #1556]	; c000648 <U0+0x20>
    ldr pc,=HandlerEINT4567 /*                                   */  
 c000030:	e59ff614 	ldr	pc, [pc, #1556]	; c00064c <U0+0x24>
    ldr pc,=HandlerTICK	    /*mGA                                */   
 c000034:	e59ff614 	ldr	pc, [pc, #1556]	; c000650 <U0+0x28>
    b .                                                          
 c000038:	eafffffe 	b	c000038 <VECTOR_BRANCH+0x18>
    b .                                                         
 c00003c:	eafffffe 	b	c00003c <VECTOR_BRANCH+0x1c>
    ldr pc,=HandlerZDMA0    /*mGB                                */  
 c000040:	e59ff60c 	ldr	pc, [pc, #1548]	; c000654 <U0+0x2c>
    ldr pc,=HandlerZDMA1    /*                                   */  
 c000044:	e59ff60c 	ldr	pc, [pc, #1548]	; c000658 <U0+0x30>
    ldr pc,=HandlerBDMA0    /*                                   */  
 c000048:	e59ff60c 	ldr	pc, [pc, #1548]	; c00065c <U0+0x34>
    ldr pc,=HandlerBDMA1    /*                                   */  
 c00004c:	e59ff60c 	ldr	pc, [pc, #1548]	; c000660 <U0+0x38>
    ldr pc,=HandlerWDT	    /*                                   */   
 c000050:	e59ff60c 	ldr	pc, [pc, #1548]	; c000664 <U0+0x3c>
    ldr pc,=HandlerUERR01   /*mGB                                */  
 c000054:	e59ff60c 	ldr	pc, [pc, #1548]	; c000668 <U0+0x40>
    b .                                                          
 c000058:	eafffffe 	b	c000058 <VECTOR_BRANCH+0x38>
    b .                                                          
 c00005c:	eafffffe 	b	c00005c <VECTOR_BRANCH+0x3c>
    ldr pc,=HandlerTIMER0   /*mGC                                */  
 c000060:	e59ff604 	ldr	pc, [pc, #1540]	; c00066c <U0+0x44>
    ldr pc,=HandlerTIMER1   /*                                   */  
 c000064:	e59ff604 	ldr	pc, [pc, #1540]	; c000670 <U0+0x48>
    ldr pc,=HandlerTIMER2   /*                                   */  
 c000068:	e59ff604 	ldr	pc, [pc, #1540]	; c000674 <U0+0x4c>
    ldr pc,=HandlerTIMER3   /*                                   */  
 c00006c:	e59ff604 	ldr	pc, [pc, #1540]	; c000678 <U0+0x50>
    ldr pc,=HandlerTIMER4   /*                                   */  
 c000070:	e59ff604 	ldr	pc, [pc, #1540]	; c00067c <U0+0x54>
    ldr pc,=HandlerTIMER5   /*mGC                                */  
 c000074:	e59ff604 	ldr	pc, [pc, #1540]	; c000680 <U0+0x58>
    b .                                                          
 c000078:	eafffffe 	b	c000078 <VECTOR_BRANCH+0x58>
    b .                                                          
 c00007c:	eafffffe 	b	c00007c <VECTOR_BRANCH+0x5c>
    ldr pc,=HandlerURXD0    /*mGD                                */  
 c000080:	e59ff5fc 	ldr	pc, [pc, #1532]	; c000684 <U0+0x5c>
    ldr pc,=HandlerURXD1    /*                                   */  
 c000084:	e59ff5fc 	ldr	pc, [pc, #1532]	; c000688 <U0+0x60>
    ldr pc,=HandlerIIC	    /*                                   */   
 c000088:	e59ff5fc 	ldr	pc, [pc, #1532]	; c00068c <U0+0x64>
    ldr pc,=HandlerSIO	    /*                                   */   
 c00008c:	e59ff5fc 	ldr	pc, [pc, #1532]	; c000690 <U0+0x68>
    ldr pc,=HandlerUTXD0    /*                                   */  
 c000090:	e59ff5fc 	ldr	pc, [pc, #1532]	; c000694 <U0+0x6c>
    ldr pc,=HandlerUTXD1    /*mGD                                */  
 c000094:	e59ff5fc 	ldr	pc, [pc, #1532]	; c000698 <U0+0x70>
    b .                                                          
 c000098:	eafffffe 	b	c000098 <VECTOR_BRANCH+0x78>
    b .                                                          
 c00009c:	eafffffe 	b	c00009c <VECTOR_BRANCH+0x7c>
    ldr pc,=HandlerRTC	    /*mGKA                               */   
 c0000a0:	e59ff5f4 	ldr	pc, [pc, #1524]	; c00069c <U0+0x74>
    b .					    /*                     		         */
 c0000a4:	eafffffe 	b	c0000a4 <VECTOR_BRANCH+0x84>
    b .					    /*                     		         */
 c0000a8:	eafffffe 	b	c0000a8 <VECTOR_BRANCH+0x88>
    b .					    /*                     		         */
 c0000ac:	eafffffe 	b	c0000ac <VECTOR_BRANCH+0x8c>
    b .					    /*                     		         */
 c0000b0:	eafffffe 	b	c0000b0 <VECTOR_BRANCH+0x90>
    b .					    /*mGKA                 			     */
 c0000b4:	eafffffe 	b	c0000b4 <VECTOR_BRANCH+0x94>
    b .                                                          
 c0000b8:	eafffffe 	b	c0000b8 <VECTOR_BRANCH+0x98>
    b .                                                          
 c0000bc:	eafffffe 	b	c0000bc <VECTOR_BRANCH+0x9c>
    ldr pc,=HandlerADC	    /*mGKB                               */  
 c0000c0:	e59ff5d8 	ldr	pc, [pc, #1496]	; c0006a0 <U0+0x78>
    b .					    /*                     		         */
 c0000c4:	eafffffe 	b	c0000c4 <VECTOR_BRANCH+0xa4>
    b .					    /*                     		         */
 c0000c8:	eafffffe 	b	c0000c8 <VECTOR_BRANCH+0xa8>
    b .					    /*                     		         */
 c0000cc:	eafffffe 	b	c0000cc <VECTOR_BRANCH+0xac>
    b .					    /*                     		         */
 c0000d0:	eafffffe 	b	c0000d0 <VECTOR_BRANCH+0xb0>
    b .					    /*mGKB                 		         */
 c0000d4:	eafffffe 	b	c0000d4 <VECTOR_BRANCH+0xb4>
    b .                                                          
 c0000d8:	eafffffe 	b	c0000d8 <VECTOR_BRANCH+0xb8>
    b .                                                          
 c0000dc:	eafffffe 	b	c0000dc <VECTOR_BRANCH+0xbc>
@0xe0=EnterPWDN                                                 
    ldr pc,=EnterPWDN
 c0000e0:	e59ff5bc 	ldr	pc, [pc, #1468]	; c0006a4 <U0+0x7c>

0c0000e4 <HandlerFIQ>:
               to be dumped into the current section\ 
               (which is assumed to be the .text section)\ 
               at the current location (aligned to a word boundary).*/
   .align

HandlerFIQ:		HANDLER HandleFIQ
 c0000e4:	e24dd004 	sub	sp, sp, #4
 c0000e8:	e52d0004 	push	{r0}		; (str r0, [sp, #-4]!)
 c0000ec:	e59f05b4 	ldr	r0, [pc, #1460]	; c0006a8 <U0+0x80>
 c0000f0:	e5900000 	ldr	r0, [r0]
 c0000f4:	e58d0004 	str	r0, [sp, #4]
 c0000f8:	e8bd8001 	pop	{r0, pc}

0c0000fc <HandlerIRQ>:
HandlerIRQ:		HANDLER HandleIRQ
 c0000fc:	e24dd004 	sub	sp, sp, #4
 c000100:	e52d0004 	push	{r0}		; (str r0, [sp, #-4]!)
 c000104:	e59f05a0 	ldr	r0, [pc, #1440]	; c0006ac <U0+0x84>
 c000108:	e5900000 	ldr	r0, [r0]
 c00010c:	e58d0004 	str	r0, [sp, #4]
 c000110:	e8bd8001 	pop	{r0, pc}

0c000114 <HandlerUndef>:
HandlerUndef:	HANDLER HandleUndef
 c000114:	e24dd004 	sub	sp, sp, #4
 c000118:	e52d0004 	push	{r0}		; (str r0, [sp, #-4]!)
 c00011c:	e59f058c 	ldr	r0, [pc, #1420]	; c0006b0 <U0+0x88>
 c000120:	e5900000 	ldr	r0, [r0]
 c000124:	e58d0004 	str	r0, [sp, #4]
 c000128:	e8bd8001 	pop	{r0, pc}

0c00012c <HandlerSWI>:
HandlerSWI:		HANDLER HandleSWI
 c00012c:	e24dd004 	sub	sp, sp, #4
 c000130:	e52d0004 	push	{r0}		; (str r0, [sp, #-4]!)
 c000134:	e59f0578 	ldr	r0, [pc, #1400]	; c0006b4 <U0+0x8c>
 c000138:	e5900000 	ldr	r0, [r0]
 c00013c:	e58d0004 	str	r0, [sp, #4]
 c000140:	e8bd8001 	pop	{r0, pc}

0c000144 <HandlerDabort>:
HandlerDabort:	HANDLER HandleDabort
 c000144:	e24dd004 	sub	sp, sp, #4
 c000148:	e52d0004 	push	{r0}		; (str r0, [sp, #-4]!)
 c00014c:	e59f0564 	ldr	r0, [pc, #1380]	; c0006b8 <U0+0x90>
 c000150:	e5900000 	ldr	r0, [r0]
 c000154:	e58d0004 	str	r0, [sp, #4]
 c000158:	e8bd8001 	pop	{r0, pc}

0c00015c <HandlerPabort>:
HandlerPabort:	HANDLER HandlePabort
 c00015c:	e24dd004 	sub	sp, sp, #4
 c000160:	e52d0004 	push	{r0}		; (str r0, [sp, #-4]!)
 c000164:	e59f0550 	ldr	r0, [pc, #1360]	; c0006bc <U0+0x94>
 c000168:	e5900000 	ldr	r0, [r0]
 c00016c:	e58d0004 	str	r0, [sp, #4]
 c000170:	e8bd8001 	pop	{r0, pc}

0c000174 <HandlerADC>:
HandlerADC:		HANDLER HandleADC
 c000174:	e24dd004 	sub	sp, sp, #4
 c000178:	e52d0004 	push	{r0}		; (str r0, [sp, #-4]!)
 c00017c:	e59f053c 	ldr	r0, [pc, #1340]	; c0006c0 <U0+0x98>
 c000180:	e5900000 	ldr	r0, [r0]
 c000184:	e58d0004 	str	r0, [sp, #4]
 c000188:	e8bd8001 	pop	{r0, pc}

0c00018c <HandlerRTC>:
HandlerRTC:		HANDLER HandleRTC
 c00018c:	e24dd004 	sub	sp, sp, #4
 c000190:	e52d0004 	push	{r0}		; (str r0, [sp, #-4]!)
 c000194:	e59f0528 	ldr	r0, [pc, #1320]	; c0006c4 <U0+0x9c>
 c000198:	e5900000 	ldr	r0, [r0]
 c00019c:	e58d0004 	str	r0, [sp, #4]
 c0001a0:	e8bd8001 	pop	{r0, pc}

0c0001a4 <HandlerUTXD1>:
HandlerUTXD1:	HANDLER HandleUTXD1
 c0001a4:	e24dd004 	sub	sp, sp, #4
 c0001a8:	e52d0004 	push	{r0}		; (str r0, [sp, #-4]!)
 c0001ac:	e59f0514 	ldr	r0, [pc, #1300]	; c0006c8 <U0+0xa0>
 c0001b0:	e5900000 	ldr	r0, [r0]
 c0001b4:	e58d0004 	str	r0, [sp, #4]
 c0001b8:	e8bd8001 	pop	{r0, pc}

0c0001bc <HandlerUTXD0>:
HandlerUTXD0:	HANDLER HandleUTXD0
 c0001bc:	e24dd004 	sub	sp, sp, #4
 c0001c0:	e52d0004 	push	{r0}		; (str r0, [sp, #-4]!)
 c0001c4:	e59f0500 	ldr	r0, [pc, #1280]	; c0006cc <U0+0xa4>
 c0001c8:	e5900000 	ldr	r0, [r0]
 c0001cc:	e58d0004 	str	r0, [sp, #4]
 c0001d0:	e8bd8001 	pop	{r0, pc}

0c0001d4 <HandlerSIO>:
HandlerSIO:		HANDLER HandleSIO
 c0001d4:	e24dd004 	sub	sp, sp, #4
 c0001d8:	e52d0004 	push	{r0}		; (str r0, [sp, #-4]!)
 c0001dc:	e59f04ec 	ldr	r0, [pc, #1260]	; c0006d0 <U0+0xa8>
 c0001e0:	e5900000 	ldr	r0, [r0]
 c0001e4:	e58d0004 	str	r0, [sp, #4]
 c0001e8:	e8bd8001 	pop	{r0, pc}

0c0001ec <HandlerIIC>:
HandlerIIC:		HANDLER HandleIIC
 c0001ec:	e24dd004 	sub	sp, sp, #4
 c0001f0:	e52d0004 	push	{r0}		; (str r0, [sp, #-4]!)
 c0001f4:	e59f04d8 	ldr	r0, [pc, #1240]	; c0006d4 <U0+0xac>
 c0001f8:	e5900000 	ldr	r0, [r0]
 c0001fc:	e58d0004 	str	r0, [sp, #4]
 c000200:	e8bd8001 	pop	{r0, pc}

0c000204 <HandlerURXD1>:
HandlerURXD1:	HANDLER HandleURXD1
 c000204:	e24dd004 	sub	sp, sp, #4
 c000208:	e52d0004 	push	{r0}		; (str r0, [sp, #-4]!)
 c00020c:	e59f04c4 	ldr	r0, [pc, #1220]	; c0006d8 <U0+0xb0>
 c000210:	e5900000 	ldr	r0, [r0]
 c000214:	e58d0004 	str	r0, [sp, #4]
 c000218:	e8bd8001 	pop	{r0, pc}

0c00021c <HandlerURXD0>:
HandlerURXD0:	HANDLER HandleURXD0
 c00021c:	e24dd004 	sub	sp, sp, #4
 c000220:	e52d0004 	push	{r0}		; (str r0, [sp, #-4]!)
 c000224:	e59f04b0 	ldr	r0, [pc, #1200]	; c0006dc <U0+0xb4>
 c000228:	e5900000 	ldr	r0, [r0]
 c00022c:	e58d0004 	str	r0, [sp, #4]
 c000230:	e8bd8001 	pop	{r0, pc}

0c000234 <HandlerTIMER5>:
HandlerTIMER5:	HANDLER HandleTIMER5
 c000234:	e24dd004 	sub	sp, sp, #4
 c000238:	e52d0004 	push	{r0}		; (str r0, [sp, #-4]!)
 c00023c:	e59f049c 	ldr	r0, [pc, #1180]	; c0006e0 <U0+0xb8>
 c000240:	e5900000 	ldr	r0, [r0]
 c000244:	e58d0004 	str	r0, [sp, #4]
 c000248:	e8bd8001 	pop	{r0, pc}

0c00024c <HandlerTIMER4>:
HandlerTIMER4:	HANDLER HandleTIMER4
 c00024c:	e24dd004 	sub	sp, sp, #4
 c000250:	e52d0004 	push	{r0}		; (str r0, [sp, #-4]!)
 c000254:	e59f0488 	ldr	r0, [pc, #1160]	; c0006e4 <U0+0xbc>
 c000258:	e5900000 	ldr	r0, [r0]
 c00025c:	e58d0004 	str	r0, [sp, #4]
 c000260:	e8bd8001 	pop	{r0, pc}

0c000264 <HandlerTIMER3>:
HandlerTIMER3:	HANDLER HandleTIMER3
 c000264:	e24dd004 	sub	sp, sp, #4
 c000268:	e52d0004 	push	{r0}		; (str r0, [sp, #-4]!)
 c00026c:	e59f0474 	ldr	r0, [pc, #1140]	; c0006e8 <U0+0xc0>
 c000270:	e5900000 	ldr	r0, [r0]
 c000274:	e58d0004 	str	r0, [sp, #4]
 c000278:	e8bd8001 	pop	{r0, pc}

0c00027c <HandlerTIMER2>:
HandlerTIMER2:	HANDLER HandleTIMER2
 c00027c:	e24dd004 	sub	sp, sp, #4
 c000280:	e52d0004 	push	{r0}		; (str r0, [sp, #-4]!)
 c000284:	e59f0460 	ldr	r0, [pc, #1120]	; c0006ec <U0+0xc4>
 c000288:	e5900000 	ldr	r0, [r0]
 c00028c:	e58d0004 	str	r0, [sp, #4]
 c000290:	e8bd8001 	pop	{r0, pc}

0c000294 <HandlerTIMER1>:
HandlerTIMER1:	HANDLER HandleTIMER1
 c000294:	e24dd004 	sub	sp, sp, #4
 c000298:	e52d0004 	push	{r0}		; (str r0, [sp, #-4]!)
 c00029c:	e59f044c 	ldr	r0, [pc, #1100]	; c0006f0 <U0+0xc8>
 c0002a0:	e5900000 	ldr	r0, [r0]
 c0002a4:	e58d0004 	str	r0, [sp, #4]
 c0002a8:	e8bd8001 	pop	{r0, pc}

0c0002ac <HandlerTIMER0>:
HandlerTIMER0:	HANDLER HandleTIMER0
 c0002ac:	e24dd004 	sub	sp, sp, #4
 c0002b0:	e52d0004 	push	{r0}		; (str r0, [sp, #-4]!)
 c0002b4:	e59f0438 	ldr	r0, [pc, #1080]	; c0006f4 <U0+0xcc>
 c0002b8:	e5900000 	ldr	r0, [r0]
 c0002bc:	e58d0004 	str	r0, [sp, #4]
 c0002c0:	e8bd8001 	pop	{r0, pc}

0c0002c4 <HandlerUERR01>:
HandlerUERR01:	HANDLER HandleUERR01
 c0002c4:	e24dd004 	sub	sp, sp, #4
 c0002c8:	e52d0004 	push	{r0}		; (str r0, [sp, #-4]!)
 c0002cc:	e59f0424 	ldr	r0, [pc, #1060]	; c0006f8 <U0+0xd0>
 c0002d0:	e5900000 	ldr	r0, [r0]
 c0002d4:	e58d0004 	str	r0, [sp, #4]
 c0002d8:	e8bd8001 	pop	{r0, pc}

0c0002dc <HandlerWDT>:
HandlerWDT:		HANDLER HandleWDT
 c0002dc:	e24dd004 	sub	sp, sp, #4
 c0002e0:	e52d0004 	push	{r0}		; (str r0, [sp, #-4]!)
 c0002e4:	e59f0410 	ldr	r0, [pc, #1040]	; c0006fc <U0+0xd4>
 c0002e8:	e5900000 	ldr	r0, [r0]
 c0002ec:	e58d0004 	str	r0, [sp, #4]
 c0002f0:	e8bd8001 	pop	{r0, pc}

0c0002f4 <HandlerBDMA1>:
HandlerBDMA1:	HANDLER HandleBDMA1
 c0002f4:	e24dd004 	sub	sp, sp, #4
 c0002f8:	e52d0004 	push	{r0}		; (str r0, [sp, #-4]!)
 c0002fc:	e59f03fc 	ldr	r0, [pc, #1020]	; c000700 <U0+0xd8>
 c000300:	e5900000 	ldr	r0, [r0]
 c000304:	e58d0004 	str	r0, [sp, #4]
 c000308:	e8bd8001 	pop	{r0, pc}

0c00030c <HandlerBDMA0>:
HandlerBDMA0:	HANDLER HandleBDMA0
 c00030c:	e24dd004 	sub	sp, sp, #4
 c000310:	e52d0004 	push	{r0}		; (str r0, [sp, #-4]!)
 c000314:	e59f03e8 	ldr	r0, [pc, #1000]	; c000704 <U0+0xdc>
 c000318:	e5900000 	ldr	r0, [r0]
 c00031c:	e58d0004 	str	r0, [sp, #4]
 c000320:	e8bd8001 	pop	{r0, pc}

0c000324 <HandlerZDMA1>:
HandlerZDMA1:	HANDLER HandleZDMA1
 c000324:	e24dd004 	sub	sp, sp, #4
 c000328:	e52d0004 	push	{r0}		; (str r0, [sp, #-4]!)
 c00032c:	e59f03d4 	ldr	r0, [pc, #980]	; c000708 <U0+0xe0>
 c000330:	e5900000 	ldr	r0, [r0]
 c000334:	e58d0004 	str	r0, [sp, #4]
 c000338:	e8bd8001 	pop	{r0, pc}

0c00033c <HandlerZDMA0>:
HandlerZDMA0:	HANDLER HandleZDMA0
 c00033c:	e24dd004 	sub	sp, sp, #4
 c000340:	e52d0004 	push	{r0}		; (str r0, [sp, #-4]!)
 c000344:	e59f03c0 	ldr	r0, [pc, #960]	; c00070c <U0+0xe4>
 c000348:	e5900000 	ldr	r0, [r0]
 c00034c:	e58d0004 	str	r0, [sp, #4]
 c000350:	e8bd8001 	pop	{r0, pc}

0c000354 <HandlerTICK>:
HandlerTICK:	HANDLER HandleTICK
 c000354:	e24dd004 	sub	sp, sp, #4
 c000358:	e52d0004 	push	{r0}		; (str r0, [sp, #-4]!)
 c00035c:	e59f03ac 	ldr	r0, [pc, #940]	; c000710 <U0+0xe8>
 c000360:	e5900000 	ldr	r0, [r0]
 c000364:	e58d0004 	str	r0, [sp, #4]
 c000368:	e8bd8001 	pop	{r0, pc}

0c00036c <HandlerEINT4567>:
HandlerEINT4567:HANDLER HandleEINT4567
 c00036c:	e24dd004 	sub	sp, sp, #4
 c000370:	e52d0004 	push	{r0}		; (str r0, [sp, #-4]!)
 c000374:	e59f0398 	ldr	r0, [pc, #920]	; c000714 <U0+0xec>
 c000378:	e5900000 	ldr	r0, [r0]
 c00037c:	e58d0004 	str	r0, [sp, #4]
 c000380:	e8bd8001 	pop	{r0, pc}

0c000384 <HandlerEINT3>:
HandlerEINT3:	HANDLER HandleEINT3
 c000384:	e24dd004 	sub	sp, sp, #4
 c000388:	e52d0004 	push	{r0}		; (str r0, [sp, #-4]!)
 c00038c:	e59f0384 	ldr	r0, [pc, #900]	; c000718 <U0+0xf0>
 c000390:	e5900000 	ldr	r0, [r0]
 c000394:	e58d0004 	str	r0, [sp, #4]
 c000398:	e8bd8001 	pop	{r0, pc}

0c00039c <HandlerEINT2>:
HandlerEINT2:	HANDLER HandleEINT2
 c00039c:	e24dd004 	sub	sp, sp, #4
 c0003a0:	e52d0004 	push	{r0}		; (str r0, [sp, #-4]!)
 c0003a4:	e59f0370 	ldr	r0, [pc, #880]	; c00071c <U0+0xf4>
 c0003a8:	e5900000 	ldr	r0, [r0]
 c0003ac:	e58d0004 	str	r0, [sp, #4]
 c0003b0:	e8bd8001 	pop	{r0, pc}

0c0003b4 <HandlerEINT1>:
HandlerEINT1:	HANDLER HandleEINT1
 c0003b4:	e24dd004 	sub	sp, sp, #4
 c0003b8:	e52d0004 	push	{r0}		; (str r0, [sp, #-4]!)
 c0003bc:	e59f035c 	ldr	r0, [pc, #860]	; c000720 <U0+0xf8>
 c0003c0:	e5900000 	ldr	r0, [r0]
 c0003c4:	e58d0004 	str	r0, [sp, #4]
 c0003c8:	e8bd8001 	pop	{r0, pc}

0c0003cc <HandlerEINT0>:
HandlerEINT0:	HANDLER HandleEINT0
 c0003cc:	e24dd004 	sub	sp, sp, #4
 c0003d0:	e52d0004 	push	{r0}		; (str r0, [sp, #-4]!)
 c0003d4:	e59f0348 	ldr	r0, [pc, #840]	; c000724 <U0+0xfc>
 c0003d8:	e5900000 	ldr	r0, [r0]
 c0003dc:	e58d0004 	str	r0, [sp, #4]
 c0003e0:	e8bd8001 	pop	{r0, pc}

0c0003e4 <IsrIRQ>:

#One of the following two routines can be used for non-vectored interrupt.

IsrIRQ:						/* using I_ISPR register. */
    sub	    sp,sp,#4       	/* reserved for PC	  */
 c0003e4:	e24dd004 	sub	sp, sp, #4
    stmfd   sp!,{r8-r9}
 c0003e8:	e92d0300 	push	{r8, r9}

    mov r0, #IRQ_MODE		/* Llamamos a push debug poniendo los parametros */
 c0003ec:	e3a00040 	mov	r0, #64	; 0x40
    mov r1, #0
 c0003f0:	e3a01000 	mov	r1, #0
    BL push_debug
 c0003f4:	eb001335 	bl	c0050d0 <push_debug>

#IMPORTANT CAUTION
# when I_ISPC isn't used properly, I_ISPR can be 0 in this routine.

    ldr	    r9,=I_ISPR
 c0003f8:	e59f9328 	ldr	r9, [pc, #808]	; c000728 <U0+0x100>
    ldr	    r9,[r9]
 c0003fc:	e5999000 	ldr	r9, [r9]

	cmp		r9, #0x0		/* If the IDLE mode work-around is used, 	*/
 c000400:	e3590000 	cmp	r9, #0
							/* r9 may be 0 sometimes.			*/
	beq		l2
 c000404:	0a000009 	beq	c000430 <l2>

    mov	    r8,#0x0
 c000408:	e3a08000 	mov	r8, #0

0c00040c <l0>:
l0:
    movs    r9,r9,lsr #1
 c00040c:	e1b090a9 	lsrs	r9, r9, #1
    bcs	    l1
 c000410:	2a000001 	bcs	c00041c <l1>
    add	    r8,r8,#4
 c000414:	e2888004 	add	r8, r8, #4
    b	    l0
 c000418:	eafffffb 	b	c00040c <l0>

0c00041c <l1>:

l1:
    ldr	    r9,=HandleADC
 c00041c:	e59f929c 	ldr	r9, [pc, #668]	; c0006c0 <U0+0x98>
    add	    r9,r9,r8
 c000420:	e0899008 	add	r9, r9, r8
    ldr	    r9,[r9]
 c000424:	e5999000 	ldr	r9, [r9]
    str	    r9,[sp,#8]
 c000428:	e58d9008 	str	r9, [sp, #8]
    ldmfd   sp!,{r8-r9,pc}
 c00042c:	e8bd8300 	pop	{r8, r9, pc}

0c000430 <l2>:

l2:
	ldmfd	sp!,{r8-r9}
 c000430:	e8bd0300 	pop	{r8, r9}
	add		sp,sp,#4
 c000434:	e28dd004 	add	sp, sp, #4
	subs	pc,lr,#4
 c000438:	e25ef004 	subs	pc, lr, #4

0c00043c <ResetHandler>:

#****************************************************
#*	START											*
#****************************************************
ResetHandler:
    ldr	    r0,=WTCON	    	/* watch dog disable*/
 c00043c:	e59f02e8 	ldr	r0, [pc, #744]	; c00072c <U0+0x104>
    ldr	    r1,=0x0 		
 c000440:	e3a01000 	mov	r1, #0
    str	    r1,[r0]
 c000444:	e5801000 	str	r1, [r0]

    ldr	    r0,=INTMSK
 c000448:	e59f02e0 	ldr	r0, [pc, #736]	; c000730 <U0+0x108>
    ldr	    r1,=0x07ffffff  	/* all interrupt disable */
 c00044c:	e3e0133e 	mvn	r1, #-134217728	; 0xf8000000
    str	    r1,[r0]
 c000450:	e5801000 	str	r1, [r0]
  

    #****************************************************
    #*	Set clock control registers						*
    #****************************************************
    ldr		r0,=LOCKTIME
 c000454:	e59f02d8 	ldr	r0, [pc, #728]	; c000734 <U0+0x10c>
    ldr		r1,=0xfff
 c000458:	e59f12d8 	ldr	r1, [pc, #728]	; c000738 <U0+0x110>
    str		r1,[r0]
 c00045c:	e5801000 	str	r1, [r0]

.if PLLONSTART
	ldr		r0,=PLLCON			/* temporary setting of PLL */
 c000460:	e3a00776 	mov	r0, #30932992	; 0x1d80000
	ldr		r1,=((M_DIV<<12)+(P_DIV<<4)+S_DIV)	/* Fin=8MHz,Fout=64MHz     */
 c000464:	e59f12d0 	ldr	r1, [pc, #720]	; c00073c <U0+0x114>
	str		r1,[r0]
 c000468:	e5801000 	str	r1, [r0]
.endif

    ldr	    r0,=CLKCON		
 c00046c:	e59f02cc 	ldr	r0, [pc, #716]	; c000740 <U0+0x118>
    ldr	    r1,=0x7ff8	    	/* All unit block CLK enable */
 c000470:	e59f12cc 	ldr	r1, [pc, #716]	; c000744 <U0+0x11c>
    str	    r1,[r0]
 c000474:	e5801000 	str	r1, [r0]

    #****************************************
    #*  change BDMACON reset value for BDMA *   
    #****************************************
    ldr     r0,=BDIDES0      
 c000478:	e59f02c8 	ldr	r0, [pc, #712]	; c000748 <U0+0x120>
    ldr     r1,=0x40000000   	/* BDIDESn reset value should be 0x40000000 */
 c00047c:	e3a01101 	mov	r1, #1073741824	; 0x40000000
    str     r1,[r0]
 c000480:	e5801000 	str	r1, [r0]

    ldr     r0,=BDIDES1      
 c000484:	e59f02c0 	ldr	r0, [pc, #704]	; c00074c <U0+0x124>
    ldr     r1,=0x40000000   	/* BDIDESn reset value should be 0x40000000 */	 
 c000488:	e3a01101 	mov	r1, #1073741824	; 0x40000000
    str     r1,[r0]
 c00048c:	e5801000 	str	r1, [r0]

	#****************************************************
    #*	Set memory control registers					*
    #****************************************************
    ldr	    r0,=(SMRDATA-0xc000000)
 c000490:	e59f02b8 	ldr	r0, [pc, #696]	; c000750 <U0+0x128>
    ldmia   r0,{r1-r13}
 c000494:	e8903ffe 	ldm	r0, {r1, r2, r3, r4, r5, r6, r7, r8, r9, sl, fp, ip, sp}
    ldr	    r0,=0x01c80000  	/* BWSCON Address */
 c000498:	e3a00772 	mov	r0, #29884416	; 0x1c80000
    stmia   r0,{r1-r13}
 c00049c:	e8803ffe 	stm	r0, {r1, r2, r3, r4, r5, r6, r7, r8, r9, sl, fp, ip, sp}
	
	LDR r0,=0x0
 c0004a0:	e3a00000 	mov	r0, #0
	LDR r1,=Image_RO_Base
 c0004a4:	e59f12a8 	ldr	r1, [pc, #680]	; c000754 <U0+0x12c>
	LDR r3,=Image_ZI_Limit
 c0004a8:	e59f32a8 	ldr	r3, [pc, #680]	; c000758 <U0+0x130>

0c0004ac <LoopRw>:
LoopRw:
	    cmp         r1, r3
 c0004ac:	e1510003 	cmp	r1, r3
		ldrcc       r2, [r0], #4
 c0004b0:	34902004 	ldrcc	r2, [r0], #4
		strcc       r2, [r1], #4
 c0004b4:	34812004 	strcc	r2, [r1], #4
		bcc         LoopRw
 c0004b8:	3afffffb 	bcc	c0004ac <LoopRw>
		
	mov r3, #0
 c0004bc:	e3a03000 	mov	r3, #0
	LDR r0, =Image_ZI_Base
 c0004c0:	e59f0294 	ldr	r0, [pc, #660]	; c00075c <U0+0x134>
	LDR r1, =Image_ZI_Limit
 c0004c4:	e59f128c 	ldr	r1, [pc, #652]	; c000758 <U0+0x130>

0c0004c8 <LoopZI>:
LoopZI:
	cmp r0, r1
 c0004c8:	e1500001 	cmp	r0, r1
	strcc r3, [r0], #4
 c0004cc:	34803004 	strcc	r3, [r0], #4
	bcc LoopZI
 c0004d0:	3afffffc 	bcc	c0004c8 <LoopZI>

    #;****************************************************
    #;*	Initialize stacks								* 
    #;****************************************************
    ldr	    sp, =SVCStack		/* Why	*/		
 c0004d4:	e59fd284 	ldr	sp, [pc, #644]	; c000760 <U0+0x138>
    bl	    InitStacks
 c0004d8:	eb00002f 	bl	c00059c <InitStacks>
    #;****************************************************
    #;*	Setup IRQ handler								*
    #;****************************************************
    .extern exception

    ldr	    r0,=HandleUndef		/* This routine is needed */
 c0004dc:	e59f01cc 	ldr	r0, [pc, #460]	; c0006b0 <U0+0x88>
    ldr	    r1,=exception			/* if there isn't 'subs pc,lr,#4' at 0x18, 0x1c */
 c0004e0:	e59f127c 	ldr	r1, [pc, #636]	; c000764 <U0+0x13c>
    str	    r1,[r0]
 c0004e4:	e5801000 	str	r1, [r0]

    ldr	    r0,=HandleSWI		/* This routine is needed */
 c0004e8:	e59f01c4 	ldr	r0, [pc, #452]	; c0006b4 <U0+0x8c>
    ldr	    r1,=exception			/* if there isn't 'subs pc,lr,#4' at 0x18, 0x1c */
 c0004ec:	e59f1270 	ldr	r1, [pc, #624]	; c000764 <U0+0x13c>
    str	    r1,[r0]
 c0004f0:	e5801000 	str	r1, [r0]

    ldr	    r0,=HandlePabort		/* This routine is needed */
 c0004f4:	e59f01c0 	ldr	r0, [pc, #448]	; c0006bc <U0+0x94>
    ldr	    r1,=exception			/* if there isn't 'subs pc,lr,#4' at 0x18, 0x1c */
 c0004f8:	e59f1264 	ldr	r1, [pc, #612]	; c000764 <U0+0x13c>
    str	    r1,[r0]
 c0004fc:	e5801000 	str	r1, [r0]

    ldr	    r0,=HandleDabort		/* This routine is needed */
 c000500:	e59f01b0 	ldr	r0, [pc, #432]	; c0006b8 <U0+0x90>
    ldr	    r1,=exception			/* if there isn't 'subs pc,lr,#4' at 0x18, 0x1c */
 c000504:	e59f1258 	ldr	r1, [pc, #600]	; c000764 <U0+0x13c>
    str	    r1,[r0]
 c000508:	e5801000 	str	r1, [r0]

    ldr	    r0,=HandleReserved		/* This routine is needed */
 c00050c:	e59f0254 	ldr	r0, [pc, #596]	; c000768 <U0+0x140>
    ldr	    r1,=exception			/* if there isn't 'subs pc,lr,#4' at 0x18, 0x1c */
 c000510:	e59f124c 	ldr	r1, [pc, #588]	; c000764 <U0+0x13c>
    str	    r1,[r0]
 c000514:	e5801000 	str	r1, [r0]

    ldr	    r0,=HandleIRQ		/* This routine is needed */
 c000518:	e59f018c 	ldr	r0, [pc, #396]	; c0006ac <U0+0x84>
    ldr	    r1,=IsrIRQ			/* if there isn't 'subs pc,lr,#4' at 0x18, 0x1c */
 c00051c:	e59f1248 	ldr	r1, [pc, #584]	; c00076c <U0+0x144>
    str	    r1,[r0]
 c000520:	e5801000 	str	r1, [r0]

    ldr	    r0,=HandleFIQ		/* This routine is needed */
 c000524:	e59f017c 	ldr	r0, [pc, #380]	; c0006a8 <U0+0x80>
    ldr	    r1,=exception			/* if there isn't 'subs pc,lr,#4' at 0x18, 0x1c */
 c000528:	e59f1234 	ldr	r1, [pc, #564]	; c000764 <U0+0x13c>
    str	    r1,[r0]
 c00052c:	e5801000 	str	r1, [r0]
    
	
	#********************************************************
    #*	Copy and paste RW data/zero initialized data	    *
    #********************************************************
    LDR	    r0, =Image_RO_Limit	/* Get pointer to ROM data */
 c000530:	e59f0238 	ldr	r0, [pc, #568]	; c000770 <U0+0x148>
    LDR	    r1, =Image_RW_Base	/* and RAM copy	*/
 c000534:	e59f1238 	ldr	r1, [pc, #568]	; c000774 <U0+0x14c>
    LDR	    r3, =Image_ZI_Base	
 c000538:	e59f321c 	ldr	r3, [pc, #540]	; c00075c <U0+0x134>
/* Zero init base => top of initialised data */
			
    CMP	    r0, r1	    		/* Check that they are different */
 c00053c:	e1500001 	cmp	r0, r1
    BEQ	    F1
 c000540:	0a000003 	beq	c000554 <F1>

0c000544 <F0>:
F0:
    CMP	    r1, r3				/* Copy init data                        */
 c000544:	e1510003 	cmp	r1, r3
    LDRCC   r2, [r0], #4        /* --> LDRCC r2, [r0] + ADD r0, r0, #4	 */
 c000548:	34902004 	ldrcc	r2, [r0], #4
    STRCC   r2, [r1], #4        /* --> STRCC r2, [r1] + ADD r1, r1, #4   */ 
 c00054c:	34812004 	strcc	r2, [r1], #4
    BCC	    F0
 c000550:	3afffffb 	bcc	c000544 <F0>

0c000554 <F1>:

   

F1:
    LDR	    r1, =Image_ZI_Limit	/* Top of zero init segment */
 c000554:	e59f11fc 	ldr	r1, [pc, #508]	; c000758 <U0+0x130>
    MOV	    r2, #0
 c000558:	e3a02000 	mov	r2, #0

0c00055c <F2>:
F2:
    CMP	    r3, r1	    		/* Zero init */
 c00055c:	e1530001 	cmp	r3, r1
    STRCC   r2, [r3], #4
 c000560:	34832004 	strcc	r2, [r3], #4
    BCC	    F2
 c000564:	3afffffc 	bcc	c00055c <F2>

	MRS	r0, CPSR
 c000568:	e10f0000 	mrs	r0, CPSR
	BIC	r0, r0, #NOINT /* enable interrupt */
 c00056c:	e3c000c0 	bic	r0, r0, #192	; 0xc0
	MSR	CPSR_cxsf, r0
 c000570:	e12ff000 	msr	CPSR_fsxc, r0
	/* jump to main() */
   	ldr r0,=Main
 c000574:	e59f01fc 	ldr	r0, [pc, #508]	; c000778 <U0+0x150>
    mov lr,pc
 c000578:	e1a0e00f 	mov	lr, pc
    mov pc,r0
 c00057c:	e1a0f000 	mov	pc, r0
   	B   .	    
 c000580:	eafffffe 	b	c000580 <F2+0x24>

0c000584 <exception>:

exception:

	MRS	r0, CPSR
 c000584:	e10f0000 	mrs	r0, CPSR
	and r0, r0, #0x1f
 c000588:	e200001f 	and	r0, r0, #31

	sub r1, lr, #4
 c00058c:	e24e1004 	sub	r1, lr, #4
	BL push_debug
 c000590:	eb0012ce 	bl	c0050d0 <push_debug>

	bl parpadeos
 c000594:	eb001272 	bl	c004f64 <parpadeos>

	B .
 c000598:	eafffffe 	b	c000598 <exception+0x14>

0c00059c <InitStacks>:
InitStacks:
	#Don't use DRAM,such as stmfd,ldmfd......
	#SVCstack is initialized before
	#Under toolkit ver 2.50, 'msr cpsr,r1' can be used instead of 'msr cpsr_cxsf,r1'

    mrs	    r0,cpsr
 c00059c:	e10f0000 	mrs	r0, CPSR
    bic	    r0,r0,#MODEMASK
 c0005a0:	e3c0001f 	bic	r0, r0, #31
    orr	    r1,r0,#UNDEFMODE
 c0005a4:	e380101b 	orr	r1, r0, #27
    msr	    cpsr_cxsf,r1		/* UndefMode */
 c0005a8:	e12ff001 	msr	CPSR_fsxc, r1
    ldr	    sp,=UndefStack
 c0005ac:	e59fd1c8 	ldr	sp, [pc, #456]	; c00077c <U0+0x154>
	
    orr	    r1,r0,#ABORTMODE|NOINT
 c0005b0:	e38010d7 	orr	r1, r0, #215	; 0xd7
    msr	    cpsr_cxsf,r1 	    /* AbortMode */	
 c0005b4:	e12ff001 	msr	CPSR_fsxc, r1
    ldr	    sp,=AbortStack
 c0005b8:	e59fd1c0 	ldr	sp, [pc, #448]	; c000780 <U0+0x158>

    orr	    r1,r0,#IRQMODE|FIQ_MODE
 c0005bc:	e3801092 	orr	r1, r0, #146	; 0x92
    msr	    cpsr_cxsf,r1 	    /* IRQMode */
 c0005c0:	e12ff001 	msr	CPSR_fsxc, r1
    ldr	    sp,=IRQStack
 c0005c4:	e59fd1b8 	ldr	sp, [pc, #440]	; c000784 <U0+0x15c>
	
    orr	    r1,r0,#FIQMODE|IRQ_MODE
 c0005c8:	e3801051 	orr	r1, r0, #81	; 0x51
    msr	    cpsr_cxsf,r1 	    /* FIQMode */
 c0005cc:	e12ff001 	msr	CPSR_fsxc, r1
    ldr	    sp,=FIQStack
 c0005d0:	e59fd1b0 	ldr	sp, [pc, #432]	; c000788 <U0+0x160>

    bic	    r0,r0,#MODEMASK
 c0005d4:	e3c0001f 	bic	r0, r0, #31
    orr	    r1,r0,#SVCMODE
 c0005d8:	e3801013 	orr	r1, r0, #19
    msr	    cpsr_cxsf,r1 	    /* SVCMode */
 c0005dc:	e12ff001 	msr	CPSR_fsxc, r1
    ldr	    sp,=SVCStack
 c0005e0:	e59fd178 	ldr	sp, [pc, #376]	; c000760 <U0+0x138>

	#USER mode is not initialized.
    mov	    pc,lr 				/* The LR register may be not valid for the mode changes. */
 c0005e4:	e1a0f00e 	mov	pc, lr

0c0005e8 <EnterPWDN>:
#****************************************************
#*	The function for entering power down mode		*
#****************************************************
#void EnterPWDN(int CLKCON);
EnterPWDN:
    mov	    r2,r0               /* r0=CLKCON */
 c0005e8:	e1a02000 	mov	r2, r0
    ldr	    r0,=REFRESH		
 c0005ec:	e59f0198 	ldr	r0, [pc, #408]	; c00078c <U0+0x164>
    ldr	    r3,[r0]
 c0005f0:	e5903000 	ldr	r3, [r0]
    mov	    r1, r3
 c0005f4:	e1a01003 	mov	r1, r3
    orr	    r1, r1, #0x400000   /* self-refresh enable */
 c0005f8:	e3811501 	orr	r1, r1, #4194304	; 0x400000
    str	    r1, [r0]
 c0005fc:	e5801000 	str	r1, [r0]

    nop     /* Wait until self-refresh is issued. May not be needed. */
 c000600:	e1a00000 	nop			; (mov r0, r0)
    nop     /* If the other bus master holds the bus, ... */
 c000604:	e1a00000 	nop			; (mov r0, r0)
    nop	    /* mov r0, r0 */
 c000608:	e1a00000 	nop			; (mov r0, r0)
    nop
 c00060c:	e1a00000 	nop			; (mov r0, r0)
    nop
 c000610:	e1a00000 	nop			; (mov r0, r0)
    nop
 c000614:	e1a00000 	nop			; (mov r0, r0)
    nop
 c000618:	e1a00000 	nop			; (mov r0, r0)

#enter POWERDN mode
    ldr	    r0,=CLKCON
 c00061c:	e59f011c 	ldr	r0, [pc, #284]	; c000740 <U0+0x118>
    str	    r2,[r0]
 c000620:	e5802000 	str	r2, [r0]

#wait until enter SL_IDLE,STOP mode and until wake-up
    ldr	    r0,=0x10
 c000624:	e3a00010 	mov	r0, #16

0c000628 <U0>:
U0: subs    r0,r0,#1
 c000628:	e2500001 	subs	r0, r0, #1
    bne	    U0
 c00062c:	1afffffd 	bne	c000628 <U0>

#exit from DRAM/SDRAM self refresh mode.
    ldr	    r0,=REFRESH
 c000630:	e59f0154 	ldr	r0, [pc, #340]	; c00078c <U0+0x164>
    str	    r3,[r0]
 c000634:	e5803000 	str	r3, [r0]
    mov	    pc,lr
 c000638:	e1a0f00e 	mov	pc, lr
 c00063c:	0c0003cc 	.word	0x0c0003cc
 c000640:	0c0003b4 	.word	0x0c0003b4
 c000644:	0c00039c 	.word	0x0c00039c
 c000648:	0c000384 	.word	0x0c000384
 c00064c:	0c00036c 	.word	0x0c00036c
 c000650:	0c000354 	.word	0x0c000354
 c000654:	0c00033c 	.word	0x0c00033c
 c000658:	0c000324 	.word	0x0c000324
 c00065c:	0c00030c 	.word	0x0c00030c
 c000660:	0c0002f4 	.word	0x0c0002f4
 c000664:	0c0002dc 	.word	0x0c0002dc
 c000668:	0c0002c4 	.word	0x0c0002c4
 c00066c:	0c0002ac 	.word	0x0c0002ac
 c000670:	0c000294 	.word	0x0c000294
 c000674:	0c00027c 	.word	0x0c00027c
 c000678:	0c000264 	.word	0x0c000264
 c00067c:	0c00024c 	.word	0x0c00024c
 c000680:	0c000234 	.word	0x0c000234
 c000684:	0c00021c 	.word	0x0c00021c
 c000688:	0c000204 	.word	0x0c000204
 c00068c:	0c0001ec 	.word	0x0c0001ec
 c000690:	0c0001d4 	.word	0x0c0001d4
 c000694:	0c0001bc 	.word	0x0c0001bc
 c000698:	0c0001a4 	.word	0x0c0001a4
 c00069c:	0c00018c 	.word	0x0c00018c
 c0006a0:	0c000174 	.word	0x0c000174
 c0006a4:	0c0005e8 	.word	0x0c0005e8
 c0006a8:	0c7fff1c 	.word	0x0c7fff1c
 c0006ac:	0c7fff18 	.word	0x0c7fff18
 c0006b0:	0c7fff04 	.word	0x0c7fff04
 c0006b4:	0c7fff08 	.word	0x0c7fff08
 c0006b8:	0c7fff10 	.word	0x0c7fff10
 c0006bc:	0c7fff0c 	.word	0x0c7fff0c
 c0006c0:	0c7fff20 	.word	0x0c7fff20
 c0006c4:	0c7fff24 	.word	0x0c7fff24
 c0006c8:	0c7fff28 	.word	0x0c7fff28
 c0006cc:	0c7fff2c 	.word	0x0c7fff2c
 c0006d0:	0c7fff30 	.word	0x0c7fff30
 c0006d4:	0c7fff34 	.word	0x0c7fff34
 c0006d8:	0c7fff38 	.word	0x0c7fff38
 c0006dc:	0c7fff3c 	.word	0x0c7fff3c
 c0006e0:	0c7fff40 	.word	0x0c7fff40
 c0006e4:	0c7fff44 	.word	0x0c7fff44
 c0006e8:	0c7fff48 	.word	0x0c7fff48
 c0006ec:	0c7fff4c 	.word	0x0c7fff4c
 c0006f0:	0c7fff50 	.word	0x0c7fff50
 c0006f4:	0c7fff54 	.word	0x0c7fff54
 c0006f8:	0c7fff58 	.word	0x0c7fff58
 c0006fc:	0c7fff5c 	.word	0x0c7fff5c
 c000700:	0c7fff60 	.word	0x0c7fff60
 c000704:	0c7fff64 	.word	0x0c7fff64
 c000708:	0c7fff68 	.word	0x0c7fff68
 c00070c:	0c7fff6c 	.word	0x0c7fff6c
 c000710:	0c7fff70 	.word	0x0c7fff70
 c000714:	0c7fff74 	.word	0x0c7fff74
 c000718:	0c7fff78 	.word	0x0c7fff78
 c00071c:	0c7fff7c 	.word	0x0c7fff7c
 c000720:	0c7fff80 	.word	0x0c7fff80
 c000724:	0c7fff84 	.word	0x0c7fff84
 c000728:	01e00020 	.word	0x01e00020
 c00072c:	01d30000 	.word	0x01d30000
 c000730:	01e0000c 	.word	0x01e0000c
 c000734:	01d8000c 	.word	0x01d8000c
 c000738:	00000fff 	.word	0x00000fff
 c00073c:	00038021 	.word	0x00038021
 c000740:	01d80004 	.word	0x01d80004
 c000744:	00007ff8 	.word	0x00007ff8
 c000748:	01f80008 	.word	0x01f80008
 c00074c:	01f80028 	.word	0x01f80028
 c000750:	000007c4 	.word	0x000007c4
 c000754:	0c000000 	.word	0x0c000000
 c000758:	0c00768c 	.word	0x0c00768c
 c00075c:	0c0075b8 	.word	0x0c0075b8
 c000760:	0c7ff100 	.word	0x0c7ff100
 c000764:	0c000584 	.word	0x0c000584
 c000768:	0c7fff14 	.word	0x0c7fff14
 c00076c:	0c0003e4 	.word	0x0c0003e4
 c000770:	0c0061b8 	.word	0x0c0061b8
 c000774:	0c0061b8 	.word	0x0c0061b8
 c000778:	0c004ebc 	.word	0x0c004ebc
 c00077c:	0c7ff200 	.word	0x0c7ff200
 c000780:	0c7ff300 	.word	0x0c7ff300
 c000784:	0c7ff400 	.word	0x0c7ff400
 c000788:	0c7ff500 	.word	0x0c7ff500
 c00078c:	01c80024 	.word	0x01c80024
 c000790:	11110102 	.word	0x11110102
 c000794:	00000600 	.word	0x00000600
 c000798:	00007ffc 	.word	0x00007ffc
 c00079c:	00007ffc 	.word	0x00007ffc
 c0007a0:	00007ffc 	.word	0x00007ffc
 c0007a4:	00007ffc 	.word	0x00007ffc
 c0007a8:	00007ffc 	.word	0x00007ffc
 c0007ac:	00018000 	.word	0x00018000
 c0007b0:	00018000 	.word	0x00018000
 c0007b4:	00860459 	.word	0x00860459
 c0007b8:	00000010 	.word	0x00000010
 c0007bc:	00000020 	.word	0x00000020
 c0007c0:	00000020 	.word	0x00000020

0c0007c4 <SMRDATA>:
 c0007c4:	11110102 	.word	0x11110102
 c0007c8:	00000600 	.word	0x00000600
 c0007cc:	00007ffc 	.word	0x00007ffc
 c0007d0:	00007ffc 	.word	0x00007ffc
 c0007d4:	00007ffc 	.word	0x00007ffc
 c0007d8:	00007ffc 	.word	0x00007ffc
 c0007dc:	00007ffc 	.word	0x00007ffc
 c0007e0:	00018000 	.word	0x00018000
 c0007e4:	00018000 	.word	0x00018000
 c0007e8:	00860459 	.word	0x00860459
 c0007ec:	00000010 	.word	0x00000010
 c0007f0:	00000020 	.word	0x00000020
 c0007f4:	00000020 	.word	0x00000020

0c0007f8 <Delay>:
void Delay(int time)
// time=0: adjust the Delay function by WatchDog timer
// time>0: the number of loop time
// 100us resolution
// Delay(10) -> 10*100us resolution
{
 c0007f8:	e1a0c00d 	mov	ip, sp
 c0007fc:	e92dd800 	push	{fp, ip, lr, pc}
 c000800:	e24cb004 	sub	fp, ip, #4
 c000804:	e24dd010 	sub	sp, sp, #16
 c000808:	e50b0018 	str	r0, [fp, #-24]	; 0xffffffe8
	int i,adjust = 0;
 c00080c:	e3a03000 	mov	r3, #0
 c000810:	e50b3014 	str	r3, [fp, #-20]	; 0xffffffec
	if (time == 0)
 c000814:	e51b3018 	ldr	r3, [fp, #-24]	; 0xffffffe8
 c000818:	e3530000 	cmp	r3, #0
 c00081c:	1a000021 	bne	c0008a8 <Delay+0xb0>
	{
		time = 200;
 c000820:	e3a030c8 	mov	r3, #200	; 0xc8
 c000824:	e50b3018 	str	r3, [fp, #-24]	; 0xffffffe8
		adjust = 1;
 c000828:	e3a03001 	mov	r3, #1
 c00082c:	e50b3014 	str	r3, [fp, #-20]	; 0xffffffec
		delayLoopCount = 400;
 c000830:	e59f30d8 	ldr	r3, [pc, #216]	; c000910 <Delay+0x118>
 c000834:	e3a02e19 	mov	r2, #400	; 0x190
 c000838:	e5832000 	str	r2, [r3]
		rWTCON = ((MCLK/1000000 - 1)<<8) | (2<<3);	// 1M/64,Watch-dog,nRESET,interrupt disable//
 c00083c:	e59f30d0 	ldr	r3, [pc, #208]	; c000914 <Delay+0x11c>
 c000840:	e59f20d0 	ldr	r2, [pc, #208]	; c000918 <Delay+0x120>
 c000844:	e5832000 	str	r2, [r3]
		rWTDAT = 0xffff;
 c000848:	e59f30cc 	ldr	r3, [pc, #204]	; c00091c <Delay+0x124>
 c00084c:	e59f20cc 	ldr	r2, [pc, #204]	; c000920 <Delay+0x128>
 c000850:	e5832000 	str	r2, [r3]
		rWTCNT = 0xffff;
 c000854:	e59f30c8 	ldr	r3, [pc, #200]	; c000924 <Delay+0x12c>
 c000858:	e59f20c0 	ldr	r2, [pc, #192]	; c000920 <Delay+0x128>
 c00085c:	e5832000 	str	r2, [r3]
		rWTCON = ((MCLK/1000000 - 1)<<8)|(2<<3)|(1<<5); // 1M/64,Watch-dog enable,nRESET,interrupt disable //
 c000860:	e59f30ac 	ldr	r3, [pc, #172]	; c000914 <Delay+0x11c>
 c000864:	e59f20bc 	ldr	r2, [pc, #188]	; c000928 <Delay+0x130>
 c000868:	e5832000 	str	r2, [r3]
	}
	for (; time>0; time--)
 c00086c:	ea00000d 	b	c0008a8 <Delay+0xb0>
		for (i = 0; i < delayLoopCount; i++);
 c000870:	e3a03000 	mov	r3, #0
 c000874:	e50b3010 	str	r3, [fp, #-16]
 c000878:	ea000002 	b	c000888 <Delay+0x90>
 c00087c:	e51b3010 	ldr	r3, [fp, #-16]
 c000880:	e2833001 	add	r3, r3, #1
 c000884:	e50b3010 	str	r3, [fp, #-16]
 c000888:	e59f3080 	ldr	r3, [pc, #128]	; c000910 <Delay+0x118>
 c00088c:	e5933000 	ldr	r3, [r3]
 c000890:	e51b2010 	ldr	r2, [fp, #-16]
 c000894:	e1520003 	cmp	r2, r3
 c000898:	bafffff7 	blt	c00087c <Delay+0x84>
		rWTCON = ((MCLK/1000000 - 1)<<8) | (2<<3);	// 1M/64,Watch-dog,nRESET,interrupt disable//
		rWTDAT = 0xffff;
		rWTCNT = 0xffff;
		rWTCON = ((MCLK/1000000 - 1)<<8)|(2<<3)|(1<<5); // 1M/64,Watch-dog enable,nRESET,interrupt disable //
	}
	for (; time>0; time--)
 c00089c:	e51b3018 	ldr	r3, [fp, #-24]	; 0xffffffe8
 c0008a0:	e2433001 	sub	r3, r3, #1
 c0008a4:	e50b3018 	str	r3, [fp, #-24]	; 0xffffffe8
 c0008a8:	e51b3018 	ldr	r3, [fp, #-24]	; 0xffffffe8
 c0008ac:	e3530000 	cmp	r3, #0
 c0008b0:	caffffee 	bgt	c000870 <Delay+0x78>
		for (i = 0; i < delayLoopCount; i++);
	if (adjust == 1)
 c0008b4:	e51b3014 	ldr	r3, [fp, #-20]	; 0xffffffec
 c0008b8:	e3530001 	cmp	r3, #1
 c0008bc:	1a000010 	bne	c000904 <Delay+0x10c>
	{
		rWTCON = ((MCLK/1000000 - 1)<<8)|(2<<3);
 c0008c0:	e59f304c 	ldr	r3, [pc, #76]	; c000914 <Delay+0x11c>
 c0008c4:	e59f204c 	ldr	r2, [pc, #76]	; c000918 <Delay+0x120>
 c0008c8:	e5832000 	str	r2, [r3]
		i = 0xffff - rWTCNT;   //  1count/16us?????????//
 c0008cc:	e59f3050 	ldr	r3, [pc, #80]	; c000924 <Delay+0x12c>
 c0008d0:	e5933000 	ldr	r3, [r3]
 c0008d4:	e2633cff 	rsb	r3, r3, #65280	; 0xff00
 c0008d8:	e28330ff 	add	r3, r3, #255	; 0xff
 c0008dc:	e50b3010 	str	r3, [fp, #-16]
		delayLoopCount = 8000000/(i*64);	//400*100/(i*64/200)   //
 c0008e0:	e51b3010 	ldr	r3, [fp, #-16]
 c0008e4:	e1a03303 	lsl	r3, r3, #6
 c0008e8:	e59f003c 	ldr	r0, [pc, #60]	; c00092c <Delay+0x134>
 c0008ec:	e1a01003 	mov	r1, r3
 c0008f0:	eb0014b4 	bl	c005bc8 <__aeabi_idiv>
 c0008f4:	e1a03000 	mov	r3, r0
 c0008f8:	e1a02003 	mov	r2, r3
 c0008fc:	e59f300c 	ldr	r3, [pc, #12]	; c000910 <Delay+0x118>
 c000900:	e5832000 	str	r2, [r3]
	}
}
 c000904:	e24bd00c 	sub	sp, fp, #12
 c000908:	e89d6800 	ldm	sp, {fp, sp, lr}
 c00090c:	e12fff1e 	bx	lr
 c000910:	0c0061c8 	.word	0x0c0061c8
 c000914:	01d30000 	.word	0x01d30000
 c000918:	00003f10 	.word	0x00003f10
 c00091c:	01d30004 	.word	0x01d30004
 c000920:	0000ffff 	.word	0x0000ffff
 c000924:	01d30008 	.word	0x01d30008
 c000928:	00003f30 	.word	0x00003f30
 c00092c:	007a1200 	.word	0x007a1200

0c000930 <DelayMs>:

void DelayMs(int ms_time)
{
 c000930:	e1a0c00d 	mov	ip, sp
 c000934:	e92dd800 	push	{fp, ip, lr, pc}
 c000938:	e24cb004 	sub	fp, ip, #4
 c00093c:	e24dd010 	sub	sp, sp, #16
 c000940:	e50b0018 	str	r0, [fp, #-24]	; 0xffffffe8
	int i;

	for (i = 0; i < 1000*ms_time ; i++)
 c000944:	e3a03000 	mov	r3, #0
 c000948:	e50b3010 	str	r3, [fp, #-16]
 c00094c:	ea000002 	b	c00095c <DelayMs+0x2c>
 c000950:	e51b3010 	ldr	r3, [fp, #-16]
 c000954:	e2833001 	add	r3, r3, #1
 c000958:	e50b3010 	str	r3, [fp, #-16]
 c00095c:	e51b2018 	ldr	r2, [fp, #-24]	; 0xffffffe8
 c000960:	e1a03002 	mov	r3, r2
 c000964:	e1a03283 	lsl	r3, r3, #5
 c000968:	e0623003 	rsb	r3, r2, r3
 c00096c:	e1a03103 	lsl	r3, r3, #2
 c000970:	e0833002 	add	r3, r3, r2
 c000974:	e1a03183 	lsl	r3, r3, #3
 c000978:	e1a02003 	mov	r2, r3
 c00097c:	e51b3010 	ldr	r3, [fp, #-16]
 c000980:	e1520003 	cmp	r2, r3
 c000984:	cafffff1 	bgt	c000950 <DelayMs+0x20>
		;
}
 c000988:	e24bd00c 	sub	sp, fp, #12
 c00098c:	e89d6800 	ldm	sp, {fp, sp, lr}
 c000990:	e12fff1e 	bx	lr

0c000994 <Port_Init>:

//------------------------PORTS------------------------------//
void Port_Init(void)
{
 c000994:	e1a0c00d 	mov	ip, sp
 c000998:	e92dd800 	push	{fp, ip, lr, pc}
 c00099c:	e24cb004 	sub	fp, ip, #4

	// PORT A GROUP
	// BIT 	9	8	7	6	5	4	3	2	1	0
	// 		A24	A23	A22	A21	A20	A19	A18	A17	A16	A0
	//		0	1	1	1	1	1	1	1	1	1
	rPCONA = 0x1ff;
 c0009a0:	e59f3100 	ldr	r3, [pc, #256]	; c000aa8 <Port_Init+0x114>
 c0009a4:	e59f2100 	ldr	r2, [pc, #256]	; c000aac <Port_Init+0x118>
 c0009a8:	e5832000 	str	r2, [r3]
	// PORT B GROUP
	// BIT 	10		9		8		7		6		5		4		3		2		1		0
	//		/CS5	/CS4	/CS3	/CS2	/CS1	GPB5	GPB4	/SRAS	/SCAS	SCLK	SCKE
	//		EXT		NIC		USB		IDE		SMC		NC		NC		Sdram	Sdram	Sdram	Sdram
	//      1, 		1,   	1,   	1,    	1,    	0,       0,     1,    	1,    	1,   	1
	rPDATB = 0x7ff;
 c0009ac:	e59f30fc 	ldr	r3, [pc, #252]	; c000ab0 <Port_Init+0x11c>
 c0009b0:	e59f20fc 	ldr	r2, [pc, #252]	; c000ab4 <Port_Init+0x120>
 c0009b4:	e5832000 	str	r2, [r3]
	rPCONB = 0x1cf;			// P9-LED1 P10-LED2
 c0009b8:	e59f30f8 	ldr	r3, [pc, #248]	; c000ab8 <Port_Init+0x124>
 c0009bc:	e59f20f8 	ldr	r2, [pc, #248]	; c000abc <Port_Init+0x128>
 c0009c0:	e5832000 	str	r2, [r3]

	//  PC7		6		5		4		3		2		1		0
	//   I		I		I		I		I		I		I		I
	//   NC		NC		NC		NC		IISCLK	IISDI	IISDO	IISLRCK
	//   00		00		00		00		11		11		11		11
	rPDATC = 0xff00;
 c0009c4:	e59f30f4 	ldr	r3, [pc, #244]	; c000ac0 <Port_Init+0x12c>
 c0009c8:	e3a02cff 	mov	r2, #65280	; 0xff00
 c0009cc:	e5832000 	str	r2, [r3]
	rPCONC = 0x0ff0ffff;
 c0009d0:	e59f30ec 	ldr	r3, [pc, #236]	; c000ac4 <Port_Init+0x130>
 c0009d4:	e59f20ec 	ldr	r2, [pc, #236]	; c000ac8 <Port_Init+0x134>
 c0009d8:	e5832000 	str	r2, [r3]
	rPUPC  = 0x30ff;	//PULL UP RESISTOR should be enabled to I/O
 c0009dc:	e59f30e8 	ldr	r3, [pc, #232]	; c000acc <Port_Init+0x138>
 c0009e0:	e59f20e8 	ldr	r2, [pc, #232]	; c000ad0 <Port_Init+0x13c>
 c0009e4:	e5832000 	str	r2, [r3]
	// PORT D GROUP
	// PORT D GROUP(I/O OR LCD)
	// BIT7		6		5		4		3		2		1		0
	//	VF		VM		VLINE	VCLK	VD3		VD2		VD1		VD0
	//	00		00		00		00		00		00		00		00
	rPDATD= 0xff;
 c0009e8:	e59f30e4 	ldr	r3, [pc, #228]	; c000ad4 <Port_Init+0x140>
 c0009ec:	e3a020ff 	mov	r2, #255	; 0xff
 c0009f0:	e5832000 	str	r2, [r3]
	rPCOND= 0xaaaa;
 c0009f4:	e59f30dc 	ldr	r3, [pc, #220]	; c000ad8 <Port_Init+0x144>
 c0009f8:	e59f20dc 	ldr	r2, [pc, #220]	; c000adc <Port_Init+0x148>
 c0009fc:	e5832000 	str	r2, [r3]
	rPUPD = 0x0;
 c000a00:	e59f30d8 	ldr	r3, [pc, #216]	; c000ae0 <Port_Init+0x14c>
 c000a04:	e3a02000 	mov	r2, #0
 c000a08:	e5832000 	str	r2, [r3]

	// PORT E GROUP
	// Bit	8		7		6		5		4		3		2		1		0
	//  	CODECLK	LED4	LED5	LED6	LED7	BEEP	RXD0	TXD0	LcdDisp
	//  	10		01		01		01		01		01		10		10		01
	rPDATE	= 0x1ff;
 c000a0c:	e59f30d0 	ldr	r3, [pc, #208]	; c000ae4 <Port_Init+0x150>
 c000a10:	e59f2094 	ldr	r2, [pc, #148]	; c000aac <Port_Init+0x118>
 c000a14:	e5832000 	str	r2, [r3]
	rPCONE	= 0x25529;
 c000a18:	e59f30c8 	ldr	r3, [pc, #200]	; c000ae8 <Port_Init+0x154>
 c000a1c:	e59f20c8 	ldr	r2, [pc, #200]	; c000aec <Port_Init+0x158>
 c000a20:	e5832000 	str	r2, [r3]
	rPUPE	= 0x6;
 c000a24:	e59f30c4 	ldr	r3, [pc, #196]	; c000af0 <Port_Init+0x15c>
 c000a28:	e3a02006 	mov	r2, #6
 c000a2c:	e5832000 	str	r2, [r3]

	// PORT F GROUP
	// Bit8		7		6		5		 4		3		2		1		0
	// IISCLK	IISDI	IISDO	IISLRCK	Input	Input	Input	IICSDA	IICSCL
	// 100		100		100		100		00		00		00		10		10
	rPDATF = 0x0;
 c000a30:	e59f30bc 	ldr	r3, [pc, #188]	; c000af4 <Port_Init+0x160>
 c000a34:	e3a02000 	mov	r2, #0
 c000a38:	e5832000 	str	r2, [r3]
	rPCONF = 0x252a;
 c000a3c:	e59f30b4 	ldr	r3, [pc, #180]	; c000af8 <Port_Init+0x164>
 c000a40:	e59f20b4 	ldr	r2, [pc, #180]	; c000afc <Port_Init+0x168>
 c000a44:	e5832000 	str	r2, [r3]
	rPUPF  = 0x0;
 c000a48:	e59f30b0 	ldr	r3, [pc, #176]	; c000b00 <Port_Init+0x16c>
 c000a4c:	e3a02000 	mov	r2, #0
 c000a50:	e5832000 	str	r2, [r3]
	// PORT G GROUP
	// BIT7		6		5		4		3		2		1		0
	// 	INT7	INT6	INT5	INT4	INT3	INT2	INT1	INT0
	//	S3		S4		S5		S6		NIC		EXT		IDE		USB
	//	11      11      11      11      11      11      11      11
	rPDATG = 0xff;
 c000a54:	e59f30a8 	ldr	r3, [pc, #168]	; c000b04 <Port_Init+0x170>
 c000a58:	e3a020ff 	mov	r2, #255	; 0xff
 c000a5c:	e5832000 	str	r2, [r3]
	rPCONG = 0xffff;
 c000a60:	e59f30a0 	ldr	r3, [pc, #160]	; c000b08 <Port_Init+0x174>
 c000a64:	e59f20a0 	ldr	r2, [pc, #160]	; c000b0c <Port_Init+0x178>
 c000a68:	e5832000 	str	r2, [r3]
	rPUPG  = 0x0;		//pull-up portG enabled
 c000a6c:	e59f309c 	ldr	r3, [pc, #156]	; c000b10 <Port_Init+0x17c>
 c000a70:	e3a02000 	mov	r2, #0
 c000a74:	e5832000 	str	r2, [r3]
	rSPUCR = 0x7;  		//D15-D0 pull-up disable
 c000a78:	e59f3094 	ldr	r3, [pc, #148]	; c000b14 <Port_Init+0x180>
 c000a7c:	e3a02007 	mov	r2, #7
 c000a80:	e5832000 	str	r2, [r3]

	/* Non Cache area */
	rNCACHBE0 = ((Non_Cache_End>>12)<<16) | (Non_Cache_Start>>12);
 c000a84:	e59f308c 	ldr	r3, [pc, #140]	; c000b18 <Port_Init+0x184>
 c000a88:	e59f208c 	ldr	r2, [pc, #140]	; c000b1c <Port_Init+0x188>
 c000a8c:	e5832000 	str	r2, [r3]

	/* Low level default */
	rEXTINT = 0x0;
 c000a90:	e59f3088 	ldr	r3, [pc, #136]	; c000b20 <Port_Init+0x18c>
 c000a94:	e3a02000 	mov	r2, #0
 c000a98:	e5832000 	str	r2, [r3]
}
 c000a9c:	e24bd00c 	sub	sp, fp, #12
 c000aa0:	e89d6800 	ldm	sp, {fp, sp, lr}
 c000aa4:	e12fff1e 	bx	lr
 c000aa8:	01d20000 	.word	0x01d20000
 c000aac:	000001ff 	.word	0x000001ff
 c000ab0:	01d2000c 	.word	0x01d2000c
 c000ab4:	000007ff 	.word	0x000007ff
 c000ab8:	01d20008 	.word	0x01d20008
 c000abc:	000001cf 	.word	0x000001cf
 c000ac0:	01d20014 	.word	0x01d20014
 c000ac4:	01d20010 	.word	0x01d20010
 c000ac8:	0ff0ffff 	.word	0x0ff0ffff
 c000acc:	01d20018 	.word	0x01d20018
 c000ad0:	000030ff 	.word	0x000030ff
 c000ad4:	01d20020 	.word	0x01d20020
 c000ad8:	01d2001c 	.word	0x01d2001c
 c000adc:	0000aaaa 	.word	0x0000aaaa
 c000ae0:	01d20024 	.word	0x01d20024
 c000ae4:	01d2002c 	.word	0x01d2002c
 c000ae8:	01d20028 	.word	0x01d20028
 c000aec:	00025529 	.word	0x00025529
 c000af0:	01d20030 	.word	0x01d20030
 c000af4:	01d20038 	.word	0x01d20038
 c000af8:	01d20034 	.word	0x01d20034
 c000afc:	0000252a 	.word	0x0000252a
 c000b00:	01d2003c 	.word	0x01d2003c
 c000b04:	01d20044 	.word	0x01d20044
 c000b08:	01d20040 	.word	0x01d20040
 c000b0c:	0000ffff 	.word	0x0000ffff
 c000b10:	01d20048 	.word	0x01d20048
 c000b14:	01d2004c 	.word	0x01d2004c
 c000b18:	01c00004 	.word	0x01c00004
 c000b1c:	c0002000 	.word	0xc0002000
 c000b20:	01d20050 	.word	0x01d20050

0c000b24 <malloc>:

//--------------------------------HEAP---------------------------------//
void *malloc(unsigned nbyte)
/* Very simple; Use malloc() & free() like Stack */
// void *mallocPt=Image$$RW$$Limit;
{
 c000b24:	e1a0c00d 	mov	ip, sp
 c000b28:	e92dd800 	push	{fp, ip, lr, pc}
 c000b2c:	e24cb004 	sub	fp, ip, #4
 c000b30:	e24dd010 	sub	sp, sp, #16
 c000b34:	e50b0018 	str	r0, [fp, #-24]	; 0xffffffe8
	void *returnPt = mallocPt;
 c000b38:	e59f307c 	ldr	r3, [pc, #124]	; c000bbc <malloc+0x98>
 c000b3c:	e5933000 	ldr	r3, [r3]
 c000b40:	e50b3010 	str	r3, [fp, #-16]

	mallocPt = (int *) mallocPt +nbyte/4 + ((nbyte%4)>0); //to align 4byte
 c000b44:	e59f3070 	ldr	r3, [pc, #112]	; c000bbc <malloc+0x98>
 c000b48:	e5932000 	ldr	r2, [r3]
 c000b4c:	e51b3018 	ldr	r3, [fp, #-24]	; 0xffffffe8
 c000b50:	e1a01123 	lsr	r1, r3, #2
 c000b54:	e51b3018 	ldr	r3, [fp, #-24]	; 0xffffffe8
 c000b58:	e2033003 	and	r3, r3, #3
 c000b5c:	e3530000 	cmp	r3, #0
 c000b60:	03a03000 	moveq	r3, #0
 c000b64:	13a03001 	movne	r3, #1
 c000b68:	e0813003 	add	r3, r1, r3
 c000b6c:	e1a03103 	lsl	r3, r3, #2
 c000b70:	e0822003 	add	r2, r2, r3
 c000b74:	e59f3040 	ldr	r3, [pc, #64]	; c000bbc <malloc+0x98>
 c000b78:	e5832000 	str	r2, [r3]

	if ((int)mallocPt > HEAPEND)
 c000b7c:	e59f3038 	ldr	r3, [pc, #56]	; c000bbc <malloc+0x98>
 c000b80:	e5933000 	ldr	r3, [r3]
 c000b84:	e1a02003 	mov	r2, r3
 c000b88:	e59f3030 	ldr	r3, [pc, #48]	; c000bc0 <malloc+0x9c>
 c000b8c:	e1520003 	cmp	r2, r3
 c000b90:	da000004 	ble	c000ba8 <malloc+0x84>
	{
		mallocPt = returnPt;
 c000b94:	e59f3020 	ldr	r3, [pc, #32]	; c000bbc <malloc+0x98>
 c000b98:	e51b2010 	ldr	r2, [fp, #-16]
 c000b9c:	e5832000 	str	r2, [r3]
		return NULL;
 c000ba0:	e3a03000 	mov	r3, #0
 c000ba4:	ea000000 	b	c000bac <malloc+0x88>
	}
	return returnPt;
 c000ba8:	e51b3010 	ldr	r3, [fp, #-16]
}
 c000bac:	e1a00003 	mov	r0, r3
 c000bb0:	e24bd00c 	sub	sp, fp, #12
 c000bb4:	e89d6800 	ldm	sp, {fp, sp, lr}
 c000bb8:	e12fff1e 	bx	lr
 c000bbc:	0c0061c0 	.word	0x0c0061c0
 c000bc0:	0c7ff000 	.word	0x0c7ff000

0c000bc4 <free>:

void free(void *pt)
{
 c000bc4:	e1a0c00d 	mov	ip, sp
 c000bc8:	e92dd800 	push	{fp, ip, lr, pc}
 c000bcc:	e24cb004 	sub	fp, ip, #4
 c000bd0:	e24dd008 	sub	sp, sp, #8
 c000bd4:	e50b0010 	str	r0, [fp, #-16]
	mallocPt = pt;
 c000bd8:	e59f3010 	ldr	r3, [pc, #16]	; c000bf0 <free+0x2c>
 c000bdc:	e51b2010 	ldr	r2, [fp, #-16]
 c000be0:	e5832000 	str	r2, [r3]
}
 c000be4:	e24bd00c 	sub	sp, fp, #12
 c000be8:	e89d6800 	ldm	sp, {fp, sp, lr}
 c000bec:	e12fff1e 	bx	lr
 c000bf0:	0c0061c0 	.word	0x0c0061c0

0c000bf4 <sys_init>:

//--------------------------------INIT---------------------------------//
void sys_init()// Interrupt & Port
{
 c000bf4:	e1a0c00d 	mov	ip, sp
 c000bf8:	e92dd800 	push	{fp, ip, lr, pc}
 c000bfc:	e24cb004 	sub	fp, ip, #4
	/* enable interrupt */
	rINTMOD = 0x0;
 c000c00:	e59f3040 	ldr	r3, [pc, #64]	; c000c48 <sys_init+0x54>
 c000c04:	e3a02000 	mov	r2, #0
 c000c08:	e5832000 	str	r2, [r3]
	rINTCON = 0x1;
 c000c0c:	e3a0361e 	mov	r3, #31457280	; 0x1e00000
 c000c10:	e3a02001 	mov	r2, #1
 c000c14:	e5832000 	str	r2, [r3]
	rI_ISPC = 0xffffffff;			/* clear all interrupt pend	*/
 c000c18:	e59f302c 	ldr	r3, [pc, #44]	; c000c4c <sys_init+0x58>
 c000c1c:	e3e02000 	mvn	r2, #0
 c000c20:	e5832000 	str	r2, [r3]
	rEXTINTPND = 0xf;				// clear EXTINTPND reg
 c000c24:	e59f3024 	ldr	r3, [pc, #36]	; c000c50 <sys_init+0x5c>
 c000c28:	e3a0200f 	mov	r2, #15
 c000c2c:	e5832000 	str	r2, [r3]
	Port_Init();					/* Initial 44B0X's I/O port */
 c000c30:	ebffff57 	bl	c000994 <Port_Init>
	Delay(0);						/* delay time				*/
 c000c34:	e3a00000 	mov	r0, #0
 c000c38:	ebfffeee 	bl	c0007f8 <Delay>
}
 c000c3c:	e24bd00c 	sub	sp, fp, #12
 c000c40:	e89d6800 	ldm	sp, {fp, sp, lr}
 c000c44:	e12fff1e 	bx	lr
 c000c48:	01e00008 	.word	0x01e00008
 c000c4c:	01e00024 	.word	0x01e00024
 c000c50:	01d20054 	.word	0x01d20054

0c000c54 <D8Led_init>:
void D8Led_init(void);
void D8Led_symbol(int value);

/*--- cdigo de las funciones ---*/
void D8Led_init(void)
{
 c000c54:	e1a0c00d 	mov	ip, sp
 c000c58:	e92dd800 	push	{fp, ip, lr, pc}
 c000c5c:	e24cb004 	sub	fp, ip, #4
	/* Estado inicial del display con todos los segmentos iluminados
	   (buscar en los ficheros de cabera la direccion implicada) */
	LED8ADDR = cero;
 c000c60:	e3a03785 	mov	r3, #34865152	; 0x2140000
 c000c64:	e3a02012 	mov	r2, #18
 c000c68:	e5c32000 	strb	r2, [r3]
}
 c000c6c:	e24bd00c 	sub	sp, fp, #12
 c000c70:	e89d6800 	ldm	sp, {fp, sp, lr}
 c000c74:	e12fff1e 	bx	lr

0c000c78 <D8Led_symbol>:

void D8Led_symbol(int value)
{
 c000c78:	e1a0c00d 	mov	ip, sp
 c000c7c:	e92dd800 	push	{fp, ip, lr, pc}
 c000c80:	e24cb004 	sub	fp, ip, #4
 c000c84:	e24dd008 	sub	sp, sp, #8
 c000c88:	e50b0010 	str	r0, [fp, #-16]
	/* muestra el Symbol[value] en el display (analogo al caso anterior) */
	if ((value >= 0) && (value < size_8led)) {
 c000c8c:	e51b3010 	ldr	r3, [fp, #-16]
 c000c90:	e3530000 	cmp	r3, #0
 c000c94:	ba000008 	blt	c000cbc <D8Led_symbol+0x44>
 c000c98:	e51b3010 	ldr	r3, [fp, #-16]
 c000c9c:	e3530010 	cmp	r3, #16
 c000ca0:	ca000005 	bgt	c000cbc <D8Led_symbol+0x44>
		LED8ADDR = Symbol[value];
 c000ca4:	e3a03785 	mov	r3, #34865152	; 0x2140000
 c000ca8:	e59f2018 	ldr	r2, [pc, #24]	; c000cc8 <D8Led_symbol+0x50>
 c000cac:	e51b1010 	ldr	r1, [fp, #-16]
 c000cb0:	e7922101 	ldr	r2, [r2, r1, lsl #2]
 c000cb4:	e20220ff 	and	r2, r2, #255	; 0xff
 c000cb8:	e5c32000 	strb	r2, [r3]
	}
}
 c000cbc:	e24bd00c 	sub	sp, fp, #12
 c000cc0:	e89d6800 	ldm	sp, {fp, sp, lr}
 c000cc4:	e12fff1e 	bx	lr
 c000cc8:	0c0061cc 	.word	0x0c0061cc

0c000ccc <BitmapView>:
* ret:		none
* modify:
* comment:		
*********************************************************************************************/
void BitmapView (INT16U x, INT16U y, STRU_BITMAP Stru_Bitmap)
{
 c000ccc:	e1a0c00d 	mov	ip, sp
 c000cd0:	e24dd008 	sub	sp, sp, #8
 c000cd4:	e92dd800 	push	{fp, ip, lr, pc}
 c000cd8:	e24cb00c 	sub	fp, ip, #12
 c000cdc:	e24dd018 	sub	sp, sp, #24
 c000ce0:	e28bc004 	add	ip, fp, #4
 c000ce4:	e88c000c 	stm	ip, {r2, r3}
 c000ce8:	e14b01be 	strh	r0, [fp, #-30]	; 0xffffffe2
 c000cec:	e14b12b0 	strh	r1, [fp, #-32]	; 0xffffffe0
	INT32U i, j;
	INT8U ucColor;
	
	for (i =  0; i < Stru_Bitmap.usHeight; i++)
 c000cf0:	e3a03000 	mov	r3, #0
 c000cf4:	e50b3010 	str	r3, [fp, #-16]
 c000cf8:	ea00004e 	b	c000e38 <BitmapView+0x16c>
	{
		for (j = 0; j <Stru_Bitmap.usWidth; j++)
 c000cfc:	e3a03000 	mov	r3, #0
 c000d00:	e50b3014 	str	r3, [fp, #-20]	; 0xffffffec
 c000d04:	ea000043 	b	c000e18 <BitmapView+0x14c>
		{
			if ((ucColor = *(INT8U*)(Stru_Bitmap.pucStart + i * Stru_Bitmap.usWidth + j)) != TRANSPARENCY)
 c000d08:	e59b2010 	ldr	r2, [fp, #16]
 c000d0c:	e1db30b6 	ldrh	r3, [fp, #6]
 c000d10:	e51b1010 	ldr	r1, [fp, #-16]
 c000d14:	e0010193 	mul	r1, r3, r1
 c000d18:	e51b3014 	ldr	r3, [fp, #-20]	; 0xffffffec
 c000d1c:	e0813003 	add	r3, r1, r3
 c000d20:	e0823003 	add	r3, r2, r3
 c000d24:	e5d33000 	ldrb	r3, [r3]
 c000d28:	e54b3015 	strb	r3, [fp, #-21]	; 0xffffffeb
 c000d2c:	e55b3015 	ldrb	r3, [fp, #-21]	; 0xffffffeb
 c000d30:	e35300ff 	cmp	r3, #255	; 0xff
 c000d34:	0a000034 	beq	c000e0c <BitmapView+0x140>
			{
				LCD_PutPixel(x + j, y + i, ucColor); 
 c000d38:	e15b22b0 	ldrh	r2, [fp, #-32]	; 0xffffffe0
 c000d3c:	e51b3010 	ldr	r3, [fp, #-16]
 c000d40:	e0822003 	add	r2, r2, r3
 c000d44:	e1a03002 	mov	r3, r2
 c000d48:	e1a03103 	lsl	r3, r3, #2
 c000d4c:	e0833002 	add	r3, r3, r2
 c000d50:	e1a03303 	lsl	r3, r3, #6
 c000d54:	e1a020a3 	lsr	r2, r3, #1
 c000d58:	e15b11be 	ldrh	r1, [fp, #-30]	; 0xffffffe2
 c000d5c:	e51b3014 	ldr	r3, [fp, #-20]	; 0xffffffec
 c000d60:	e0813003 	add	r3, r1, r3
 c000d64:	e1a031a3 	lsr	r3, r3, #3
 c000d68:	e1a03103 	lsl	r3, r3, #2
 c000d6c:	e0823003 	add	r3, r2, r3
 c000d70:	e28336c3 	add	r3, r3, #204472320	; 0xc300000
 c000d74:	e2833c96 	add	r3, r3, #38400	; 0x9600
 c000d78:	e1a01003 	mov	r1, r3
 c000d7c:	e15b22b0 	ldrh	r2, [fp, #-32]	; 0xffffffe0
 c000d80:	e51b3010 	ldr	r3, [fp, #-16]
 c000d84:	e0822003 	add	r2, r2, r3
 c000d88:	e1a03002 	mov	r3, r2
 c000d8c:	e1a03103 	lsl	r3, r3, #2
 c000d90:	e0833002 	add	r3, r3, r2
 c000d94:	e1a03303 	lsl	r3, r3, #6
 c000d98:	e1a020a3 	lsr	r2, r3, #1
 c000d9c:	e15b01be 	ldrh	r0, [fp, #-30]	; 0xffffffe2
 c000da0:	e51b3014 	ldr	r3, [fp, #-20]	; 0xffffffec
 c000da4:	e0803003 	add	r3, r0, r3
 c000da8:	e1a031a3 	lsr	r3, r3, #3
 c000dac:	e1a03103 	lsl	r3, r3, #2
 c000db0:	e0823003 	add	r3, r2, r3
 c000db4:	e28336c3 	add	r3, r3, #204472320	; 0xc300000
 c000db8:	e2833c96 	add	r3, r3, #38400	; 0x9600
 c000dbc:	e5932000 	ldr	r2, [r3]
 c000dc0:	e15b01be 	ldrh	r0, [fp, #-30]	; 0xffffffe2
 c000dc4:	e51b3014 	ldr	r3, [fp, #-20]	; 0xffffffec
 c000dc8:	e0803003 	add	r3, r0, r3
 c000dcc:	e2033007 	and	r3, r3, #7
 c000dd0:	e1a03103 	lsl	r3, r3, #2
 c000dd4:	e3a0020f 	mov	r0, #-268435456	; 0xf0000000
 c000dd8:	e1a03330 	lsr	r3, r0, r3
 c000ddc:	e1e03003 	mvn	r3, r3
 c000de0:	e0022003 	and	r2, r2, r3
 c000de4:	e55b0015 	ldrb	r0, [fp, #-21]	; 0xffffffeb
 c000de8:	e15bc1be 	ldrh	ip, [fp, #-30]	; 0xffffffe2
 c000dec:	e51b3014 	ldr	r3, [fp, #-20]	; 0xffffffec
 c000df0:	e08c3003 	add	r3, ip, r3
 c000df4:	e1e03003 	mvn	r3, r3
 c000df8:	e2033007 	and	r3, r3, #7
 c000dfc:	e1a03103 	lsl	r3, r3, #2
 c000e00:	e1a03310 	lsl	r3, r0, r3
 c000e04:	e1823003 	orr	r3, r2, r3
 c000e08:	e5813000 	str	r3, [r1]
	INT32U i, j;
	INT8U ucColor;
	
	for (i =  0; i < Stru_Bitmap.usHeight; i++)
	{
		for (j = 0; j <Stru_Bitmap.usWidth; j++)
 c000e0c:	e51b3014 	ldr	r3, [fp, #-20]	; 0xffffffec
 c000e10:	e2833001 	add	r3, r3, #1
 c000e14:	e50b3014 	str	r3, [fp, #-20]	; 0xffffffec
 c000e18:	e1db30b6 	ldrh	r3, [fp, #6]
 c000e1c:	e1a02003 	mov	r2, r3
 c000e20:	e51b3014 	ldr	r3, [fp, #-20]	; 0xffffffec
 c000e24:	e1520003 	cmp	r2, r3
 c000e28:	8affffb6 	bhi	c000d08 <BitmapView+0x3c>
void BitmapView (INT16U x, INT16U y, STRU_BITMAP Stru_Bitmap)
{
	INT32U i, j;
	INT8U ucColor;
	
	for (i =  0; i < Stru_Bitmap.usHeight; i++)
 c000e2c:	e51b3010 	ldr	r3, [fp, #-16]
 c000e30:	e2833001 	add	r3, r3, #1
 c000e34:	e50b3010 	str	r3, [fp, #-16]
 c000e38:	e1db30b8 	ldrh	r3, [fp, #8]
 c000e3c:	e1a02003 	mov	r2, r3
 c000e40:	e51b3010 	ldr	r3, [fp, #-16]
 c000e44:	e1520003 	cmp	r2, r3
 c000e48:	8affffab 	bhi	c000cfc <BitmapView+0x30>
			{
				LCD_PutPixel(x + j, y + i, ucColor); 
			}
		}
	}
}
 c000e4c:	e24bd00c 	sub	sp, fp, #12
 c000e50:	e89d6800 	ldm	sp, {fp, sp, lr}
 c000e54:	e12fff1e 	bx	lr

0c000e58 <BitmapPush>:
* ret:		none
* modify:
* comment:		
*********************************************************************************************/
void BitmapPush (INT16U x, INT16U y, STRU_BITMAP Stru_Bitmap)
{
 c000e58:	e1a0c00d 	mov	ip, sp
 c000e5c:	e24dd008 	sub	sp, sp, #8
 c000e60:	e92dd800 	push	{fp, ip, lr, pc}
 c000e64:	e24cb00c 	sub	fp, ip, #12
 c000e68:	e24dd010 	sub	sp, sp, #16
 c000e6c:	e28bc004 	add	ip, fp, #4
 c000e70:	e88c000c 	stm	ip, {r2, r3}
 c000e74:	e14b01b6 	strh	r0, [fp, #-22]	; 0xffffffea
 c000e78:	e14b11b8 	strh	r1, [fp, #-24]	; 0xffffffe8
	INT32U i, j;

	ulMouseX = x; 
 c000e7c:	e59f3234 	ldr	r3, [pc, #564]	; c0010b8 <BitmapPush+0x260>
 c000e80:	e15b21b6 	ldrh	r2, [fp, #-22]	; 0xffffffea
 c000e84:	e1c320b0 	strh	r2, [r3]
	ulMouseY = y;
 c000e88:	e59f322c 	ldr	r3, [pc, #556]	; c0010bc <BitmapPush+0x264>
 c000e8c:	e15b21b8 	ldrh	r2, [fp, #-24]	; 0xffffffe8
 c000e90:	e1c320b0 	strh	r2, [r3]
	for (i =  0; i < Stru_Bitmap.usHeight; i++)
 c000e94:	e3a03000 	mov	r3, #0
 c000e98:	e50b3010 	str	r3, [fp, #-16]
 c000e9c:	ea00007d 	b	c001098 <BitmapPush+0x240>
	{
		for (j = 0; j < Stru_Bitmap.usWidth; j+=2)
 c000ea0:	e3a03000 	mov	r3, #0
 c000ea4:	e50b3014 	str	r3, [fp, #-20]	; 0xffffffec
 c000ea8:	ea000072 	b	c001078 <BitmapPush+0x220>
		{
			if ((x + j)%2)
 c000eac:	e15b21b6 	ldrh	r2, [fp, #-22]	; 0xffffffea
 c000eb0:	e51b3014 	ldr	r3, [fp, #-20]	; 0xffffffec
 c000eb4:	e0823003 	add	r3, r2, r3
 c000eb8:	e2033001 	and	r3, r3, #1
 c000ebc:	e20330ff 	and	r3, r3, #255	; 0xff
 c000ec0:	e3530000 	cmp	r3, #0
 c000ec4:	0a000044 	beq	c000fdc <BitmapPush+0x184>
			{
				ucCursorBackUp[i][j/2] =
 c000ec8:	e51b3014 	ldr	r3, [fp, #-20]	; 0xffffffec
 c000ecc:	e1a0c0a3 	lsr	ip, r3, #1
				(((*(INT8U*)(LCD_ACTIVE_BUFFER + (y + i) * SCR_XSIZE / 2 + (x + j) / 8 * 4  + 3 - ((x + j)%8) / 2)) << 4) & 0xf0) + 
 c000ed0:	e15b21b8 	ldrh	r2, [fp, #-24]	; 0xffffffe8
 c000ed4:	e51b3010 	ldr	r3, [fp, #-16]
 c000ed8:	e0822003 	add	r2, r2, r3
 c000edc:	e1a03002 	mov	r3, r2
 c000ee0:	e1a03103 	lsl	r3, r3, #2
 c000ee4:	e0833002 	add	r3, r3, r2
 c000ee8:	e1a03303 	lsl	r3, r3, #6
 c000eec:	e1a020a3 	lsr	r2, r3, #1
 c000ef0:	e15b11b6 	ldrh	r1, [fp, #-22]	; 0xffffffea
 c000ef4:	e51b3014 	ldr	r3, [fp, #-20]	; 0xffffffec
 c000ef8:	e0813003 	add	r3, r1, r3
 c000efc:	e1a031a3 	lsr	r3, r3, #3
 c000f00:	e1a03103 	lsl	r3, r3, #2
 c000f04:	e0822003 	add	r2, r2, r3
 c000f08:	e15b11b6 	ldrh	r1, [fp, #-22]	; 0xffffffea
 c000f0c:	e51b3014 	ldr	r3, [fp, #-20]	; 0xffffffec
 c000f10:	e0813003 	add	r3, r1, r3
 c000f14:	e2033007 	and	r3, r3, #7
 c000f18:	e1a030a3 	lsr	r3, r3, #1
 c000f1c:	e2633000 	rsb	r3, r3, #0
 c000f20:	e0823003 	add	r3, r2, r3
 c000f24:	e28336c3 	add	r3, r3, #204472320	; 0xc300000
 c000f28:	e2833003 	add	r3, r3, #3
 c000f2c:	e5d33000 	ldrb	r3, [r3]
 c000f30:	e1a03203 	lsl	r3, r3, #4
	{
		for (j = 0; j < Stru_Bitmap.usWidth; j+=2)
		{
			if ((x + j)%2)
			{
				ucCursorBackUp[i][j/2] =
 c000f34:	e20310ff 	and	r1, r3, #255	; 0xff
				(((*(INT8U*)(LCD_ACTIVE_BUFFER + (y + i) * SCR_XSIZE / 2 + (x + j) / 8 * 4  + 3 - ((x + j)%8) / 2)) << 4) & 0xf0) + 
				(((*(INT8U*)(LCD_ACTIVE_BUFFER + (y + i) * SCR_XSIZE / 2 + (x + j+1) / 8 * 4  + 3 - ((x + j+1)%8) / 2)) >> 4) & 0x0f);
 c000f38:	e15b21b8 	ldrh	r2, [fp, #-24]	; 0xffffffe8
 c000f3c:	e51b3010 	ldr	r3, [fp, #-16]
 c000f40:	e0822003 	add	r2, r2, r3
 c000f44:	e1a03002 	mov	r3, r2
 c000f48:	e1a03103 	lsl	r3, r3, #2
 c000f4c:	e0833002 	add	r3, r3, r2
 c000f50:	e1a03303 	lsl	r3, r3, #6
 c000f54:	e1a020a3 	lsr	r2, r3, #1
 c000f58:	e15b01b6 	ldrh	r0, [fp, #-22]	; 0xffffffea
 c000f5c:	e51b3014 	ldr	r3, [fp, #-20]	; 0xffffffec
 c000f60:	e0803003 	add	r3, r0, r3
 c000f64:	e2833001 	add	r3, r3, #1
 c000f68:	e1a031a3 	lsr	r3, r3, #3
 c000f6c:	e1a03103 	lsl	r3, r3, #2
 c000f70:	e0822003 	add	r2, r2, r3
 c000f74:	e15b01b6 	ldrh	r0, [fp, #-22]	; 0xffffffea
 c000f78:	e51b3014 	ldr	r3, [fp, #-20]	; 0xffffffec
 c000f7c:	e0803003 	add	r3, r0, r3
 c000f80:	e2833001 	add	r3, r3, #1
 c000f84:	e2033007 	and	r3, r3, #7
 c000f88:	e1a030a3 	lsr	r3, r3, #1
 c000f8c:	e2633000 	rsb	r3, r3, #0
 c000f90:	e0823003 	add	r3, r2, r3
 c000f94:	e28336c3 	add	r3, r3, #204472320	; 0xc300000
 c000f98:	e2833003 	add	r3, r3, #3
 c000f9c:	e5d33000 	ldrb	r3, [r3]
	{
		for (j = 0; j < Stru_Bitmap.usWidth; j+=2)
		{
			if ((x + j)%2)
			{
				ucCursorBackUp[i][j/2] =
 c000fa0:	e1a03223 	lsr	r3, r3, #4
 c000fa4:	e20330ff 	and	r3, r3, #255	; 0xff
 c000fa8:	e0813003 	add	r3, r1, r3
 c000fac:	e20310ff 	and	r1, r3, #255	; 0xff
 c000fb0:	e59f0108 	ldr	r0, [pc, #264]	; c0010c0 <BitmapPush+0x268>
 c000fb4:	e51b2010 	ldr	r2, [fp, #-16]
 c000fb8:	e1a03002 	mov	r3, r2
 c000fbc:	e1a03083 	lsl	r3, r3, #1
 c000fc0:	e0833002 	add	r3, r3, r2
 c000fc4:	e1a03083 	lsl	r3, r3, #1
 c000fc8:	e083300c 	add	r3, r3, ip
 c000fcc:	e0803003 	add	r3, r0, r3
 c000fd0:	e1a02001 	mov	r2, r1
 c000fd4:	e5c32000 	strb	r2, [r3]
 c000fd8:	ea000023 	b	c00106c <BitmapPush+0x214>
				(((*(INT8U*)(LCD_ACTIVE_BUFFER + (y + i) * SCR_XSIZE / 2 + (x + j) / 8 * 4  + 3 - ((x + j)%8) / 2)) << 4) & 0xf0) + 
				(((*(INT8U*)(LCD_ACTIVE_BUFFER + (y + i) * SCR_XSIZE / 2 + (x + j+1) / 8 * 4  + 3 - ((x + j+1)%8) / 2)) >> 4) & 0x0f);
			}
			else
			{
				ucCursorBackUp[i][j/2] = (*(INT8U*)(LCD_ACTIVE_BUFFER + (y + i) * SCR_XSIZE / 2 + (x + j) / 8 * 4  + 3 - ((x + j)%8) / 2));
 c000fdc:	e51b3014 	ldr	r3, [fp, #-20]	; 0xffffffec
 c000fe0:	e1a0c0a3 	lsr	ip, r3, #1
 c000fe4:	e15b21b8 	ldrh	r2, [fp, #-24]	; 0xffffffe8
 c000fe8:	e51b3010 	ldr	r3, [fp, #-16]
 c000fec:	e0822003 	add	r2, r2, r3
 c000ff0:	e1a03002 	mov	r3, r2
 c000ff4:	e1a03103 	lsl	r3, r3, #2
 c000ff8:	e0833002 	add	r3, r3, r2
 c000ffc:	e1a03303 	lsl	r3, r3, #6
 c001000:	e1a020a3 	lsr	r2, r3, #1
 c001004:	e15b11b6 	ldrh	r1, [fp, #-22]	; 0xffffffea
 c001008:	e51b3014 	ldr	r3, [fp, #-20]	; 0xffffffec
 c00100c:	e0813003 	add	r3, r1, r3
 c001010:	e1a031a3 	lsr	r3, r3, #3
 c001014:	e1a03103 	lsl	r3, r3, #2
 c001018:	e0822003 	add	r2, r2, r3
 c00101c:	e15b11b6 	ldrh	r1, [fp, #-22]	; 0xffffffea
 c001020:	e51b3014 	ldr	r3, [fp, #-20]	; 0xffffffec
 c001024:	e0813003 	add	r3, r1, r3
 c001028:	e2033007 	and	r3, r3, #7
 c00102c:	e1a030a3 	lsr	r3, r3, #1
 c001030:	e2633000 	rsb	r3, r3, #0
 c001034:	e0823003 	add	r3, r2, r3
 c001038:	e28336c3 	add	r3, r3, #204472320	; 0xc300000
 c00103c:	e2833003 	add	r3, r3, #3
 c001040:	e5d31000 	ldrb	r1, [r3]
 c001044:	e59f0074 	ldr	r0, [pc, #116]	; c0010c0 <BitmapPush+0x268>
 c001048:	e51b2010 	ldr	r2, [fp, #-16]
 c00104c:	e1a03002 	mov	r3, r2
 c001050:	e1a03083 	lsl	r3, r3, #1
 c001054:	e0833002 	add	r3, r3, r2
 c001058:	e1a03083 	lsl	r3, r3, #1
 c00105c:	e083300c 	add	r3, r3, ip
 c001060:	e0803003 	add	r3, r0, r3
 c001064:	e1a02001 	mov	r2, r1
 c001068:	e5c32000 	strb	r2, [r3]

	ulMouseX = x; 
	ulMouseY = y;
	for (i =  0; i < Stru_Bitmap.usHeight; i++)
	{
		for (j = 0; j < Stru_Bitmap.usWidth; j+=2)
 c00106c:	e51b3014 	ldr	r3, [fp, #-20]	; 0xffffffec
 c001070:	e2833002 	add	r3, r3, #2
 c001074:	e50b3014 	str	r3, [fp, #-20]	; 0xffffffec
 c001078:	e1db30b6 	ldrh	r3, [fp, #6]
 c00107c:	e1a02003 	mov	r2, r3
 c001080:	e51b3014 	ldr	r3, [fp, #-20]	; 0xffffffec
 c001084:	e1520003 	cmp	r2, r3
 c001088:	8affff87 	bhi	c000eac <BitmapPush+0x54>
{
	INT32U i, j;

	ulMouseX = x; 
	ulMouseY = y;
	for (i =  0; i < Stru_Bitmap.usHeight; i++)
 c00108c:	e51b3010 	ldr	r3, [fp, #-16]
 c001090:	e2833001 	add	r3, r3, #1
 c001094:	e50b3010 	str	r3, [fp, #-16]
 c001098:	e1db30b8 	ldrh	r3, [fp, #8]
 c00109c:	e1a02003 	mov	r2, r3
 c0010a0:	e51b3010 	ldr	r3, [fp, #-16]
 c0010a4:	e1520003 	cmp	r2, r3
 c0010a8:	8affff7c 	bhi	c000ea0 <BitmapPush+0x48>
			{
				ucCursorBackUp[i][j/2] = (*(INT8U*)(LCD_ACTIVE_BUFFER + (y + i) * SCR_XSIZE / 2 + (x + j) / 8 * 4  + 3 - ((x + j)%8) / 2));
			}
		}
	}
}
 c0010ac:	e24bd00c 	sub	sp, fp, #12
 c0010b0:	e89d6800 	ldm	sp, {fp, sp, lr}
 c0010b4:	e12fff1e 	bx	lr
 c0010b8:	0c007686 	.word	0x0c007686
 c0010bc:	0c007684 	.word	0x0c007684
 c0010c0:	0c00760c 	.word	0x0c00760c

0c0010c4 <BitmapPop>:
* ret:		none
* modify:
* comment:		
*********************************************************************************************/
void BitmapPop(INT16U x, INT16U y, STRU_BITMAP Stru_Bitmap)
{
 c0010c4:	e1a0c00d 	mov	ip, sp
 c0010c8:	e24dd008 	sub	sp, sp, #8
 c0010cc:	e92dd810 	push	{r4, fp, ip, lr, pc}
 c0010d0:	e24cb00c 	sub	fp, ip, #12
 c0010d4:	e24dd01c 	sub	sp, sp, #28
 c0010d8:	e28bc004 	add	ip, fp, #4
 c0010dc:	e88c000c 	stm	ip, {r2, r3}
 c0010e0:	e14b02b6 	strh	r0, [fp, #-38]	; 0xffffffda
 c0010e4:	e14b12b8 	strh	r1, [fp, #-40]	; 0xffffffd8
	INT32U i, j;
	INT32U ulAddr, ulAddr1;

	for (i =  0; i < Stru_Bitmap.usHeight; i++)
 c0010e8:	e3a03000 	mov	r3, #0
 c0010ec:	e50b3018 	str	r3, [fp, #-24]	; 0xffffffe8
 c0010f0:	ea00008d 	b	c00132c <BitmapPop+0x268>
	{
		for (j = 0; j <Stru_Bitmap.usWidth; j+=2)
 c0010f4:	e3a03000 	mov	r3, #0
 c0010f8:	e50b301c 	str	r3, [fp, #-28]	; 0xffffffe4
 c0010fc:	ea000082 	b	c00130c <BitmapPop+0x248>
		{
			ulAddr = LCD_ACTIVE_BUFFER + (y + i) * SCR_XSIZE / 2 + (x + j) / 8 * 4 + 3 - ((x + j)%8) / 2;
 c001100:	e15b22b8 	ldrh	r2, [fp, #-40]	; 0xffffffd8
 c001104:	e51b3018 	ldr	r3, [fp, #-24]	; 0xffffffe8
 c001108:	e0822003 	add	r2, r2, r3
 c00110c:	e1a03002 	mov	r3, r2
 c001110:	e1a03103 	lsl	r3, r3, #2
 c001114:	e0833002 	add	r3, r3, r2
 c001118:	e1a03303 	lsl	r3, r3, #6
 c00111c:	e1a020a3 	lsr	r2, r3, #1
 c001120:	e15b12b6 	ldrh	r1, [fp, #-38]	; 0xffffffda
 c001124:	e51b301c 	ldr	r3, [fp, #-28]	; 0xffffffe4
 c001128:	e0813003 	add	r3, r1, r3
 c00112c:	e1a031a3 	lsr	r3, r3, #3
 c001130:	e1a03103 	lsl	r3, r3, #2
 c001134:	e0822003 	add	r2, r2, r3
 c001138:	e15b12b6 	ldrh	r1, [fp, #-38]	; 0xffffffda
 c00113c:	e51b301c 	ldr	r3, [fp, #-28]	; 0xffffffe4
 c001140:	e0813003 	add	r3, r1, r3
 c001144:	e2033007 	and	r3, r3, #7
 c001148:	e1a030a3 	lsr	r3, r3, #1
 c00114c:	e2633000 	rsb	r3, r3, #0
 c001150:	e0823003 	add	r3, r2, r3
 c001154:	e28336c3 	add	r3, r3, #204472320	; 0xc300000
 c001158:	e2833003 	add	r3, r3, #3
 c00115c:	e50b3020 	str	r3, [fp, #-32]	; 0xffffffe0
			ulAddr1 =LCD_ACTIVE_BUFFER + (y + i) * SCR_XSIZE / 2 + (x + j + 1) / 8 * 4 + 3 - ((x + j + 1)%8) / 2;
 c001160:	e15b22b8 	ldrh	r2, [fp, #-40]	; 0xffffffd8
 c001164:	e51b3018 	ldr	r3, [fp, #-24]	; 0xffffffe8
 c001168:	e0822003 	add	r2, r2, r3
 c00116c:	e1a03002 	mov	r3, r2
 c001170:	e1a03103 	lsl	r3, r3, #2
 c001174:	e0833002 	add	r3, r3, r2
 c001178:	e1a03303 	lsl	r3, r3, #6
 c00117c:	e1a020a3 	lsr	r2, r3, #1
 c001180:	e15b12b6 	ldrh	r1, [fp, #-38]	; 0xffffffda
 c001184:	e51b301c 	ldr	r3, [fp, #-28]	; 0xffffffe4
 c001188:	e0813003 	add	r3, r1, r3
 c00118c:	e2833001 	add	r3, r3, #1
 c001190:	e1a031a3 	lsr	r3, r3, #3
 c001194:	e1a03103 	lsl	r3, r3, #2
 c001198:	e0822003 	add	r2, r2, r3
 c00119c:	e15b12b6 	ldrh	r1, [fp, #-38]	; 0xffffffda
 c0011a0:	e51b301c 	ldr	r3, [fp, #-28]	; 0xffffffe4
 c0011a4:	e0813003 	add	r3, r1, r3
 c0011a8:	e2833001 	add	r3, r3, #1
 c0011ac:	e2033007 	and	r3, r3, #7
 c0011b0:	e1a030a3 	lsr	r3, r3, #1
 c0011b4:	e2633000 	rsb	r3, r3, #0
 c0011b8:	e0823003 	add	r3, r2, r3
 c0011bc:	e28336c3 	add	r3, r3, #204472320	; 0xc300000
 c0011c0:	e2833003 	add	r3, r3, #3
 c0011c4:	e50b3024 	str	r3, [fp, #-36]	; 0xffffffdc
			if ((x + j)%2)
 c0011c8:	e15b22b6 	ldrh	r2, [fp, #-38]	; 0xffffffda
 c0011cc:	e51b301c 	ldr	r3, [fp, #-28]	; 0xffffffe4
 c0011d0:	e0823003 	add	r3, r2, r3
 c0011d4:	e2033001 	and	r3, r3, #1
 c0011d8:	e20330ff 	and	r3, r3, #255	; 0xff
 c0011dc:	e3530000 	cmp	r3, #0
 c0011e0:	0a000039 	beq	c0012cc <BitmapPop+0x208>
			{
				
				(*(INT8U*)ulAddr) &= 0xf0;
 c0011e4:	e51b3020 	ldr	r3, [fp, #-32]	; 0xffffffe0
 c0011e8:	e51b2020 	ldr	r2, [fp, #-32]	; 0xffffffe0
 c0011ec:	e5d22000 	ldrb	r2, [r2]
 c0011f0:	e3c2200f 	bic	r2, r2, #15
 c0011f4:	e20220ff 	and	r2, r2, #255	; 0xff
 c0011f8:	e5c32000 	strb	r2, [r3]
				(*(INT8U*)ulAddr) |= ((ucCursorBackUp[i][j/2] >> 4) & 0x0f);
 c0011fc:	e51b1020 	ldr	r1, [fp, #-32]	; 0xffffffe0
 c001200:	e51b3020 	ldr	r3, [fp, #-32]	; 0xffffffe0
 c001204:	e5d33000 	ldrb	r3, [r3]
 c001208:	e20300ff 	and	r0, r3, #255	; 0xff
 c00120c:	e51b301c 	ldr	r3, [fp, #-28]	; 0xffffffe4
 c001210:	e1a040a3 	lsr	r4, r3, #1
 c001214:	e59fc130 	ldr	ip, [pc, #304]	; c00134c <BitmapPop+0x288>
 c001218:	e51b2018 	ldr	r2, [fp, #-24]	; 0xffffffe8
 c00121c:	e1a03002 	mov	r3, r2
 c001220:	e1a03083 	lsl	r3, r3, #1
 c001224:	e0833002 	add	r3, r3, r2
 c001228:	e1a03083 	lsl	r3, r3, #1
 c00122c:	e0833004 	add	r3, r3, r4
 c001230:	e08c3003 	add	r3, ip, r3
 c001234:	e5d33000 	ldrb	r3, [r3]
 c001238:	e1a03223 	lsr	r3, r3, #4
 c00123c:	e20330ff 	and	r3, r3, #255	; 0xff
 c001240:	e20330ff 	and	r3, r3, #255	; 0xff
 c001244:	e1a02000 	mov	r2, r0
 c001248:	e1823003 	orr	r3, r2, r3
 c00124c:	e20330ff 	and	r3, r3, #255	; 0xff
 c001250:	e20330ff 	and	r3, r3, #255	; 0xff
 c001254:	e5c13000 	strb	r3, [r1]
				(*(INT8U*)ulAddr1) &= 0x0f;
 c001258:	e51b3024 	ldr	r3, [fp, #-36]	; 0xffffffdc
 c00125c:	e51b2024 	ldr	r2, [fp, #-36]	; 0xffffffdc
 c001260:	e5d22000 	ldrb	r2, [r2]
 c001264:	e202200f 	and	r2, r2, #15
 c001268:	e20220ff 	and	r2, r2, #255	; 0xff
 c00126c:	e5c32000 	strb	r2, [r3]
				(*(INT8U*)ulAddr1) |= ((ucCursorBackUp[i][j/2] << 4) & 0xf0);
 c001270:	e51b1024 	ldr	r1, [fp, #-36]	; 0xffffffdc
 c001274:	e51b3024 	ldr	r3, [fp, #-36]	; 0xffffffdc
 c001278:	e5d33000 	ldrb	r3, [r3]
 c00127c:	e20300ff 	and	r0, r3, #255	; 0xff
 c001280:	e51b301c 	ldr	r3, [fp, #-28]	; 0xffffffe4
 c001284:	e1a040a3 	lsr	r4, r3, #1
 c001288:	e59fc0bc 	ldr	ip, [pc, #188]	; c00134c <BitmapPop+0x288>
 c00128c:	e51b2018 	ldr	r2, [fp, #-24]	; 0xffffffe8
 c001290:	e1a03002 	mov	r3, r2
 c001294:	e1a03083 	lsl	r3, r3, #1
 c001298:	e0833002 	add	r3, r3, r2
 c00129c:	e1a03083 	lsl	r3, r3, #1
 c0012a0:	e0833004 	add	r3, r3, r4
 c0012a4:	e08c3003 	add	r3, ip, r3
 c0012a8:	e5d33000 	ldrb	r3, [r3]
 c0012ac:	e1a03203 	lsl	r3, r3, #4
 c0012b0:	e20330ff 	and	r3, r3, #255	; 0xff
 c0012b4:	e1a02000 	mov	r2, r0
 c0012b8:	e1823003 	orr	r3, r2, r3
 c0012bc:	e20330ff 	and	r3, r3, #255	; 0xff
 c0012c0:	e20330ff 	and	r3, r3, #255	; 0xff
 c0012c4:	e5c13000 	strb	r3, [r1]
 c0012c8:	ea00000c 	b	c001300 <BitmapPop+0x23c>
			}
			else
			{
				(*(INT8U*)ulAddr) = ucCursorBackUp[i][j/2];
 c0012cc:	e51b1020 	ldr	r1, [fp, #-32]	; 0xffffffe0
 c0012d0:	e51b301c 	ldr	r3, [fp, #-28]	; 0xffffffe4
 c0012d4:	e1a0c0a3 	lsr	ip, r3, #1
 c0012d8:	e59f006c 	ldr	r0, [pc, #108]	; c00134c <BitmapPop+0x288>
 c0012dc:	e51b2018 	ldr	r2, [fp, #-24]	; 0xffffffe8
 c0012e0:	e1a03002 	mov	r3, r2
 c0012e4:	e1a03083 	lsl	r3, r3, #1
 c0012e8:	e0833002 	add	r3, r3, r2
 c0012ec:	e1a03083 	lsl	r3, r3, #1
 c0012f0:	e083300c 	add	r3, r3, ip
 c0012f4:	e0803003 	add	r3, r0, r3
 c0012f8:	e5d33000 	ldrb	r3, [r3]
 c0012fc:	e5c13000 	strb	r3, [r1]
	INT32U i, j;
	INT32U ulAddr, ulAddr1;

	for (i =  0; i < Stru_Bitmap.usHeight; i++)
	{
		for (j = 0; j <Stru_Bitmap.usWidth; j+=2)
 c001300:	e51b301c 	ldr	r3, [fp, #-28]	; 0xffffffe4
 c001304:	e2833002 	add	r3, r3, #2
 c001308:	e50b301c 	str	r3, [fp, #-28]	; 0xffffffe4
 c00130c:	e1db30b6 	ldrh	r3, [fp, #6]
 c001310:	e1a02003 	mov	r2, r3
 c001314:	e51b301c 	ldr	r3, [fp, #-28]	; 0xffffffe4
 c001318:	e1520003 	cmp	r2, r3
 c00131c:	8affff77 	bhi	c001100 <BitmapPop+0x3c>
void BitmapPop(INT16U x, INT16U y, STRU_BITMAP Stru_Bitmap)
{
	INT32U i, j;
	INT32U ulAddr, ulAddr1;

	for (i =  0; i < Stru_Bitmap.usHeight; i++)
 c001320:	e51b3018 	ldr	r3, [fp, #-24]	; 0xffffffe8
 c001324:	e2833001 	add	r3, r3, #1
 c001328:	e50b3018 	str	r3, [fp, #-24]	; 0xffffffe8
 c00132c:	e1db30b8 	ldrh	r3, [fp, #8]
 c001330:	e1a02003 	mov	r2, r3
 c001334:	e51b3018 	ldr	r3, [fp, #-24]	; 0xffffffe8
 c001338:	e1520003 	cmp	r2, r3
 c00133c:	8affff6c 	bhi	c0010f4 <BitmapPop+0x30>
				(*(INT8U*)ulAddr) = ucCursorBackUp[i][j/2];
			}
			
		}
	}
}
 c001340:	e24bd010 	sub	sp, fp, #16
 c001344:	e89d6810 	ldm	sp, {r4, fp, sp, lr}
 c001348:	e12fff1e 	bx	lr
 c00134c:	0c00760c 	.word	0x0c00760c

0c001350 <CursorInit>:
* ret:		none
* modify:
* comment:		
*********************************************************************************************/
void CursorInit(void)
{
 c001350:	e1a0c00d 	mov	ip, sp
 c001354:	e92dd800 	push	{fp, ip, lr, pc}
 c001358:	e24cb004 	sub	fp, ip, #4
	ulMouseX = 0;
 c00135c:	e59f3038 	ldr	r3, [pc, #56]	; c00139c <CursorInit+0x4c>
 c001360:	e3a02000 	mov	r2, #0
 c001364:	e1c320b0 	strh	r2, [r3]
	ulMouseY = 0;
 c001368:	e59f3030 	ldr	r3, [pc, #48]	; c0013a0 <CursorInit+0x50>
 c00136c:	e3a02000 	mov	r2, #0
 c001370:	e1c320b0 	strh	r2, [r3]
	CursorView(ulMouseX, ulMouseY);
 c001374:	e59f3020 	ldr	r3, [pc, #32]	; c00139c <CursorInit+0x4c>
 c001378:	e1d320b0 	ldrh	r2, [r3]
 c00137c:	e59f301c 	ldr	r3, [pc, #28]	; c0013a0 <CursorInit+0x50>
 c001380:	e1d330b0 	ldrh	r3, [r3]
 c001384:	e1a00002 	mov	r0, r2
 c001388:	e1a01003 	mov	r1, r3
 c00138c:	eb000032 	bl	c00145c <CursorView>
}
 c001390:	e24bd00c 	sub	sp, fp, #12
 c001394:	e89d6800 	ldm	sp, {fp, sp, lr}
 c001398:	e12fff1e 	bx	lr
 c00139c:	0c007686 	.word	0x0c007686
 c0013a0:	0c007684 	.word	0x0c007684

0c0013a4 <CursorPush>:
* ret:		none
* modify:
* comment:		
*********************************************************************************************/
void CursorPush(INT16U x, INT16U y)
{
 c0013a4:	e1a0c00d 	mov	ip, sp
 c0013a8:	e92dd800 	push	{fp, ip, lr, pc}
 c0013ac:	e24cb004 	sub	fp, ip, #4
 c0013b0:	e24dd010 	sub	sp, sp, #16
 c0013b4:	e1a02000 	mov	r2, r0
 c0013b8:	e1a03001 	mov	r3, r1
 c0013bc:	e14b20be 	strh	r2, [fp, #-14]
 c0013c0:	e14b31b0 	strh	r3, [fp, #-16]
	BitmapPush(x, y, Stru_Bitmap_gbMouse);
 c0013c4:	e15be0be 	ldrh	lr, [fp, #-14]
 c0013c8:	e15bc1b0 	ldrh	ip, [fp, #-16]
 c0013cc:	e59f3028 	ldr	r3, [pc, #40]	; c0013fc <CursorPush+0x58>
 c0013d0:	e1a0200d 	mov	r2, sp
 c0013d4:	e2831008 	add	r1, r3, #8
 c0013d8:	e8910003 	ldm	r1, {r0, r1}
 c0013dc:	e8820003 	stm	r2, {r0, r1}
 c0013e0:	e893000c 	ldm	r3, {r2, r3}
 c0013e4:	e1a0000e 	mov	r0, lr
 c0013e8:	e1a0100c 	mov	r1, ip
 c0013ec:	ebfffe99 	bl	c000e58 <BitmapPush>
}
 c0013f0:	e24bd00c 	sub	sp, fp, #12
 c0013f4:	e89d6800 	ldm	sp, {fp, sp, lr}
 c0013f8:	e12fff1e 	bx	lr
 c0013fc:	0c006210 	.word	0x0c006210

0c001400 <CursorPop>:
* ret:		none
* modify:
* comment:		
*********************************************************************************************/
void CursorPop()
{
 c001400:	e1a0c00d 	mov	ip, sp
 c001404:	e92dd800 	push	{fp, ip, lr, pc}
 c001408:	e24cb004 	sub	fp, ip, #4
 c00140c:	e24dd008 	sub	sp, sp, #8
	BitmapPop(ulMouseX, ulMouseY, Stru_Bitmap_gbMouse);
 c001410:	e59f3038 	ldr	r3, [pc, #56]	; c001450 <CursorPop+0x50>
 c001414:	e1d3e0b0 	ldrh	lr, [r3]
 c001418:	e59f3034 	ldr	r3, [pc, #52]	; c001454 <CursorPop+0x54>
 c00141c:	e1d3c0b0 	ldrh	ip, [r3]
 c001420:	e59f3030 	ldr	r3, [pc, #48]	; c001458 <CursorPop+0x58>
 c001424:	e1a0200d 	mov	r2, sp
 c001428:	e2831008 	add	r1, r3, #8
 c00142c:	e8910003 	ldm	r1, {r0, r1}
 c001430:	e8820003 	stm	r2, {r0, r1}
 c001434:	e893000c 	ldm	r3, {r2, r3}
 c001438:	e1a0000e 	mov	r0, lr
 c00143c:	e1a0100c 	mov	r1, ip
 c001440:	ebffff1f 	bl	c0010c4 <BitmapPop>
}
 c001444:	e24bd00c 	sub	sp, fp, #12
 c001448:	e89d6800 	ldm	sp, {fp, sp, lr}
 c00144c:	e12fff1e 	bx	lr
 c001450:	0c007686 	.word	0x0c007686
 c001454:	0c007684 	.word	0x0c007684
 c001458:	0c006210 	.word	0x0c006210

0c00145c <CursorView>:
* ret:		none
* modify:
* comment:		
*********************************************************************************************/
void CursorView(INT16U x, INT16U y)
{
 c00145c:	e1a0c00d 	mov	ip, sp
 c001460:	e92dd800 	push	{fp, ip, lr, pc}
 c001464:	e24cb004 	sub	fp, ip, #4
 c001468:	e24dd010 	sub	sp, sp, #16
 c00146c:	e1a02000 	mov	r2, r0
 c001470:	e1a03001 	mov	r3, r1
 c001474:	e14b20be 	strh	r2, [fp, #-14]
 c001478:	e14b31b0 	strh	r3, [fp, #-16]
	CursorPush(x, y);
 c00147c:	e15b20be 	ldrh	r2, [fp, #-14]
 c001480:	e15b31b0 	ldrh	r3, [fp, #-16]
 c001484:	e1a00002 	mov	r0, r2
 c001488:	e1a01003 	mov	r1, r3
 c00148c:	ebffffc4 	bl	c0013a4 <CursorPush>
	BitmapView(x, y, Stru_Bitmap_gbMouse);
 c001490:	e15be0be 	ldrh	lr, [fp, #-14]
 c001494:	e15bc1b0 	ldrh	ip, [fp, #-16]
 c001498:	e59f3028 	ldr	r3, [pc, #40]	; c0014c8 <CursorView+0x6c>
 c00149c:	e1a0200d 	mov	r2, sp
 c0014a0:	e2831008 	add	r1, r3, #8
 c0014a4:	e8910003 	ldm	r1, {r0, r1}
 c0014a8:	e8820003 	stm	r2, {r0, r1}
 c0014ac:	e893000c 	ldm	r3, {r2, r3}
 c0014b0:	e1a0000e 	mov	r0, lr
 c0014b4:	e1a0100c 	mov	r1, ip
 c0014b8:	ebfffe03 	bl	c000ccc <BitmapView>
}
 c0014bc:	e24bd00c 	sub	sp, fp, #12
 c0014c0:	e89d6800 	ldm	sp, {fp, sp, lr}
 c0014c4:	e12fff1e 	bx	lr
 c0014c8:	0c006210 	.word	0x0c006210

0c0014cc <Eint4567_init>:
void iniciarEspera(unsigned int trp, unsigned int trd);
int esperaFinalizada(void);

/*--- codigo de funciones ---*/
void Eint4567_init(void)
{
 c0014cc:	e1a0c00d 	mov	ip, sp
 c0014d0:	e92dd800 	push	{fp, ip, lr, pc}
 c0014d4:	e24cb004 	sub	fp, ip, #4
	/* Configuracion del controlador de interrupciones. Estos registros estn definidos en 44b.h */
	rI_ISPC    = 0x3ffffff;	// Borra INTPND escribiendo 1s en I_ISPC
 c0014d8:	e59f309c 	ldr	r3, [pc, #156]	; c00157c <Eint4567_init+0xb0>
 c0014dc:	e3e0233f 	mvn	r2, #-67108864	; 0xfc000000
 c0014e0:	e5832000 	str	r2, [r3]
	rEXTINTPND = 0xf;       // Borra EXTINTPND escribiendo 1s en el propio registro
 c0014e4:	e59f3094 	ldr	r3, [pc, #148]	; c001580 <Eint4567_init+0xb4>
 c0014e8:	e3a0200f 	mov	r2, #15
 c0014ec:	e5832000 	str	r2, [r3]
	rINTMOD    = 0x0;		// Configura las linas como de tipo IRQ
 c0014f0:	e59f308c 	ldr	r3, [pc, #140]	; c001584 <Eint4567_init+0xb8>
 c0014f4:	e3a02000 	mov	r2, #0
 c0014f8:	e5832000 	str	r2, [r3]
	rINTCON    = 0x1;	    // Habilita int. vectorizadas y la linea IRQ (FIQ no)
 c0014fc:	e3a0361e 	mov	r3, #31457280	; 0x1e00000
 c001500:	e3a02001 	mov	r2, #1
 c001504:	e5832000 	str	r2, [r3]
	rINTMSK    = ~(BIT_GLOBAL | BIT_EINT4567 | BIT_TIMER0 | BIT_TIMER2); // Enmascara todas las lineas excepto eint4567, el bit global y el timer0
 c001508:	e59f3078 	ldr	r3, [pc, #120]	; c001588 <Eint4567_init+0xbc>
 c00150c:	e59f2078 	ldr	r2, [pc, #120]	; c00158c <Eint4567_init+0xc0>
 c001510:	e5832000 	str	r2, [r3]

	/* Establece la rutina de servicio para Eint4567 */
	pISR_EINT4567 = (int)Eint4567_ISR;
 c001514:	e59f3074 	ldr	r3, [pc, #116]	; c001590 <Eint4567_init+0xc4>
 c001518:	e59f2074 	ldr	r2, [pc, #116]	; c001594 <Eint4567_init+0xc8>
 c00151c:	e5832000 	str	r2, [r3]

	/* Configuracion del puerto G */
	rPCONG  = 0xffff;        		// Establece la funcion de los pines (EINT0-7)
 c001520:	e59f3070 	ldr	r3, [pc, #112]	; c001598 <Eint4567_init+0xcc>
 c001524:	e59f2070 	ldr	r2, [pc, #112]	; c00159c <Eint4567_init+0xd0>
 c001528:	e5832000 	str	r2, [r3]
	rPUPG   = 0x0;                  // Habilita el "pull up" del puerto
 c00152c:	e59f306c 	ldr	r3, [pc, #108]	; c0015a0 <Eint4567_init+0xd4>
 c001530:	e3a02000 	mov	r2, #0
 c001534:	e5832000 	str	r2, [r3]
	rEXTINT = rEXTINT | 0x22222222;   // Configura las lineas de int. como de flanco de bajada
 c001538:	e59f2064 	ldr	r2, [pc, #100]	; c0015a4 <Eint4567_init+0xd8>
 c00153c:	e59f3060 	ldr	r3, [pc, #96]	; c0015a4 <Eint4567_init+0xd8>
 c001540:	e5931000 	ldr	r1, [r3]
 c001544:	e59f305c 	ldr	r3, [pc, #92]	; c0015a8 <Eint4567_init+0xdc>
 c001548:	e1813003 	orr	r3, r1, r3
 c00154c:	e5823000 	str	r3, [r2]

	/* Por precaucion, se vuelven a borrar los bits de INTPND y EXTINTPND */
	rI_ISPC    |= (BIT_EINT4567);
 c001550:	e59f3024 	ldr	r3, [pc, #36]	; c00157c <Eint4567_init+0xb0>
 c001554:	e59f2020 	ldr	r2, [pc, #32]	; c00157c <Eint4567_init+0xb0>
 c001558:	e5922000 	ldr	r2, [r2]
 c00155c:	e3822602 	orr	r2, r2, #2097152	; 0x200000
 c001560:	e5832000 	str	r2, [r3]
	rEXTINTPND = 0xf;
 c001564:	e59f3014 	ldr	r3, [pc, #20]	; c001580 <Eint4567_init+0xb4>
 c001568:	e3a0200f 	mov	r2, #15
 c00156c:	e5832000 	str	r2, [r3]
}
 c001570:	e24bd00c 	sub	sp, fp, #12
 c001574:	e89d6800 	ldm	sp, {fp, sp, lr}
 c001578:	e12fff1e 	bx	lr
 c00157c:	01e00024 	.word	0x01e00024
 c001580:	01d20054 	.word	0x01d20054
 c001584:	01e00008 	.word	0x01e00008
 c001588:	01e0000c 	.word	0x01e0000c
 c00158c:	fbdfd7ff 	.word	0xfbdfd7ff
 c001590:	0c7fff74 	.word	0x0c7fff74
 c001594:	0c0015ac 	.word	0x0c0015ac
 c001598:	01d20040 	.word	0x01d20040
 c00159c:	0000ffff 	.word	0x0000ffff
 c0015a0:	01d20048 	.word	0x01d20048
 c0015a4:	01d20050 	.word	0x01d20050
 c0015a8:	22222222 	.word	0x22222222

0c0015ac <Eint4567_ISR>:

void Eint4567_ISR(void)
{
 c0015ac:	e52dc004 	push	{ip}		; (str ip, [sp, #-4]!)
 c0015b0:	e1a0c00d 	mov	ip, sp
 c0015b4:	e92dd80f 	push	{r0, r1, r2, r3, fp, ip, lr, pc}
 c0015b8:	e24cb004 	sub	fp, ip, #4
 c0015bc:	e24dd008 	sub	sp, sp, #8
	rINTMSK ^= BIT_EINT4567;
 c0015c0:	e59f32f0 	ldr	r3, [pc, #752]	; c0018b8 <Eint4567_ISR+0x30c>
 c0015c4:	e59f22ec 	ldr	r2, [pc, #748]	; c0018b8 <Eint4567_ISR+0x30c>
 c0015c8:	e5922000 	ldr	r2, [r2]
 c0015cc:	e2222602 	eor	r2, r2, #2097152	; 0x200000
 c0015d0:	e5832000 	str	r2, [r3]
	push_debug(0x12,0x0);
 c0015d4:	e3a00012 	mov	r0, #18
 c0015d8:	e3a01000 	mov	r1, #0
 c0015dc:	eb000ebb 	bl	c0050d0 <push_debug>
	/* Identificar la interrupcion (hay dos pulsadores)*/
	int which_int = rEXTINTPND;
 c0015e0:	e59f32d4 	ldr	r3, [pc, #724]	; c0018bc <Eint4567_ISR+0x310>
 c0015e4:	e5933000 	ldr	r3, [r3]
 c0015e8:	e50b3020 	str	r3, [fp, #-32]	; 0xffffffe0
	switch (which_int)
 c0015ec:	e51b3020 	ldr	r3, [fp, #-32]	; 0xffffffe0
 c0015f0:	e3530004 	cmp	r3, #4
 c0015f4:	0a000002 	beq	c001604 <Eint4567_ISR+0x58>
 c0015f8:	e3530008 	cmp	r3, #8
 c0015fc:	0a00004e 	beq	c00173c <Eint4567_ISR+0x190>
 c001600:	ea000095 	b	c00185c <Eint4567_ISR+0x2b0>
	{
		case 4:
//			mantener = 0;
			if (state == 0) {
 c001604:	e59f32b4 	ldr	r3, [pc, #692]	; c0018c0 <Eint4567_ISR+0x314>
 c001608:	e5933000 	ldr	r3, [r3]
 c00160c:	e3530000 	cmp	r3, #0
 c001610:	1a000007 	bne	c001634 <Eint4567_ISR+0x88>
				state = 1;
 c001614:	e59f32a4 	ldr	r3, [pc, #676]	; c0018c0 <Eint4567_ISR+0x314>
 c001618:	e3a02001 	mov	r2, #1
 c00161c:	e5832000 	str	r2, [r3]
				leds_off();
 c001620:	eb000d9e 	bl	c004ca0 <leds_off>
				int_count = 0xf;
 c001624:	e59f3298 	ldr	r3, [pc, #664]	; c0018c4 <Eint4567_ISR+0x318>
 c001628:	e3a0200f 	mov	r2, #15
 c00162c:	e5832000 	str	r2, [r3]
 c001630:	ea00003d 	b	c00172c <Eint4567_ISR+0x180>
			} else if (state == 1){
 c001634:	e59f3284 	ldr	r3, [pc, #644]	; c0018c0 <Eint4567_ISR+0x314>
 c001638:	e5933000 	ldr	r3, [r3]
 c00163c:	e3530001 	cmp	r3, #1
 c001640:	1a000010 	bne	c001688 <Eint4567_ISR+0xdc>
				fila++;
 c001644:	e59f327c 	ldr	r3, [pc, #636]	; c0018c8 <Eint4567_ISR+0x31c>
 c001648:	e5933000 	ldr	r3, [r3]
 c00164c:	e2832001 	add	r2, r3, #1
 c001650:	e59f3270 	ldr	r3, [pc, #624]	; c0018c8 <Eint4567_ISR+0x31c>
 c001654:	e5832000 	str	r2, [r3]
				if (fila > 10) {
 c001658:	e59f3268 	ldr	r3, [pc, #616]	; c0018c8 <Eint4567_ISR+0x31c>
 c00165c:	e5933000 	ldr	r3, [r3]
 c001660:	e353000a 	cmp	r3, #10
 c001664:	da000002 	ble	c001674 <Eint4567_ISR+0xc8>
					fila = 1;
 c001668:	e59f3258 	ldr	r3, [pc, #600]	; c0018c8 <Eint4567_ISR+0x31c>
 c00166c:	e3a02001 	mov	r2, #1
 c001670:	e5832000 	str	r2, [r3]
				}
				int_count = fila;
 c001674:	e59f324c 	ldr	r3, [pc, #588]	; c0018c8 <Eint4567_ISR+0x31c>
 c001678:	e5932000 	ldr	r2, [r3]
 c00167c:	e59f3240 	ldr	r3, [pc, #576]	; c0018c4 <Eint4567_ISR+0x318>
 c001680:	e5832000 	str	r2, [r3]
 c001684:	ea000028 	b	c00172c <Eint4567_ISR+0x180>
			} else if (state == 2){
 c001688:	e59f3230 	ldr	r3, [pc, #560]	; c0018c0 <Eint4567_ISR+0x314>
 c00168c:	e5933000 	ldr	r3, [r3]
 c001690:	e3530002 	cmp	r3, #2
 c001694:	1a000010 	bne	c0016dc <Eint4567_ISR+0x130>
				columna++;
 c001698:	e59f322c 	ldr	r3, [pc, #556]	; c0018cc <Eint4567_ISR+0x320>
 c00169c:	e5933000 	ldr	r3, [r3]
 c0016a0:	e2832001 	add	r2, r3, #1
 c0016a4:	e59f3220 	ldr	r3, [pc, #544]	; c0018cc <Eint4567_ISR+0x320>
 c0016a8:	e5832000 	str	r2, [r3]
				if (columna > 9) {
 c0016ac:	e59f3218 	ldr	r3, [pc, #536]	; c0018cc <Eint4567_ISR+0x320>
 c0016b0:	e5933000 	ldr	r3, [r3]
 c0016b4:	e3530009 	cmp	r3, #9
 c0016b8:	da000002 	ble	c0016c8 <Eint4567_ISR+0x11c>
					columna = 1;
 c0016bc:	e59f3208 	ldr	r3, [pc, #520]	; c0018cc <Eint4567_ISR+0x320>
 c0016c0:	e3a02001 	mov	r2, #1
 c0016c4:	e5832000 	str	r2, [r3]
				}
				int_count = columna;
 c0016c8:	e59f31fc 	ldr	r3, [pc, #508]	; c0018cc <Eint4567_ISR+0x320>
 c0016cc:	e5932000 	ldr	r2, [r3]
 c0016d0:	e59f31ec 	ldr	r3, [pc, #492]	; c0018c4 <Eint4567_ISR+0x318>
 c0016d4:	e5832000 	str	r2, [r3]
 c0016d8:	ea000013 	b	c00172c <Eint4567_ISR+0x180>
			} else if (state == 3) {
 c0016dc:	e59f31dc 	ldr	r3, [pc, #476]	; c0018c0 <Eint4567_ISR+0x314>
 c0016e0:	e5933000 	ldr	r3, [r3]
 c0016e4:	e3530003 	cmp	r3, #3
 c0016e8:	1a00000f 	bne	c00172c <Eint4567_ISR+0x180>
				valor++;
 c0016ec:	e59f31dc 	ldr	r3, [pc, #476]	; c0018d0 <Eint4567_ISR+0x324>
 c0016f0:	e5933000 	ldr	r3, [r3]
 c0016f4:	e2832001 	add	r2, r3, #1
 c0016f8:	e59f31d0 	ldr	r3, [pc, #464]	; c0018d0 <Eint4567_ISR+0x324>
 c0016fc:	e5832000 	str	r2, [r3]
				if (valor > 9) {
 c001700:	e59f31c8 	ldr	r3, [pc, #456]	; c0018d0 <Eint4567_ISR+0x324>
 c001704:	e5933000 	ldr	r3, [r3]
 c001708:	e3530009 	cmp	r3, #9
 c00170c:	da000002 	ble	c00171c <Eint4567_ISR+0x170>
					valor = 0;
 c001710:	e59f31b8 	ldr	r3, [pc, #440]	; c0018d0 <Eint4567_ISR+0x324>
 c001714:	e3a02000 	mov	r2, #0
 c001718:	e5832000 	str	r2, [r3]
				}
				int_count = valor;
 c00171c:	e59f31ac 	ldr	r3, [pc, #428]	; c0018d0 <Eint4567_ISR+0x324>
 c001720:	e5932000 	ldr	r2, [r3]
 c001724:	e59f3198 	ldr	r3, [pc, #408]	; c0018c4 <Eint4567_ISR+0x318>
 c001728:	e5832000 	str	r2, [r3]
			}
			iniciarEspera(100000, 100000);
 c00172c:	e59f01a0 	ldr	r0, [pc, #416]	; c0018d4 <Eint4567_ISR+0x328>
 c001730:	e59f119c 	ldr	r1, [pc, #412]	; c0018d4 <Eint4567_ISR+0x328>
 c001734:	eb00012d 	bl	c001bf0 <iniciarEspera>
			break;
 c001738:	ea00004d 	b	c001874 <Eint4567_ISR+0x2c8>
		case 8:
//			mantener = -1;
			if (state == 0)
 c00173c:	e59f317c 	ldr	r3, [pc, #380]	; c0018c0 <Eint4567_ISR+0x314>
 c001740:	e5933000 	ldr	r3, [r3]
 c001744:	e3530000 	cmp	r3, #0
 c001748:	1a000007 	bne	c00176c <Eint4567_ISR+0x1c0>
			{
				leds_off();
 c00174c:	eb000d53 	bl	c004ca0 <leds_off>
				state = 1;
 c001750:	e59f3168 	ldr	r3, [pc, #360]	; c0018c0 <Eint4567_ISR+0x314>
 c001754:	e3a02001 	mov	r2, #1
 c001758:	e5832000 	str	r2, [r3]
				int_count = 0xf;
 c00175c:	e59f3160 	ldr	r3, [pc, #352]	; c0018c4 <Eint4567_ISR+0x318>
 c001760:	e3a0200f 	mov	r2, #15
 c001764:	e5832000 	str	r2, [r3]
 c001768:	ea000037 	b	c00184c <Eint4567_ISR+0x2a0>
			} else if (state == 1) {
 c00176c:	e59f314c 	ldr	r3, [pc, #332]	; c0018c0 <Eint4567_ISR+0x314>
 c001770:	e5933000 	ldr	r3, [r3]
 c001774:	e3530001 	cmp	r3, #1
 c001778:	1a000015 	bne	c0017d4 <Eint4567_ISR+0x228>
				if (fila == 10) {
 c00177c:	e59f3144 	ldr	r3, [pc, #324]	; c0018c8 <Eint4567_ISR+0x31c>
 c001780:	e5933000 	ldr	r3, [r3]
 c001784:	e353000a 	cmp	r3, #10
 c001788:	1a000006 	bne	c0017a8 <Eint4567_ISR+0x1fc>
					state = 5;
 c00178c:	e59f312c 	ldr	r3, [pc, #300]	; c0018c0 <Eint4567_ISR+0x314>
 c001790:	e3a02005 	mov	r2, #5
 c001794:	e5832000 	str	r2, [r3]
					int_count = 0x10;
 c001798:	e59f3124 	ldr	r3, [pc, #292]	; c0018c4 <Eint4567_ISR+0x318>
 c00179c:	e3a02010 	mov	r2, #16
 c0017a0:	e5832000 	str	r2, [r3]
 c0017a4:	ea000028 	b	c00184c <Eint4567_ISR+0x2a0>
				}
				else if(fila != 0) {
 c0017a8:	e59f3118 	ldr	r3, [pc, #280]	; c0018c8 <Eint4567_ISR+0x31c>
 c0017ac:	e5933000 	ldr	r3, [r3]
 c0017b0:	e3530000 	cmp	r3, #0
 c0017b4:	0a000024 	beq	c00184c <Eint4567_ISR+0x2a0>
					state = 2;
 c0017b8:	e59f3100 	ldr	r3, [pc, #256]	; c0018c0 <Eint4567_ISR+0x314>
 c0017bc:	e3a02002 	mov	r2, #2
 c0017c0:	e5832000 	str	r2, [r3]
					int_count = 0xc;
 c0017c4:	e59f30f8 	ldr	r3, [pc, #248]	; c0018c4 <Eint4567_ISR+0x318>
 c0017c8:	e3a0200c 	mov	r2, #12
 c0017cc:	e5832000 	str	r2, [r3]
 c0017d0:	ea00001d 	b	c00184c <Eint4567_ISR+0x2a0>
				}
			} else if (state == 2) {
 c0017d4:	e59f30e4 	ldr	r3, [pc, #228]	; c0018c0 <Eint4567_ISR+0x314>
 c0017d8:	e5933000 	ldr	r3, [r3]
 c0017dc:	e3530002 	cmp	r3, #2
 c0017e0:	1a00000a 	bne	c001810 <Eint4567_ISR+0x264>
				if(columna != 0) {
 c0017e4:	e59f30e0 	ldr	r3, [pc, #224]	; c0018cc <Eint4567_ISR+0x320>
 c0017e8:	e5933000 	ldr	r3, [r3]
 c0017ec:	e3530000 	cmp	r3, #0
 c0017f0:	0a000015 	beq	c00184c <Eint4567_ISR+0x2a0>
					state = 3;
 c0017f4:	e59f30c4 	ldr	r3, [pc, #196]	; c0018c0 <Eint4567_ISR+0x314>
 c0017f8:	e3a02003 	mov	r2, #3
 c0017fc:	e5832000 	str	r2, [r3]
					int_count = 0x1;
 c001800:	e59f30bc 	ldr	r3, [pc, #188]	; c0018c4 <Eint4567_ISR+0x318>
 c001804:	e3a02001 	mov	r2, #1
 c001808:	e5832000 	str	r2, [r3]
 c00180c:	ea00000e 	b	c00184c <Eint4567_ISR+0x2a0>
				}
			} else if (state == 3 || state == 4) {
 c001810:	e59f30a8 	ldr	r3, [pc, #168]	; c0018c0 <Eint4567_ISR+0x314>
 c001814:	e5933000 	ldr	r3, [r3]
 c001818:	e3530003 	cmp	r3, #3
 c00181c:	0a000003 	beq	c001830 <Eint4567_ISR+0x284>
 c001820:	e59f3098 	ldr	r3, [pc, #152]	; c0018c0 <Eint4567_ISR+0x314>
 c001824:	e5933000 	ldr	r3, [r3]
 c001828:	e3530004 	cmp	r3, #4
 c00182c:	1a000003 	bne	c001840 <Eint4567_ISR+0x294>
				state = 4;
 c001830:	e59f3088 	ldr	r3, [pc, #136]	; c0018c0 <Eint4567_ISR+0x314>
 c001834:	e3a02004 	mov	r2, #4
 c001838:	e5832000 	str	r2, [r3]
 c00183c:	ea000002 	b	c00184c <Eint4567_ISR+0x2a0>
			}
			else {
				state = 5;
 c001840:	e59f3078 	ldr	r3, [pc, #120]	; c0018c0 <Eint4567_ISR+0x314>
 c001844:	e3a02005 	mov	r2, #5
 c001848:	e5832000 	str	r2, [r3]
			}



			iniciarEspera(100000, 100000);
 c00184c:	e59f0080 	ldr	r0, [pc, #128]	; c0018d4 <Eint4567_ISR+0x328>
 c001850:	e59f107c 	ldr	r1, [pc, #124]	; c0018d4 <Eint4567_ISR+0x328>
 c001854:	eb0000e5 	bl	c001bf0 <iniciarEspera>
			break;
 c001858:	ea000005 	b	c001874 <Eint4567_ISR+0x2c8>
		default:
			rINTMSK ^= BIT_EINT4567;
 c00185c:	e59f3054 	ldr	r3, [pc, #84]	; c0018b8 <Eint4567_ISR+0x30c>
 c001860:	e59f2050 	ldr	r2, [pc, #80]	; c0018b8 <Eint4567_ISR+0x30c>
 c001864:	e5922000 	ldr	r2, [r2]
 c001868:	e2222602 	eor	r2, r2, #2097152	; 0x200000
 c00186c:	e5832000 	str	r2, [r3]
			break;
 c001870:	e1a00000 	nop			; (mov r0, r0)
	}


	D8Led_symbol(int_count & 0x000f); // sacamos el valor por pantalla (mdulo 16)
 c001874:	e59f3048 	ldr	r3, [pc, #72]	; c0018c4 <Eint4567_ISR+0x318>
 c001878:	e5933000 	ldr	r3, [r3]
 c00187c:	e203300f 	and	r3, r3, #15
 c001880:	e1a00003 	mov	r0, r3
 c001884:	ebfffcfb 	bl	c000c78 <D8Led_symbol>
	/* Finalizar ISR */
	rEXTINTPND = 0xf;				// borra los bits en EXTINTPND
 c001888:	e59f302c 	ldr	r3, [pc, #44]	; c0018bc <Eint4567_ISR+0x310>
 c00188c:	e3a0200f 	mov	r2, #15
 c001890:	e5832000 	str	r2, [r3]
	rI_ISPC   |= BIT_EINT4567;		// borra el bit pendiente en INTPND
 c001894:	e59f303c 	ldr	r3, [pc, #60]	; c0018d8 <Eint4567_ISR+0x32c>
 c001898:	e59f2038 	ldr	r2, [pc, #56]	; c0018d8 <Eint4567_ISR+0x32c>
 c00189c:	e5922000 	ldr	r2, [r2]
 c0018a0:	e3822602 	orr	r2, r2, #2097152	; 0x200000
 c0018a4:	e5832000 	str	r2, [r3]

}
 c0018a8:	e24bd01c 	sub	sp, fp, #28
 c0018ac:	e89d680f 	ldm	sp, {r0, r1, r2, r3, fp, sp, lr}
 c0018b0:	e49dc004 	pop	{ip}		; (ldr ip, [sp], #4)
 c0018b4:	e25ef004 	subs	pc, lr, #4
 c0018b8:	01e0000c 	.word	0x01e0000c
 c0018bc:	01d20054 	.word	0x01d20054
 c0018c0:	0c0075bc 	.word	0x0c0075bc
 c0018c4:	0c0075c8 	.word	0x0c0075c8
 c0018c8:	0c0075c0 	.word	0x0c0075c0
 c0018cc:	0c0075c4 	.word	0x0c0075c4
 c0018d0:	0c006220 	.word	0x0c006220
 c0018d4:	000186a0 	.word	0x000186a0
 c0018d8:	01e00024 	.word	0x01e00024

0c0018dc <esperaFinalizada>:

int esperaFinalizada(void)
{
 c0018dc:	e1a0c00d 	mov	ip, sp
 c0018e0:	e92dd800 	push	{fp, ip, lr, pc}
 c0018e4:	e24cb004 	sub	fp, ip, #4
 c0018e8:	e24dd008 	sub	sp, sp, #8
	int tiempo_pasado = 0;
 c0018ec:	e3a03000 	mov	r3, #0
 c0018f0:	e50b3010 	str	r3, [fp, #-16]
	tiempo_pasado = (timer2_leer() - tiempo_inicio);
 c0018f4:	eb00107a 	bl	c005ae4 <timer2_leer>
 c0018f8:	e1a02000 	mov	r2, r0
 c0018fc:	e59f32a8 	ldr	r3, [pc, #680]	; c001bac <esperaFinalizada+0x2d0>
 c001900:	e5933000 	ldr	r3, [r3]
 c001904:	e0633002 	rsb	r3, r3, r2
 c001908:	e50b3010 	str	r3, [fp, #-16]
	if(retardo <= tiempo_pasado) {
 c00190c:	e59f329c 	ldr	r3, [pc, #668]	; c001bb0 <esperaFinalizada+0x2d4>
 c001910:	e5932000 	ldr	r2, [r3]
 c001914:	e51b3010 	ldr	r3, [fp, #-16]
 c001918:	e1520003 	cmp	r2, r3
 c00191c:	ca00009d 	bgt	c001b98 <esperaFinalizada+0x2bc>
		if(soltado) {
 c001920:	e59f328c 	ldr	r3, [pc, #652]	; c001bb4 <esperaFinalizada+0x2d8>
 c001924:	e5933000 	ldr	r3, [r3]
 c001928:	e3530000 	cmp	r3, #0
 c00192c:	0a000011 	beq	c001978 <esperaFinalizada+0x9c>
			retardo = 0;
 c001930:	e59f3278 	ldr	r3, [pc, #632]	; c001bb0 <esperaFinalizada+0x2d4>
 c001934:	e3a02000 	mov	r2, #0
 c001938:	e5832000 	str	r2, [r3]

			rEXTINTPND = 0xf;				// borra los bits en EXTINTPND
 c00193c:	e59f3274 	ldr	r3, [pc, #628]	; c001bb8 <esperaFinalizada+0x2dc>
 c001940:	e3a0200f 	mov	r2, #15
 c001944:	e5832000 	str	r2, [r3]
			rI_ISPC |= BIT_EINT4567;		// borra el bit pendiente en INTPND
 c001948:	e59f326c 	ldr	r3, [pc, #620]	; c001bbc <esperaFinalizada+0x2e0>
 c00194c:	e59f2268 	ldr	r2, [pc, #616]	; c001bbc <esperaFinalizada+0x2e0>
 c001950:	e5922000 	ldr	r2, [r2]
 c001954:	e3822602 	orr	r2, r2, #2097152	; 0x200000
 c001958:	e5832000 	str	r2, [r3]

			rINTMSK ^= BIT_EINT4567;
 c00195c:	e59f325c 	ldr	r3, [pc, #604]	; c001bc0 <esperaFinalizada+0x2e4>
 c001960:	e59f2258 	ldr	r2, [pc, #600]	; c001bc0 <esperaFinalizada+0x2e4>
 c001964:	e5922000 	ldr	r2, [r2]
 c001968:	e2222602 	eor	r2, r2, #2097152	; 0x200000
 c00196c:	e5832000 	str	r2, [r3]
//			mantener = -1;
			return 1;
 c001970:	e3a03001 	mov	r3, #1
 c001974:	ea000088 	b	c001b9c <esperaFinalizada+0x2c0>
		}

		else {
			// Si hemos soltado el boton
			if((rPDATG & 0xC0) == 0xC0) {
 c001978:	e59f3244 	ldr	r3, [pc, #580]	; c001bc4 <esperaFinalizada+0x2e8>
 c00197c:	e5933000 	ldr	r3, [r3]
 c001980:	e20330c0 	and	r3, r3, #192	; 0xc0
 c001984:	e35300c0 	cmp	r3, #192	; 0xc0
 c001988:	1a00000e 	bne	c0019c8 <esperaFinalizada+0xec>
				retardo = retardo_trd;
 c00198c:	e59f3234 	ldr	r3, [pc, #564]	; c001bc8 <esperaFinalizada+0x2ec>
 c001990:	e5932000 	ldr	r2, [r3]
 c001994:	e59f3214 	ldr	r3, [pc, #532]	; c001bb0 <esperaFinalizada+0x2d4>
 c001998:	e5832000 	str	r2, [r3]
				tiempo_inicio = timer2_leer();
 c00199c:	eb001050 	bl	c005ae4 <timer2_leer>
 c0019a0:	e1a02000 	mov	r2, r0
 c0019a4:	e59f3200 	ldr	r3, [pc, #512]	; c001bac <esperaFinalizada+0x2d0>
 c0019a8:	e5832000 	str	r2, [r3]
				waitState = 0;
 c0019ac:	e59f3218 	ldr	r3, [pc, #536]	; c001bcc <esperaFinalizada+0x2f0>
 c0019b0:	e3a02000 	mov	r2, #0
 c0019b4:	e5832000 	str	r2, [r3]
//				mantener = -1;
				soltado = 1;
 c0019b8:	e59f31f4 	ldr	r3, [pc, #500]	; c001bb4 <esperaFinalizada+0x2d8>
 c0019bc:	e3a02001 	mov	r2, #1
 c0019c0:	e5832000 	str	r2, [r3]
 c0019c4:	ea000073 	b	c001b98 <esperaFinalizada+0x2bc>
			} else {
				if (waitState == 1)
 c0019c8:	e59f31fc 	ldr	r3, [pc, #508]	; c001bcc <esperaFinalizada+0x2f0>
 c0019cc:	e5933000 	ldr	r3, [r3]
 c0019d0:	e3530001 	cmp	r3, #1
 c0019d4:	1a00000a 	bne	c001a04 <esperaFinalizada+0x128>
				{
					waitState = 2;
 c0019d8:	e59f31ec 	ldr	r3, [pc, #492]	; c001bcc <esperaFinalizada+0x2f0>
 c0019dc:	e3a02002 	mov	r2, #2
 c0019e0:	e5832000 	str	r2, [r3]
					retardo = 50000;	// Add medio segundo de espera
 c0019e4:	e59f31c4 	ldr	r3, [pc, #452]	; c001bb0 <esperaFinalizada+0x2d4>
 c0019e8:	e59f21e0 	ldr	r2, [pc, #480]	; c001bd0 <esperaFinalizada+0x2f4>
 c0019ec:	e5832000 	str	r2, [r3]
					tiempo_inicio = timer2_leer();
 c0019f0:	eb00103b 	bl	c005ae4 <timer2_leer>
 c0019f4:	e1a02000 	mov	r2, r0
 c0019f8:	e59f31ac 	ldr	r3, [pc, #428]	; c001bac <esperaFinalizada+0x2d0>
 c0019fc:	e5832000 	str	r2, [r3]
 c001a00:	ea00005c 	b	c001b78 <esperaFinalizada+0x29c>
				}
				else if (waitState == 2)
 c001a04:	e59f31c0 	ldr	r3, [pc, #448]	; c001bcc <esperaFinalizada+0x2f0>
 c001a08:	e5933000 	ldr	r3, [r3]
 c001a0c:	e3530002 	cmp	r3, #2
 c001a10:	1a00000a 	bne	c001a40 <esperaFinalizada+0x164>
				{
					waitState = 3;
 c001a14:	e59f31b0 	ldr	r3, [pc, #432]	; c001bcc <esperaFinalizada+0x2f0>
 c001a18:	e3a02003 	mov	r2, #3
 c001a1c:	e5832000 	str	r2, [r3]
					retardo = 30000;
 c001a20:	e59f3188 	ldr	r3, [pc, #392]	; c001bb0 <esperaFinalizada+0x2d4>
 c001a24:	e59f21a8 	ldr	r2, [pc, #424]	; c001bd4 <esperaFinalizada+0x2f8>
 c001a28:	e5832000 	str	r2, [r3]
					tiempo_inicio = timer2_leer();
 c001a2c:	eb00102c 	bl	c005ae4 <timer2_leer>
 c001a30:	e1a02000 	mov	r2, r0
 c001a34:	e59f3170 	ldr	r3, [pc, #368]	; c001bac <esperaFinalizada+0x2d0>
 c001a38:	e5832000 	str	r2, [r3]
 c001a3c:	ea00004d 	b	c001b78 <esperaFinalizada+0x29c>
				}
				else if (waitState == 3)
 c001a40:	e59f3184 	ldr	r3, [pc, #388]	; c001bcc <esperaFinalizada+0x2f0>
 c001a44:	e5933000 	ldr	r3, [r3]
 c001a48:	e3530003 	cmp	r3, #3
 c001a4c:	1a000049 	bne	c001b78 <esperaFinalizada+0x29c>
				{
					// sumar 1 (mantenido)
					if (state == 1)
 c001a50:	e59f3180 	ldr	r3, [pc, #384]	; c001bd8 <esperaFinalizada+0x2fc>
 c001a54:	e5933000 	ldr	r3, [r3]
 c001a58:	e3530001 	cmp	r3, #1
 c001a5c:	1a000010 	bne	c001aa4 <esperaFinalizada+0x1c8>
					{
						fila++;
 c001a60:	e59f3174 	ldr	r3, [pc, #372]	; c001bdc <esperaFinalizada+0x300>
 c001a64:	e5933000 	ldr	r3, [r3]
 c001a68:	e2832001 	add	r2, r3, #1
 c001a6c:	e59f3168 	ldr	r3, [pc, #360]	; c001bdc <esperaFinalizada+0x300>
 c001a70:	e5832000 	str	r2, [r3]
						if (fila > 10)
 c001a74:	e59f3160 	ldr	r3, [pc, #352]	; c001bdc <esperaFinalizada+0x300>
 c001a78:	e5933000 	ldr	r3, [r3]
 c001a7c:	e353000a 	cmp	r3, #10
 c001a80:	da000002 	ble	c001a90 <esperaFinalizada+0x1b4>
						{
							fila = 1;
 c001a84:	e59f3150 	ldr	r3, [pc, #336]	; c001bdc <esperaFinalizada+0x300>
 c001a88:	e3a02001 	mov	r2, #1
 c001a8c:	e5832000 	str	r2, [r3]
						}
						int_count = fila;
 c001a90:	e59f3144 	ldr	r3, [pc, #324]	; c001bdc <esperaFinalizada+0x300>
 c001a94:	e5932000 	ldr	r2, [r3]
 c001a98:	e59f3140 	ldr	r3, [pc, #320]	; c001be0 <esperaFinalizada+0x304>
 c001a9c:	e5832000 	str	r2, [r3]
 c001aa0:	ea000028 	b	c001b48 <esperaFinalizada+0x26c>
					}
					else if (state == 2){
 c001aa4:	e59f312c 	ldr	r3, [pc, #300]	; c001bd8 <esperaFinalizada+0x2fc>
 c001aa8:	e5933000 	ldr	r3, [r3]
 c001aac:	e3530002 	cmp	r3, #2
 c001ab0:	1a000010 	bne	c001af8 <esperaFinalizada+0x21c>
						columna++;
 c001ab4:	e59f3128 	ldr	r3, [pc, #296]	; c001be4 <esperaFinalizada+0x308>
 c001ab8:	e5933000 	ldr	r3, [r3]
 c001abc:	e2832001 	add	r2, r3, #1
 c001ac0:	e59f311c 	ldr	r3, [pc, #284]	; c001be4 <esperaFinalizada+0x308>
 c001ac4:	e5832000 	str	r2, [r3]
						if (columna > 9) {
 c001ac8:	e59f3114 	ldr	r3, [pc, #276]	; c001be4 <esperaFinalizada+0x308>
 c001acc:	e5933000 	ldr	r3, [r3]
 c001ad0:	e3530009 	cmp	r3, #9
 c001ad4:	da000002 	ble	c001ae4 <esperaFinalizada+0x208>
							columna = 1;
 c001ad8:	e59f3104 	ldr	r3, [pc, #260]	; c001be4 <esperaFinalizada+0x308>
 c001adc:	e3a02001 	mov	r2, #1
 c001ae0:	e5832000 	str	r2, [r3]
						}
						int_count = columna;
 c001ae4:	e59f30f8 	ldr	r3, [pc, #248]	; c001be4 <esperaFinalizada+0x308>
 c001ae8:	e5932000 	ldr	r2, [r3]
 c001aec:	e59f30ec 	ldr	r3, [pc, #236]	; c001be0 <esperaFinalizada+0x304>
 c001af0:	e5832000 	str	r2, [r3]
 c001af4:	ea000013 	b	c001b48 <esperaFinalizada+0x26c>
					} else if (state == 3) {
 c001af8:	e59f30d8 	ldr	r3, [pc, #216]	; c001bd8 <esperaFinalizada+0x2fc>
 c001afc:	e5933000 	ldr	r3, [r3]
 c001b00:	e3530003 	cmp	r3, #3
 c001b04:	1a00000f 	bne	c001b48 <esperaFinalizada+0x26c>
						valor++;
 c001b08:	e59f30d8 	ldr	r3, [pc, #216]	; c001be8 <esperaFinalizada+0x30c>
 c001b0c:	e5933000 	ldr	r3, [r3]
 c001b10:	e2832001 	add	r2, r3, #1
 c001b14:	e59f30cc 	ldr	r3, [pc, #204]	; c001be8 <esperaFinalizada+0x30c>
 c001b18:	e5832000 	str	r2, [r3]
						if (valor > 9) {
 c001b1c:	e59f30c4 	ldr	r3, [pc, #196]	; c001be8 <esperaFinalizada+0x30c>
 c001b20:	e5933000 	ldr	r3, [r3]
 c001b24:	e3530009 	cmp	r3, #9
 c001b28:	da000002 	ble	c001b38 <esperaFinalizada+0x25c>
							valor = 0;
 c001b2c:	e59f30b4 	ldr	r3, [pc, #180]	; c001be8 <esperaFinalizada+0x30c>
 c001b30:	e3a02000 	mov	r2, #0
 c001b34:	e5832000 	str	r2, [r3]
						}
						int_count = valor;
 c001b38:	e59f30a8 	ldr	r3, [pc, #168]	; c001be8 <esperaFinalizada+0x30c>
 c001b3c:	e5932000 	ldr	r2, [r3]
 c001b40:	e59f3098 	ldr	r3, [pc, #152]	; c001be0 <esperaFinalizada+0x304>
 c001b44:	e5832000 	str	r2, [r3]
					}
					retardo = 30000;
 c001b48:	e59f3060 	ldr	r3, [pc, #96]	; c001bb0 <esperaFinalizada+0x2d4>
 c001b4c:	e59f2080 	ldr	r2, [pc, #128]	; c001bd4 <esperaFinalizada+0x2f8>
 c001b50:	e5832000 	str	r2, [r3]
					tiempo_inicio = timer2_leer();
 c001b54:	eb000fe2 	bl	c005ae4 <timer2_leer>
 c001b58:	e1a02000 	mov	r2, r0
 c001b5c:	e59f3048 	ldr	r3, [pc, #72]	; c001bac <esperaFinalizada+0x2d0>
 c001b60:	e5832000 	str	r2, [r3]
					D8Led_symbol(int_count & 0x000f); // sacamos el valor por pantalla (mdulo 16)
 c001b64:	e59f3074 	ldr	r3, [pc, #116]	; c001be0 <esperaFinalizada+0x304>
 c001b68:	e5933000 	ldr	r3, [r3]
 c001b6c:	e203300f 	and	r3, r3, #15
 c001b70:	e1a00003 	mov	r0, r3
 c001b74:	ebfffc3f 	bl	c000c78 <D8Led_symbol>
//						int_count = valor;
//					}
//					D8Led_symbol(int_count);
//				}

				retardo = retardo_trp;
 c001b78:	e59f306c 	ldr	r3, [pc, #108]	; c001bec <esperaFinalizada+0x310>
 c001b7c:	e5932000 	ldr	r2, [r3]
 c001b80:	e59f3028 	ldr	r3, [pc, #40]	; c001bb0 <esperaFinalizada+0x2d4>
 c001b84:	e5832000 	str	r2, [r3]
				tiempo_inicio = timer2_leer();
 c001b88:	eb000fd5 	bl	c005ae4 <timer2_leer>
 c001b8c:	e1a02000 	mov	r2, r0
 c001b90:	e59f3014 	ldr	r3, [pc, #20]	; c001bac <esperaFinalizada+0x2d0>
 c001b94:	e5832000 	str	r2, [r3]
			}
		}
	}

	return 0;
 c001b98:	e3a03000 	mov	r3, #0
}
 c001b9c:	e1a00003 	mov	r0, r3
 c001ba0:	e24bd00c 	sub	sp, fp, #12
 c001ba4:	e89d6800 	ldm	sp, {fp, sp, lr}
 c001ba8:	e12fff1e 	bx	lr
 c001bac:	0c0075dc 	.word	0x0c0075dc
 c001bb0:	0c0075cc 	.word	0x0c0075cc
 c001bb4:	0c0075d0 	.word	0x0c0075d0
 c001bb8:	01d20054 	.word	0x01d20054
 c001bbc:	01e00024 	.word	0x01e00024
 c001bc0:	01e0000c 	.word	0x01e0000c
 c001bc4:	01d20044 	.word	0x01d20044
 c001bc8:	0c0075d4 	.word	0x0c0075d4
 c001bcc:	0c0075e0 	.word	0x0c0075e0
 c001bd0:	0000c350 	.word	0x0000c350
 c001bd4:	00007530 	.word	0x00007530
 c001bd8:	0c0075bc 	.word	0x0c0075bc
 c001bdc:	0c0075c0 	.word	0x0c0075c0
 c001be0:	0c0075c8 	.word	0x0c0075c8
 c001be4:	0c0075c4 	.word	0x0c0075c4
 c001be8:	0c006220 	.word	0x0c006220
 c001bec:	0c0075d8 	.word	0x0c0075d8

0c001bf0 <iniciarEspera>:

void iniciarEspera(unsigned int trp, unsigned int trd)
{
 c001bf0:	e1a0c00d 	mov	ip, sp
 c001bf4:	e92dd800 	push	{fp, ip, lr, pc}
 c001bf8:	e24cb004 	sub	fp, ip, #4
 c001bfc:	e24dd008 	sub	sp, sp, #8
 c001c00:	e50b0010 	str	r0, [fp, #-16]
 c001c04:	e50b1014 	str	r1, [fp, #-20]	; 0xffffffec
	tiempo_inicio = timer2_leer();
 c001c08:	eb000fb5 	bl	c005ae4 <timer2_leer>
 c001c0c:	e1a02000 	mov	r2, r0
 c001c10:	e59f304c 	ldr	r3, [pc, #76]	; c001c64 <iniciarEspera+0x74>
 c001c14:	e5832000 	str	r2, [r3]
//	if( mantener == 0) {
//		mantener = tiempo_inicio;
//	}
	retardo = trp;
 c001c18:	e51b2010 	ldr	r2, [fp, #-16]
 c001c1c:	e59f3044 	ldr	r3, [pc, #68]	; c001c68 <iniciarEspera+0x78>
 c001c20:	e5832000 	str	r2, [r3]
	soltado = 0;
 c001c24:	e59f3040 	ldr	r3, [pc, #64]	; c001c6c <iniciarEspera+0x7c>
 c001c28:	e3a02000 	mov	r2, #0
 c001c2c:	e5832000 	str	r2, [r3]
	waitState = 1;
 c001c30:	e59f3038 	ldr	r3, [pc, #56]	; c001c70 <iniciarEspera+0x80>
 c001c34:	e3a02001 	mov	r2, #1
 c001c38:	e5832000 	str	r2, [r3]
	retardo_trp = trp;
 c001c3c:	e51b2010 	ldr	r2, [fp, #-16]
 c001c40:	e59f302c 	ldr	r3, [pc, #44]	; c001c74 <iniciarEspera+0x84>
 c001c44:	e5832000 	str	r2, [r3]
	retardo_trd = trd;
 c001c48:	e51b2014 	ldr	r2, [fp, #-20]	; 0xffffffec
 c001c4c:	e59f3024 	ldr	r3, [pc, #36]	; c001c78 <iniciarEspera+0x88>
 c001c50:	e5832000 	str	r2, [r3]
	boton_pulsado();
 c001c54:	eb000fd1 	bl	c005ba0 <boton_pulsado>
}
 c001c58:	e24bd00c 	sub	sp, fp, #12
 c001c5c:	e89d6800 	ldm	sp, {fp, sp, lr}
 c001c60:	e12fff1e 	bx	lr
 c001c64:	0c0075dc 	.word	0x0c0075dc
 c001c68:	0c0075cc 	.word	0x0c0075cc
 c001c6c:	0c0075d0 	.word	0x0c0075d0
 c001c70:	0c0075e0 	.word	0x0c0075e0
 c001c74:	0c0075d8 	.word	0x0c0075d8
 c001c78:	0c0075d4 	.word	0x0c0075d4

0c001c7c <sudoku_candidatos_arm>:
#	r0: 1 si la celda esta llena y 0 en caso contrario
#######################################################################################################
.global    sudoku_candidatos_arm		// Definimos la etiqueta como global para hacerla accesible
sudoku_candidatos_arm:

		STMFD   sp!, {r4-r6,lr}
 c001c7c:	e92d4070 	push	{r4, r5, r6, lr}

		add r3, r0, r1, lsl #5  // guardamos la direccin del primer elemento de la fila de la celda [r3 = @sudoku + 32 * fila]
 c001c80:	e0803281 	add	r3, r0, r1, lsl #5
		add r4, r0, r2, lsl #1  // guardamos la direccin del primer elemento de la columna de la celda [r4 = @sudoku + 2 * columna]
 c001c84:	e0804082 	add	r4, r0, r2, lsl #1
		add r5, r3, r2, lsl #1  // guardamos la direccin de la celda [r5 = r3 + 2 * columna]
 c001c88:	e0835082 	add	r5, r3, r2, lsl #1
//		movne r0, #1			// si es pista, pongo r0 a 1, que ser la salida, indicando que est ocupada
//		bne fin					// si es pista, salto al final

//calculamos direccin del primer elemento de la regin
		//calculamos la fila del elemento (0,3 o 6) y almacenamos en r1
		cmp r1, #2
 c001c8c:	e3510002 	cmp	r1, #2
		movle r1,#0
 c001c90:	d3a01000 	movle	r1, #0
		ble segcomp
 c001c94:	da000003 	ble	c001ca8 <segcomp>
		cmp r1, #5
 c001c98:	e3510005 	cmp	r1, #5
		movle r1,#3
 c001c9c:	d3a01003 	movle	r1, #3
		ble segcomp
 c001ca0:	da000000 	ble	c001ca8 <segcomp>
		mov r1, #6
 c001ca4:	e3a01006 	mov	r1, #6

0c001ca8 <segcomp>:

		//calculamos la columna del elemento (0,3 o 6) y almacenamos en r2
segcomp:
		cmp r2, #2
 c001ca8:	e3520002 	cmp	r2, #2
		movle r2,#0
 c001cac:	d3a02000 	movle	r2, #0
		ble fincomp
 c001cb0:	da000003 	ble	c001cc4 <fincomp>
		cmp r2, #5
 c001cb4:	e3520005 	cmp	r2, #5
		movle r2,#3
 c001cb8:	d3a02003 	movle	r2, #3
		ble fincomp
 c001cbc:	da000000 	ble	c001cc4 <fincomp>
		mov r2, #6
 c001cc0:	e3a02006 	mov	r2, #6

0c001cc4 <fincomp>:

fincomp:
		//calculamos la direccin del elemento [r0 = sudoku + (32 * r1) + (2 * r2)]
		add r1, r2, r1, lsl #4 //r1 = r2 + r0 * 16
 c001cc4:	e0821201 	add	r1, r2, r1, lsl #4
		add r0, r0, r1, lsl #1 //r0 = r0 + r1 * 2
 c001cc8:	e0800081 	add	r0, r0, r1, lsl #1

		mov r1, #0 	//init mascara
 c001ccc:	e3a01000 	mov	r1, #0
		mov r12, #1  //1 auxiliar
 c001cd0:	e3a0c001 	mov	ip, #1
		mov r6, #0	//init contador
 c001cd4:	e3a06000 	mov	r6, #0

0c001cd8 <forfila>:

//Recorremos la fila activando los bits necesarios en la mascara
forfila:
		cmp r3, r5
 c001cd8:	e1530005 	cmp	r3, r5
		beq minefila
 c001cdc:	0a000004 	beq	c001cf4 <minefila>

		ldrh r2, [r3] 		//cargamos la celda **
 c001ce0:	e1d320b0 	ldrh	r2, [r3]
		mov r2, r2, lsr #12		//guardamos solo el valor de la celda
 c001ce4:	e1a02622 	lsr	r2, r2, #12
		sub r2, r2, #1			//restamos uno para el desplazamiento
 c001ce8:	e2422001 	sub	r2, r2, #1
		mov r2, r12, lsl r2      //preparamos el 1 en el lugar que corresponde para la mascara
 c001cec:	e1a0221c 	lsl	r2, ip, r2
		orr r1, r1, r2			//actualizamos mscara
 c001cf0:	e1811002 	orr	r1, r1, r2

0c001cf4 <minefila>:

minefila:
		add r3, r3, #2
 c001cf4:	e2833002 	add	r3, r3, #2
		cmp r6, #8
 c001cf8:	e3560008 	cmp	r6, #8
		beq initcolumna
 c001cfc:	0a000001 	beq	c001d08 <initcolumna>
		add r6, r6, #1
 c001d00:	e2866001 	add	r6, r6, #1
		b forfila
 c001d04:	eafffff3 	b	c001cd8 <forfila>

0c001d08 <initcolumna>:

//Recorremos la columna activando los bits necesarios en la mascara
initcolumna:
		mov r6, #0	//init contador bucle
 c001d08:	e3a06000 	mov	r6, #0

0c001d0c <forcolumna>:

forcolumna:
		cmp r4, r5
 c001d0c:	e1540005 	cmp	r4, r5
		beq minecolumna
 c001d10:	0a000004 	beq	c001d28 <minecolumna>

		ldrh r2, [r4] 		//cargamos la celda **
 c001d14:	e1d420b0 	ldrh	r2, [r4]

		mov r2, r2, lsr #12		//guardamos solo el valor de la celda
 c001d18:	e1a02622 	lsr	r2, r2, #12
		sub r2, r2, #1			//restamos uno para el desplazamiento
 c001d1c:	e2422001 	sub	r2, r2, #1
		mov r2, r12, lsl r2      //preparamos el 1 en el lugar que corresponde para la mascara
 c001d20:	e1a0221c 	lsl	r2, ip, r2
		orr r1, r1, r2			//actualizamos mscara
 c001d24:	e1811002 	orr	r1, r1, r2

0c001d28 <minecolumna>:

minecolumna:
		add r4, r4, #32
 c001d28:	e2844020 	add	r4, r4, #32
		cmp r6, #8
 c001d2c:	e3560008 	cmp	r6, #8
		beq initregion
 c001d30:	0a000001 	beq	c001d3c <initregion>
		add r6, r6, #1
 c001d34:	e2866001 	add	r6, r6, #1
		b forcolumna
 c001d38:	eafffff3 	b	c001d0c <forcolumna>

0c001d3c <initregion>:

//Recorremos la regin activando los bits necesarios en la mascara
initregion:
		mov r6, #3				//contador de filas
 c001d3c:	e3a06003 	mov	r6, #3
		mov r3, #3				//contador de columnas
 c001d40:	e3a03003 	mov	r3, #3

0c001d44 <forregion>:

forregion:
		cmp r0, r5
 c001d44:	e1500005 	cmp	r0, r5
		beq mineregion
 c001d48:	0a000004 	beq	c001d60 <mineregion>

		ldrh r2, [r0]		//cargamos la celda **
 c001d4c:	e1d020b0 	ldrh	r2, [r0]

		mov r2, r2, lsr #12		//guardamos solo el valor de la celda
 c001d50:	e1a02622 	lsr	r2, r2, #12
		sub r2, r2, #1			//restamos uno para el desplazamiento
 c001d54:	e2422001 	sub	r2, r2, #1
		mov r2, r12, lsl r2     //preparamos el 1 en el lugar que corresponde para la mascara
 c001d58:	e1a0221c 	lsl	r2, ip, r2
		orr r1, r1, r2			//actualizamos mscara
 c001d5c:	e1811002 	orr	r1, r1, r2

0c001d60 <mineregion>:

mineregion:
		add r0, r0, #2
 c001d60:	e2800002 	add	r0, r0, #2
		subs r6, r6, #1
 c001d64:	e2566001 	subs	r6, r6, #1
		bne forregion
 c001d68:	1afffff5 	bne	c001d44 <forregion>
		mov r6, #3				//si hemos recorrido la fila, reiniciamos contador y saltamos
 c001d6c:	e3a06003 	mov	r6, #3


		subs r3, r3, #1
 c001d70:	e2533001 	subs	r3, r3, #1
		addne r0, r0, #26		//si hemos acabado iteracion, pero no todas, pasamos a la sigte linea y repetimos bucle de columnas
 c001d74:	1280001a 	addne	r0, r0, #26
		bne forregion
 c001d78:	1afffff1 	bne	c001d44 <forregion>


//Check if error
		ldrh r2, [r5]			//Cargamos el valor de la celda
 c001d7c:	e1d520b0 	ldrh	r2, [r5]
		mov r2, r2, lsr #12		//guardamos solo el valor de la celda
 c001d80:	e1a02622 	lsr	r2, r2, #12
		sub r2, r2, #1			//restamos uno para el desplazamiento
 c001d84:	e2422001 	sub	r2, r2, #1
		mov r2, r12, lsl r2
 c001d88:	e1a0221c 	lsl	r2, ip, r2
		ands r2, r2, r1
 c001d8c:	e0122001 	ands	r2, r2, r1
		moveq r0, #1
 c001d90:	03a00001 	moveq	r0, #1
		movne r0, #-1
 c001d94:	13e00000 	mvnne	r0, #0

//aadimos la mscara a la celda (manteniendo el resto de bits)
		ldrh r2, [r5]			//Cargamos el valor de la celda
 c001d98:	e1d520b0 	ldrh	r2, [r5]
		mov r4, #0xFE00			//Ponemos la mascara a 0
 c001d9c:	e3a04cfe 	mov	r4, #65024	; 0xfe00
		mvn r1, r1				// Invertimos la mascara y la aadimos a la celda
 c001da0:	e1e01001 	mvn	r1, r1
		and r2, r2, r4
 c001da4:	e0022004 	and	r2, r2, r4
		mvn r4, r4
 c001da8:	e1e04004 	mvn	r4, r4
		and r1, r1, r4
 c001dac:	e0011004 	and	r1, r1, r4
		orr r2, r2, r1
 c001db0:	e1822001 	orr	r2, r2, r1
		strh r2, [r5]			// Almacenamos la celda en su posicin
 c001db4:	e1c520b0 	strh	r2, [r5]

		ands r3, r2, #0xF000	// Ponemos a 0 la salida si la celda esta vacia
 c001db8:	e2123a0f 	ands	r3, r2, #61440	; 0xf000
		moveq r0, #0
 c001dbc:	03a00000 	moveq	r0, #0

0c001dc0 <fin>:

		//Comprobamos si est en la mscara

fin:

		LDMFD   sp!, {r4-r6,lr}
 c001dc0:	e8bd4070 	pop	{r4, r5, r6, lr}
        # return to the instruccion that called the rutine and to arm mode
        BX      lr
 c001dc4:	e12fff1e 	bx	lr

0c001dc8 <sudoku_candidatos_thumb>:
.global    sudoku_candidatos_thumb		// Definimos la etiqueta como global para hacerla accesible
sudoku_candidatos_thumb:
		push {lr}
 c001dc8:	e52de004 	push	{lr}		; (str lr, [sp, #-4]!)
		// Preparamos el cambio de ARM a THUMB
		ADR		r3, candidatos_thumb_interno+1 /* the last address bit is not really used to specify the address but to select between ARM and Thumb code */
 c001dcc:	e28f300d 	add	r3, pc, #13
		adr		r14,return		/* we store the return address in r14*/
 c001dd0:	e28fe000 	add	lr, pc, #0
		BX		r3				/* FUNCTION CALL, we jump to th_mul. +1 indicates that we want to switch to thumb */
 c001dd4:	e12fff13 	bx	r3

0c001dd8 <return>:
return:
		pop {lr}
 c001dd8:	e49de004 	pop	{lr}		; (ldr lr, [sp], #4)
		bx lr
 c001ddc:	e12fff1e 	bx	lr

0c001de0 <candidatos_thumb_interno>:
#	r0: 1 si la celda esta llena y 0 en caso contrario
#######################################################################################################
.thumb
.global candidatos_thumb_interno
candidatos_thumb_interno:
		push	{r4-r7}			//preservamos registros almacenndolos en la pila
 c001de0:	b4f0      	push	{r4, r5, r6, r7}

		lsl r3, r1, #5			//actualizamos el puntero de la fila -> fila = fila * 32
 c001de2:	014b      	lsls	r3, r1, #5
		add r3, r3, r0			//guardamos la direccin del primer elemento de la fila de la celda
 c001de4:	181b      	adds	r3, r3, r0

		lsl r4, r2, #1			//actualizamos el puntero de la columna -> columna = columna * 2
 c001de6:	0054      	lsls	r4, r2, #1
		add r4, r4, r0			//guardamos la direccin del primer elemento de la columna de la celda
 c001de8:	1824      	adds	r4, r4, r0

		lsl r5, r2, #1
 c001dea:	0055      	lsls	r5, r2, #1
		add r5, r3, r5  		//guardamos la direccin de la celda [r5 = r3 + 2 * columna]
 c001dec:	195d      	adds	r5, r3, r5

		ldrb r6, [r5,#1]		//vemos si no es pista
 c001dee:	786e      	ldrb	r6, [r5, #1]
		mov r7, #0x08
 c001df0:	2708      	movs	r7, #8
		and r6, r7
 c001df2:	403e      	ands	r6, r7
		bne pista				//vamos al final del mtodo si es pista
 c001df4:	d144      	bne.n	c001e80 <pista>

//calculamos la direccin del primer elemento de la regin
		//calculamos la fila del elemento (0,3 o 6) y almacenamos en r1
		mov r6, #6
 c001df6:	2606      	movs	r6, #6
		cmp r1, r6
 c001df8:	42b1      	cmp	r1, r6
		bge segcomp
 c001dfa:	da03      	bge.n	c001e04 <segcomp>
		mov r6, #3
 c001dfc:	2603      	movs	r6, #3
		cmp r1, r6
 c001dfe:	42b1      	cmp	r1, r6
		bge segcomp
 c001e00:	da00      	bge.n	c001e04 <segcomp>
		mov r6, #0
 c001e02:	2600      	movs	r6, #0

0c001e04 <segcomp>:

		//calculamos la columna del elemento (0,3 o 6) y almacenamos en r2
segcomp:
		mov r1, r6		 // guardamos fila calculada
 c001e04:	1c31      	adds	r1, r6, #0

		mov r6, #6
 c001e06:	2606      	movs	r6, #6
		cmp r2, r6
 c001e08:	42b2      	cmp	r2, r6
		bge fincomp
 c001e0a:	da03      	bge.n	c001e14 <fincomp>
		mov r6, #3
 c001e0c:	2603      	movs	r6, #3
		cmp r2, r6
 c001e0e:	42b2      	cmp	r2, r6
		bge fincomp
 c001e10:	da00      	bge.n	c001e14 <fincomp>
		mov r6, #0
 c001e12:	2600      	movs	r6, #0

0c001e14 <fincomp>:

fincomp:
		mov r2, r6		// guardamos la columna calculada
 c001e14:	1c32      	adds	r2, r6, #0

		//calculamos la direccin del elemento [r0 = sudoku + (32 * r1) + (2 * r2)]
		lsl r2, r2, #1
 c001e16:	0052      	lsls	r2, r2, #1
		lsl r1, r1, #5
 c001e18:	0149      	lsls	r1, r1, #5
		add r0, r1
 c001e1a:	1840      	adds	r0, r0, r1
		add r0, r2
 c001e1c:	1880      	adds	r0, r0, r2

		mov r1, #0			//inicializamos la mascara
 c001e1e:	2100      	movs	r1, #0
		mov r7, #1			//1 auxiliar
 c001e20:	2701      	movs	r7, #1
		mov r6, #9 			//init contador
 c001e22:	2609      	movs	r6, #9

0c001e24 <forfila>:

//Recorremos la fila activando los bits necesarios en la mascara
forfila:
		ldrh r2, [r3]
 c001e24:	881a      	ldrh	r2, [r3, #0]
		add r3, #2
 c001e26:	3302      	adds	r3, #2
		lsr r2, r2, #12
 c001e28:	0b12      	lsrs	r2, r2, #12
		sub r2, r2, #1
 c001e2a:	3a01      	subs	r2, #1
		lsl r7, r7, r2
 c001e2c:	4097      	lsls	r7, r2
		orr r1, r7
 c001e2e:	4339      	orrs	r1, r7
		mov r7, #1
 c001e30:	2701      	movs	r7, #1

		sub r6, #1
 c001e32:	3e01      	subs	r6, #1
		bne forfila
 c001e34:	d1f6      	bne.n	c001e24 <forfila>


		mov r6, #9			//reiniciamos contador para la columna
 c001e36:	2609      	movs	r6, #9

0c001e38 <forcolumna>:

//Recorremos la columna activando los bits necesarios en la mascara
forcolumna:
		ldrh r2, [r4]
 c001e38:	8822      	ldrh	r2, [r4, #0]
		add r4, #32
 c001e3a:	3420      	adds	r4, #32
		lsr r2, r2, #12
 c001e3c:	0b12      	lsrs	r2, r2, #12
		sub r2, r2, #1
 c001e3e:	3a01      	subs	r2, #1
		lsl r7, r7, r2
 c001e40:	4097      	lsls	r7, r2
		orr r1, r7
 c001e42:	4339      	orrs	r1, r7
		mov r7, #1
 c001e44:	2701      	movs	r7, #1

		sub r6, #1
 c001e46:	3e01      	subs	r6, #1
		bne forcolumna
 c001e48:	d1f6      	bne.n	c001e38 <forcolumna>

//Recorremos la regin activando los bits necesarios en la mascara
		mov r6, #3				//contador de filas
 c001e4a:	2603      	movs	r6, #3
		mov r3, #3				//contador de columnas
 c001e4c:	2303      	movs	r3, #3

0c001e4e <forregion>:

forregion:
		ldrh r2, [r0]
 c001e4e:	8802      	ldrh	r2, [r0, #0]
		add r0, #2
 c001e50:	3002      	adds	r0, #2
		lsr r2, r2, #12
 c001e52:	0b12      	lsrs	r2, r2, #12
		sub r2, r2, #1
 c001e54:	3a01      	subs	r2, #1
		lsl r7, r7, r2
 c001e56:	4097      	lsls	r7, r2
		orr r1, r7
 c001e58:	4339      	orrs	r1, r7
		mov r7, #1
 c001e5a:	2701      	movs	r7, #1

		sub r6, #1
 c001e5c:	3e01      	subs	r6, #1
		bne forregion
 c001e5e:	d1f6      	bne.n	c001e4e <forregion>
		mov r6, #3				// Cambio de fila
 c001e60:	2603      	movs	r6, #3

		add r0, #26
 c001e62:	301a      	adds	r0, #26
		sub r3, #1				// Cambio de columna
 c001e64:	3b01      	subs	r3, #1
		bne forregion
 c001e66:	d1f2      	bne.n	c001e4e <forregion>



//aadimos la mscara a la celda (manteniendo el resto de bits)
		ldrb r2, [r5,#1]		// Cargamos el primer byte de la celda
 c001e68:	786a      	ldrb	r2, [r5, #1]
		mov r4, #0XFE			// Borramos el ultimo bit del valor cargado (pertenece a la mascara)
 c001e6a:	24fe      	movs	r4, #254	; 0xfe
		and r2, r4
 c001e6c:	4022      	ands	r2, r4
		lsl r2, #8
 c001e6e:	0212      	lsls	r2, r2, #8
		lsl r4, #1
 c001e70:	0064      	lsls	r4, r4, #1
		add r4, #3				// Invertimos la mascara y la aadimos a la celda
 c001e72:	3403      	adds	r4, #3
		eor r1, r4
 c001e74:	4061      	eors	r1, r4
		orr r2, r1
 c001e76:	430a      	orrs	r2, r1

		strh r2, [r5]			// Almacenamos la celda en su posicin
 c001e78:	802a      	strh	r2, [r5, #0]


		mov r0, #0				// Indicamos celda vacia
 c001e7a:	2000      	movs	r0, #0

0c001e7c <final>:
final:
		pop	{r4-r7}
 c001e7c:	bcf0      	pop	{r4, r5, r6, r7}

        BX      lr
 c001e7e:	4770      	bx	lr

0c001e80 <pista>:

pista:
		mov r0, #1				// Indicamos celda no vacia
 c001e80:	2001      	movs	r0, #1
		b final
 c001e82:	e7fb      	b.n	c001e7c <final>

0c001e84 <Lcd_Init>:
//extern const char *num_ascii[];
extern unsigned int tiempoCalculo;
extern unsigned int tiempoTotal;
/*--- codigo de la funcion ---*/
void Lcd_Init(void)
{       
 c001e84:	e1a0c00d 	mov	ip, sp
 c001e88:	e92dd800 	push	{fp, ip, lr, pc}
 c001e8c:	e24cb004 	sub	fp, ip, #4
	rDITHMODE=0x1223a;
 c001e90:	e59f30fc 	ldr	r3, [pc, #252]	; c001f94 <Lcd_Init+0x110>
 c001e94:	e59f20fc 	ldr	r2, [pc, #252]	; c001f98 <Lcd_Init+0x114>
 c001e98:	e5832000 	str	r2, [r3]
	rDP1_2 =0x5a5a;      
 c001e9c:	e59f30f8 	ldr	r3, [pc, #248]	; c001f9c <Lcd_Init+0x118>
 c001ea0:	e59f20f8 	ldr	r2, [pc, #248]	; c001fa0 <Lcd_Init+0x11c>
 c001ea4:	e5832000 	str	r2, [r3]
	rDP4_7 =0x366cd9b;
 c001ea8:	e59f30f4 	ldr	r3, [pc, #244]	; c001fa4 <Lcd_Init+0x120>
 c001eac:	e59f20f4 	ldr	r2, [pc, #244]	; c001fa8 <Lcd_Init+0x124>
 c001eb0:	e5832000 	str	r2, [r3]
	rDP3_5 =0xda5a7;
 c001eb4:	e59f30f0 	ldr	r3, [pc, #240]	; c001fac <Lcd_Init+0x128>
 c001eb8:	e59f20f0 	ldr	r2, [pc, #240]	; c001fb0 <Lcd_Init+0x12c>
 c001ebc:	e5832000 	str	r2, [r3]
	rDP2_3 =0xad7;
 c001ec0:	e59f30ec 	ldr	r3, [pc, #236]	; c001fb4 <Lcd_Init+0x130>
 c001ec4:	e59f20ec 	ldr	r2, [pc, #236]	; c001fb8 <Lcd_Init+0x134>
 c001ec8:	e5832000 	str	r2, [r3]
	rDP5_7 =0xfeda5b7;
 c001ecc:	e59f30e8 	ldr	r3, [pc, #232]	; c001fbc <Lcd_Init+0x138>
 c001ed0:	e59f20e8 	ldr	r2, [pc, #232]	; c001fc0 <Lcd_Init+0x13c>
 c001ed4:	e5832000 	str	r2, [r3]
	rDP3_4 =0xebd7;
 c001ed8:	e59f30e4 	ldr	r3, [pc, #228]	; c001fc4 <Lcd_Init+0x140>
 c001edc:	e59f20e4 	ldr	r2, [pc, #228]	; c001fc8 <Lcd_Init+0x144>
 c001ee0:	e5832000 	str	r2, [r3]
	rDP4_5 =0xebfd7;
 c001ee4:	e59f30e0 	ldr	r3, [pc, #224]	; c001fcc <Lcd_Init+0x148>
 c001ee8:	e59f20e0 	ldr	r2, [pc, #224]	; c001fd0 <Lcd_Init+0x14c>
 c001eec:	e5832000 	str	r2, [r3]
	rDP6_7 =0x7efdfbf;
 c001ef0:	e59f30dc 	ldr	r3, [pc, #220]	; c001fd4 <Lcd_Init+0x150>
 c001ef4:	e59f20dc 	ldr	r2, [pc, #220]	; c001fd8 <Lcd_Init+0x154>
 c001ef8:	e5832000 	str	r2, [r3]

	rLCDCON1=(0)|(1<<5)|(MVAL_USED<<7)|(0x0<<8)|(0x0<<10)|(CLKVAL_GREY16<<12);
 c001efc:	e3a0361f 	mov	r3, #32505856	; 0x1f00000
 c001f00:	e59f20d4 	ldr	r2, [pc, #212]	; c001fdc <Lcd_Init+0x158>
 c001f04:	e5832000 	str	r2, [r3]
	rLCDCON2=(LINEVAL)|(HOZVAL<<10)|(10<<21); 
 c001f08:	e59f30d0 	ldr	r3, [pc, #208]	; c001fe0 <Lcd_Init+0x15c>
 c001f0c:	e59f20d0 	ldr	r2, [pc, #208]	; c001fe4 <Lcd_Init+0x160>
 c001f10:	e5832000 	str	r2, [r3]
	rLCDSADDR1= (0x2<<27) | ( ((LCD_ACTIVE_BUFFER>>22)<<21 ) | M5D(LCD_ACTIVE_BUFFER>>1));
 c001f14:	e59f30cc 	ldr	r3, [pc, #204]	; c001fe8 <Lcd_Init+0x164>
 c001f18:	e59f20cc 	ldr	r2, [pc, #204]	; c001fec <Lcd_Init+0x168>
 c001f1c:	e5832000 	str	r2, [r3]
 	rLCDSADDR2= M5D(((LCD_ACTIVE_BUFFER+(SCR_XSIZE*LCD_YSIZE/2))>>1)) | (MVAL<<21);
 c001f20:	e59f30c8 	ldr	r3, [pc, #200]	; c001ff0 <Lcd_Init+0x16c>
 c001f24:	e59f20c8 	ldr	r2, [pc, #200]	; c001ff4 <Lcd_Init+0x170>
 c001f28:	e5832000 	str	r2, [r3]
	rLCDSADDR3= (LCD_XSIZE/4) | ( ((SCR_XSIZE-LCD_XSIZE)/4)<<9 );
 c001f2c:	e59f30c4 	ldr	r3, [pc, #196]	; c001ff8 <Lcd_Init+0x174>
 c001f30:	e3a02050 	mov	r2, #80	; 0x50
 c001f34:	e5832000 	str	r2, [r3]
	// enable,4B_SNGL_SCAN,WDLY=8clk,WLH=8clk,
	rLCDCON1=(1)|(1<<5)|(MVAL_USED<<7)|(0x3<<8)|(0x3<<10)|(CLKVAL_GREY16<<12);
 c001f38:	e3a0361f 	mov	r3, #32505856	; 0x1f00000
 c001f3c:	e59f20b8 	ldr	r2, [pc, #184]	; c001ffc <Lcd_Init+0x178>
 c001f40:	e5832000 	str	r2, [r3]
	rBLUELUT=0xfa40;
 c001f44:	e59f30b4 	ldr	r3, [pc, #180]	; c002000 <Lcd_Init+0x17c>
 c001f48:	e59f20b4 	ldr	r2, [pc, #180]	; c002004 <Lcd_Init+0x180>
 c001f4c:	e5832000 	str	r2, [r3]
	//Enable LCD Logic and EL back-light.
	rPDATE=rPDATE&0x0e;
 c001f50:	e59f30b0 	ldr	r3, [pc, #176]	; c002008 <Lcd_Init+0x184>
 c001f54:	e59f20ac 	ldr	r2, [pc, #172]	; c002008 <Lcd_Init+0x184>
 c001f58:	e5922000 	ldr	r2, [r2]
 c001f5c:	e202200e 	and	r2, r2, #14
 c001f60:	e5832000 	str	r2, [r3]
	
	//DMA ISR
	rINTMSK &= ~(BIT_GLOBAL|BIT_ZDMA0);
 c001f64:	e59f20a0 	ldr	r2, [pc, #160]	; c00200c <Lcd_Init+0x188>
 c001f68:	e59f309c 	ldr	r3, [pc, #156]	; c00200c <Lcd_Init+0x188>
 c001f6c:	e5933000 	ldr	r3, [r3]
 c001f70:	e3c33301 	bic	r3, r3, #67108864	; 0x4000000
 c001f74:	e3c33702 	bic	r3, r3, #524288	; 0x80000
 c001f78:	e5823000 	str	r3, [r2]
    pISR_ZDMA0=(int)Zdma0Done;
 c001f7c:	e59f308c 	ldr	r3, [pc, #140]	; c002010 <Lcd_Init+0x18c>
 c001f80:	e59f208c 	ldr	r2, [pc, #140]	; c002014 <Lcd_Init+0x190>
 c001f84:	e5832000 	str	r2, [r3]
}
 c001f88:	e24bd00c 	sub	sp, fp, #12
 c001f8c:	e89d6800 	ldm	sp, {fp, sp, lr}
 c001f90:	e12fff1e 	bx	lr
 c001f94:	01f00044 	.word	0x01f00044
 c001f98:	0001223a 	.word	0x0001223a
 c001f9c:	01f00020 	.word	0x01f00020
 c001fa0:	00005a5a 	.word	0x00005a5a
 c001fa4:	01f00024 	.word	0x01f00024
 c001fa8:	0366cd9b 	.word	0x0366cd9b
 c001fac:	01f00028 	.word	0x01f00028
 c001fb0:	000da5a7 	.word	0x000da5a7
 c001fb4:	01f0002c 	.word	0x01f0002c
 c001fb8:	00000ad7 	.word	0x00000ad7
 c001fbc:	01f00030 	.word	0x01f00030
 c001fc0:	0feda5b7 	.word	0x0feda5b7
 c001fc4:	01f00034 	.word	0x01f00034
 c001fc8:	0000ebd7 	.word	0x0000ebd7
 c001fcc:	01f00038 	.word	0x01f00038
 c001fd0:	000ebfd7 	.word	0x000ebfd7
 c001fd4:	01f0003c 	.word	0x01f0003c
 c001fd8:	07efdfbf 	.word	0x07efdfbf
 c001fdc:	0000c020 	.word	0x0000c020
 c001fe0:	01f00004 	.word	0x01f00004
 c001fe4:	01413cef 	.word	0x01413cef
 c001fe8:	01f00008 	.word	0x01f00008
 c001fec:	16180000 	.word	0x16180000
 c001ff0:	01f0000c 	.word	0x01f0000c
 c001ff4:	01b84b00 	.word	0x01b84b00
 c001ff8:	01f00010 	.word	0x01f00010
 c001ffc:	0000cf21 	.word	0x0000cf21
 c002000:	01f0001c 	.word	0x01f0001c
 c002004:	0000fa40 	.word	0x0000fa40
 c002008:	01d2002c 	.word	0x01d2002c
 c00200c:	01e0000c 	.word	0x01e0000c
 c002010:	0c7fff6c 	.word	0x0c7fff6c
 c002014:	0c003a48 	.word	0x0c003a48

0c002018 <Lcd_Active_Clr>:
* ret:		none
* modify:
* comment:		
*********************************************************************************************/
void Lcd_Active_Clr(void)
{
 c002018:	e1a0c00d 	mov	ip, sp
 c00201c:	e92dd800 	push	{fp, ip, lr, pc}
 c002020:	e24cb004 	sub	fp, ip, #4
 c002024:	e24dd008 	sub	sp, sp, #8
	INT32U i;
	INT32U *pDisp = (INT32U *)LCD_ACTIVE_BUFFER;
 c002028:	e3a036c3 	mov	r3, #204472320	; 0xc300000
 c00202c:	e50b3014 	str	r3, [fp, #-20]	; 0xffffffec
	
	for( i = 0; i < (SCR_XSIZE*SCR_YSIZE/2/4); i++ )
 c002030:	e3a03000 	mov	r3, #0
 c002034:	e50b3010 	str	r3, [fp, #-16]
 c002038:	ea000008 	b	c002060 <Lcd_Active_Clr+0x48>
	{
		*pDisp++ = WHITE;
 c00203c:	e51b3014 	ldr	r3, [fp, #-20]	; 0xffffffec
 c002040:	e3a02000 	mov	r2, #0
 c002044:	e5832000 	str	r2, [r3]
 c002048:	e51b3014 	ldr	r3, [fp, #-20]	; 0xffffffec
 c00204c:	e2833004 	add	r3, r3, #4
 c002050:	e50b3014 	str	r3, [fp, #-20]	; 0xffffffec
void Lcd_Active_Clr(void)
{
	INT32U i;
	INT32U *pDisp = (INT32U *)LCD_ACTIVE_BUFFER;
	
	for( i = 0; i < (SCR_XSIZE*SCR_YSIZE/2/4); i++ )
 c002054:	e51b3010 	ldr	r3, [fp, #-16]
 c002058:	e2833001 	add	r3, r3, #1
 c00205c:	e50b3010 	str	r3, [fp, #-16]
 c002060:	e51b2010 	ldr	r2, [fp, #-16]
 c002064:	e59f3010 	ldr	r3, [pc, #16]	; c00207c <Lcd_Active_Clr+0x64>
 c002068:	e1520003 	cmp	r2, r3
 c00206c:	9afffff2 	bls	c00203c <Lcd_Active_Clr+0x24>
	{
		*pDisp++ = WHITE;
	}
}
 c002070:	e24bd00c 	sub	sp, fp, #12
 c002074:	e89d6800 	ldm	sp, {fp, sp, lr}
 c002078:	e12fff1e 	bx	lr
 c00207c:	0000257f 	.word	0x0000257f

0c002080 <LCD_GetPixel>:
* ret:		pot's color value
* modify:
* comment:		
*********************************************************************************************/
INT8U LCD_GetPixel(INT16U usX, INT16U usY)
{
 c002080:	e1a0c00d 	mov	ip, sp
 c002084:	e92dd800 	push	{fp, ip, lr, pc}
 c002088:	e24cb004 	sub	fp, ip, #4
 c00208c:	e24dd010 	sub	sp, sp, #16
 c002090:	e1a02000 	mov	r2, r0
 c002094:	e1a03001 	mov	r3, r1
 c002098:	e14b21b6 	strh	r2, [fp, #-22]	; 0xffffffea
 c00209c:	e14b31b8 	strh	r3, [fp, #-24]	; 0xffffffe8
	INT8U ucColor;

	ucColor = *((INT8U*)(LCD_VIRTUAL_BUFFER + usY*SCR_XSIZE/2 + usX/8*4 + 3 - (usX%8)/2));
 c0020a0:	e15b21b8 	ldrh	r2, [fp, #-24]	; 0xffffffe8
 c0020a4:	e1a03002 	mov	r3, r2
 c0020a8:	e1a03103 	lsl	r3, r3, #2
 c0020ac:	e0833002 	add	r3, r3, r2
 c0020b0:	e1a03303 	lsl	r3, r3, #6
 c0020b4:	e1a02fa3 	lsr	r2, r3, #31
 c0020b8:	e0823003 	add	r3, r2, r3
 c0020bc:	e1a030c3 	asr	r3, r3, #1
 c0020c0:	e28336c3 	add	r3, r3, #204472320	; 0xc300000
 c0020c4:	e2833c96 	add	r3, r3, #38400	; 0x9600
 c0020c8:	e15b21b6 	ldrh	r2, [fp, #-22]	; 0xffffffea
 c0020cc:	e1a021a2 	lsr	r2, r2, #3
 c0020d0:	e1a02802 	lsl	r2, r2, #16
 c0020d4:	e1a02822 	lsr	r2, r2, #16
 c0020d8:	e1a02102 	lsl	r2, r2, #2
 c0020dc:	e0833002 	add	r3, r3, r2
 c0020e0:	e2832003 	add	r2, r3, #3
 c0020e4:	e15b31b6 	ldrh	r3, [fp, #-22]	; 0xffffffea
 c0020e8:	e2033007 	and	r3, r3, #7
 c0020ec:	e1a03803 	lsl	r3, r3, #16
 c0020f0:	e1a03823 	lsr	r3, r3, #16
 c0020f4:	e1a030a3 	lsr	r3, r3, #1
 c0020f8:	e1a03803 	lsl	r3, r3, #16
 c0020fc:	e1a03823 	lsr	r3, r3, #16
 c002100:	e0633002 	rsb	r3, r3, r2
 c002104:	e5d33000 	ldrb	r3, [r3]
 c002108:	e54b300d 	strb	r3, [fp, #-13]
	ucColor = (ucColor >> ((1-(usX%2))*4)) & 0x0f;
 c00210c:	e55b200d 	ldrb	r2, [fp, #-13]
 c002110:	e15b31b6 	ldrh	r3, [fp, #-22]	; 0xffffffea
 c002114:	e2033001 	and	r3, r3, #1
 c002118:	e3530000 	cmp	r3, #0
 c00211c:	1a000001 	bne	c002128 <LCD_GetPixel+0xa8>
 c002120:	e3a03004 	mov	r3, #4
 c002124:	ea000000 	b	c00212c <LCD_GetPixel+0xac>
 c002128:	e3a03000 	mov	r3, #0
 c00212c:	e1a03352 	asr	r3, r2, r3
 c002130:	e20330ff 	and	r3, r3, #255	; 0xff
 c002134:	e203300f 	and	r3, r3, #15
 c002138:	e54b300d 	strb	r3, [fp, #-13]
	return ucColor;
 c00213c:	e55b300d 	ldrb	r3, [fp, #-13]
}
 c002140:	e1a00003 	mov	r0, r3
 c002144:	e24bd00c 	sub	sp, fp, #12
 c002148:	e89d6800 	ldm	sp, {fp, sp, lr}
 c00214c:	e12fff1e 	bx	lr

0c002150 <Lcd_Clr>:
* ret:		none
* modify:
* comment:		
*********************************************************************************************/
void Lcd_Clr(void)
{
 c002150:	e1a0c00d 	mov	ip, sp
 c002154:	e92dd800 	push	{fp, ip, lr, pc}
 c002158:	e24cb004 	sub	fp, ip, #4
 c00215c:	e24dd008 	sub	sp, sp, #8
	INT32U i;
	INT32U *pDisp = (INT32U *)LCD_VIRTUAL_BUFFER;
 c002160:	e59f304c 	ldr	r3, [pc, #76]	; c0021b4 <Lcd_Clr+0x64>
 c002164:	e50b3014 	str	r3, [fp, #-20]	; 0xffffffec
	
	for( i = 0; i < (SCR_XSIZE*SCR_YSIZE/2/4); i++ )
 c002168:	e3a03000 	mov	r3, #0
 c00216c:	e50b3010 	str	r3, [fp, #-16]
 c002170:	ea000008 	b	c002198 <Lcd_Clr+0x48>
	{
		*pDisp++ = WHITE;
 c002174:	e51b3014 	ldr	r3, [fp, #-20]	; 0xffffffec
 c002178:	e3a02000 	mov	r2, #0
 c00217c:	e5832000 	str	r2, [r3]
 c002180:	e51b3014 	ldr	r3, [fp, #-20]	; 0xffffffec
 c002184:	e2833004 	add	r3, r3, #4
 c002188:	e50b3014 	str	r3, [fp, #-20]	; 0xffffffec
void Lcd_Clr(void)
{
	INT32U i;
	INT32U *pDisp = (INT32U *)LCD_VIRTUAL_BUFFER;
	
	for( i = 0; i < (SCR_XSIZE*SCR_YSIZE/2/4); i++ )
 c00218c:	e51b3010 	ldr	r3, [fp, #-16]
 c002190:	e2833001 	add	r3, r3, #1
 c002194:	e50b3010 	str	r3, [fp, #-16]
 c002198:	e51b2010 	ldr	r2, [fp, #-16]
 c00219c:	e59f3014 	ldr	r3, [pc, #20]	; c0021b8 <Lcd_Clr+0x68>
 c0021a0:	e1520003 	cmp	r2, r3
 c0021a4:	9afffff2 	bls	c002174 <Lcd_Clr+0x24>
	{
		*pDisp++ = WHITE;
	}
}
 c0021a8:	e24bd00c 	sub	sp, fp, #12
 c0021ac:	e89d6800 	ldm	sp, {fp, sp, lr}
 c0021b0:	e12fff1e 	bx	lr
 c0021b4:	0c309600 	.word	0x0c309600
 c0021b8:	0000257f 	.word	0x0000257f

0c0021bc <LcdClrRect>:
* ret:		none
* modify:
* comment:	also as clear screen function 
*********************************************************************************************/
void LcdClrRect(INT16 usLeft, INT16 usTop, INT16 usRight, INT16 usBottom, INT8U ucColor)
{
 c0021bc:	e1a0c00d 	mov	ip, sp
 c0021c0:	e92dd800 	push	{fp, ip, lr, pc}
 c0021c4:	e24cb004 	sub	fp, ip, #4
 c0021c8:	e24dd018 	sub	sp, sp, #24
 c0021cc:	e14b01be 	strh	r0, [fp, #-30]	; 0xffffffe2
 c0021d0:	e14b12b0 	strh	r1, [fp, #-32]	; 0xffffffe0
 c0021d4:	e14b22b2 	strh	r2, [fp, #-34]	; 0xffffffde
 c0021d8:	e14b32b4 	strh	r3, [fp, #-36]	; 0xffffffdc
	INT16 i,k,l,m;
	
	INT32U ulColor = (ucColor << 28) | (ucColor << 24) | (ucColor << 20) | (ucColor << 16) | 
 c0021dc:	e5db3004 	ldrb	r3, [fp, #4]
 c0021e0:	e1a02e03 	lsl	r2, r3, #28
 c0021e4:	e5db3004 	ldrb	r3, [fp, #4]
 c0021e8:	e1a03c03 	lsl	r3, r3, #24
 c0021ec:	e1822003 	orr	r2, r2, r3
 c0021f0:	e5db3004 	ldrb	r3, [fp, #4]
 c0021f4:	e1a03a03 	lsl	r3, r3, #20
 c0021f8:	e1822003 	orr	r2, r2, r3
 c0021fc:	e5db3004 	ldrb	r3, [fp, #4]
 c002200:	e1a03803 	lsl	r3, r3, #16
 c002204:	e1822003 	orr	r2, r2, r3
				     (ucColor << 12) | (ucColor << 8) | (ucColor << 4) | ucColor;
 c002208:	e5db3004 	ldrb	r3, [fp, #4]
 c00220c:	e1a03603 	lsl	r3, r3, #12
*********************************************************************************************/
void LcdClrRect(INT16 usLeft, INT16 usTop, INT16 usRight, INT16 usBottom, INT8U ucColor)
{
	INT16 i,k,l,m;
	
	INT32U ulColor = (ucColor << 28) | (ucColor << 24) | (ucColor << 20) | (ucColor << 16) | 
 c002210:	e1822003 	orr	r2, r2, r3
				     (ucColor << 12) | (ucColor << 8) | (ucColor << 4) | ucColor;
 c002214:	e5db3004 	ldrb	r3, [fp, #4]
 c002218:	e1a03403 	lsl	r3, r3, #8
 c00221c:	e1822003 	orr	r2, r2, r3
 c002220:	e5db3004 	ldrb	r3, [fp, #4]
 c002224:	e1a03203 	lsl	r3, r3, #4
 c002228:	e1822003 	orr	r2, r2, r3
 c00222c:	e5db3004 	ldrb	r3, [fp, #4]
 c002230:	e1823003 	orr	r3, r2, r3
*********************************************************************************************/
void LcdClrRect(INT16 usLeft, INT16 usTop, INT16 usRight, INT16 usBottom, INT8U ucColor)
{
	INT16 i,k,l,m;
	
	INT32U ulColor = (ucColor << 28) | (ucColor << 24) | (ucColor << 20) | (ucColor << 16) | 
 c002234:	e50b3018 	str	r3, [fp, #-24]	; 0xffffffe8
				     (ucColor << 12) | (ucColor << 8) | (ucColor << 4) | ucColor;

	i = k = l = m = 0;	
 c002238:	e3a03000 	mov	r3, #0
 c00223c:	e14b31b4 	strh	r3, [fp, #-20]	; 0xffffffec
 c002240:	e15b31b4 	ldrh	r3, [fp, #-20]	; 0xffffffec
 c002244:	e14b31b2 	strh	r3, [fp, #-18]	; 0xffffffee
 c002248:	e15b31b2 	ldrh	r3, [fp, #-18]	; 0xffffffee
 c00224c:	e14b31b0 	strh	r3, [fp, #-16]
 c002250:	e15b31b0 	ldrh	r3, [fp, #-16]
 c002254:	e14b30be 	strh	r3, [fp, #-14]
	if( (usRight-usLeft) <= 8 )
 c002258:	e15b22f2 	ldrsh	r2, [fp, #-34]	; 0xffffffde
 c00225c:	e15b31fe 	ldrsh	r3, [fp, #-30]	; 0xffffffe2
 c002260:	e0633002 	rsb	r3, r3, r2
 c002264:	e3530008 	cmp	r3, #8
 c002268:	ca00005f 	bgt	c0023ec <LcdClrRect+0x230>
	{
		for( i=usTop; i<=usBottom; i++)
 c00226c:	e15b32b0 	ldrh	r3, [fp, #-32]	; 0xffffffe0
 c002270:	e14b30be 	strh	r3, [fp, #-14]
 c002274:	ea000057 	b	c0023d8 <LcdClrRect+0x21c>
		{
			for( m=usLeft; m<=usRight; m++)
 c002278:	e15b31be 	ldrh	r3, [fp, #-30]	; 0xffffffe2
 c00227c:	e14b31b4 	strh	r3, [fp, #-20]	; 0xffffffec
 c002280:	ea00004d 	b	c0023bc <LcdClrRect+0x200>
			{
				(LCD_PutPixel(m, i, ucColor));
 c002284:	e15b20fe 	ldrsh	r2, [fp, #-14]
 c002288:	e1a03002 	mov	r3, r2
 c00228c:	e1a03103 	lsl	r3, r3, #2
 c002290:	e0833002 	add	r3, r3, r2
 c002294:	e1a03303 	lsl	r3, r3, #6
 c002298:	e1a02fa3 	lsr	r2, r3, #31
 c00229c:	e0823003 	add	r3, r2, r3
 c0022a0:	e1a030c3 	asr	r3, r3, #1
 c0022a4:	e28326c3 	add	r2, r3, #204472320	; 0xc300000
 c0022a8:	e2822c96 	add	r2, r2, #38400	; 0x9600
 c0022ac:	e15b31f4 	ldrsh	r3, [fp, #-20]	; 0xffffffec
 c0022b0:	e2831007 	add	r1, r3, #7
 c0022b4:	e3530000 	cmp	r3, #0
 c0022b8:	b1a03001 	movlt	r3, r1
 c0022bc:	e1a031c3 	asr	r3, r3, #3
 c0022c0:	e1a03803 	lsl	r3, r3, #16
 c0022c4:	e1a03823 	lsr	r3, r3, #16
 c0022c8:	e1a03803 	lsl	r3, r3, #16
 c0022cc:	e1a03843 	asr	r3, r3, #16
 c0022d0:	e1a03103 	lsl	r3, r3, #2
 c0022d4:	e0823003 	add	r3, r2, r3
 c0022d8:	e1a01003 	mov	r1, r3
 c0022dc:	e15b20fe 	ldrsh	r2, [fp, #-14]
 c0022e0:	e1a03002 	mov	r3, r2
 c0022e4:	e1a03103 	lsl	r3, r3, #2
 c0022e8:	e0833002 	add	r3, r3, r2
 c0022ec:	e1a03303 	lsl	r3, r3, #6
 c0022f0:	e1a02fa3 	lsr	r2, r3, #31
 c0022f4:	e0823003 	add	r3, r2, r3
 c0022f8:	e1a030c3 	asr	r3, r3, #1
 c0022fc:	e28326c3 	add	r2, r3, #204472320	; 0xc300000
 c002300:	e2822c96 	add	r2, r2, #38400	; 0x9600
 c002304:	e15b31f4 	ldrsh	r3, [fp, #-20]	; 0xffffffec
 c002308:	e2830007 	add	r0, r3, #7
 c00230c:	e3530000 	cmp	r3, #0
 c002310:	b1a03000 	movlt	r3, r0
 c002314:	e1a031c3 	asr	r3, r3, #3
 c002318:	e1a03803 	lsl	r3, r3, #16
 c00231c:	e1a03823 	lsr	r3, r3, #16
 c002320:	e1a03803 	lsl	r3, r3, #16
 c002324:	e1a03843 	asr	r3, r3, #16
 c002328:	e1a03103 	lsl	r3, r3, #2
 c00232c:	e0823003 	add	r3, r2, r3
 c002330:	e5930000 	ldr	r0, [r3]
 c002334:	e15b21f4 	ldrsh	r2, [fp, #-20]	; 0xffffffec
 c002338:	e1a03fc2 	asr	r3, r2, #31
 c00233c:	e1a03ea3 	lsr	r3, r3, #29
 c002340:	e0822003 	add	r2, r2, r3
 c002344:	e2022007 	and	r2, r2, #7
 c002348:	e0633002 	rsb	r3, r3, r2
 c00234c:	e1a03803 	lsl	r3, r3, #16
 c002350:	e1a03823 	lsr	r3, r3, #16
 c002354:	e1a03803 	lsl	r3, r3, #16
 c002358:	e1a03843 	asr	r3, r3, #16
 c00235c:	e1a03103 	lsl	r3, r3, #2
 c002360:	e3a0220f 	mov	r2, #-268435456	; 0xf0000000
 c002364:	e1a03332 	lsr	r3, r2, r3
 c002368:	e1e03003 	mvn	r3, r3
 c00236c:	e0000003 	and	r0, r0, r3
 c002370:	e5dbc004 	ldrb	ip, [fp, #4]
 c002374:	e15b21f4 	ldrsh	r2, [fp, #-20]	; 0xffffffec
 c002378:	e1a03fc2 	asr	r3, r2, #31
 c00237c:	e1a03ea3 	lsr	r3, r3, #29
 c002380:	e0822003 	add	r2, r2, r3
 c002384:	e2022007 	and	r2, r2, #7
 c002388:	e0633002 	rsb	r3, r3, r2
 c00238c:	e1a03803 	lsl	r3, r3, #16
 c002390:	e1a03823 	lsr	r3, r3, #16
 c002394:	e1a03803 	lsl	r3, r3, #16
 c002398:	e1a03843 	asr	r3, r3, #16
 c00239c:	e2633007 	rsb	r3, r3, #7
 c0023a0:	e1a03103 	lsl	r3, r3, #2
 c0023a4:	e1a0331c 	lsl	r3, ip, r3
 c0023a8:	e1803003 	orr	r3, r0, r3
 c0023ac:	e5813000 	str	r3, [r1]
	i = k = l = m = 0;	
	if( (usRight-usLeft) <= 8 )
	{
		for( i=usTop; i<=usBottom; i++)
		{
			for( m=usLeft; m<=usRight; m++)
 c0023b0:	e15b31b4 	ldrh	r3, [fp, #-20]	; 0xffffffec
 c0023b4:	e2833001 	add	r3, r3, #1
 c0023b8:	e14b31b4 	strh	r3, [fp, #-20]	; 0xffffffec
 c0023bc:	e15b21f4 	ldrsh	r2, [fp, #-20]	; 0xffffffec
 c0023c0:	e15b32f2 	ldrsh	r3, [fp, #-34]	; 0xffffffde
 c0023c4:	e1520003 	cmp	r2, r3
 c0023c8:	daffffad 	ble	c002284 <LcdClrRect+0xc8>
				     (ucColor << 12) | (ucColor << 8) | (ucColor << 4) | ucColor;

	i = k = l = m = 0;	
	if( (usRight-usLeft) <= 8 )
	{
		for( i=usTop; i<=usBottom; i++)
 c0023cc:	e15b30be 	ldrh	r3, [fp, #-14]
 c0023d0:	e2833001 	add	r3, r3, #1
 c0023d4:	e14b30be 	strh	r3, [fp, #-14]
 c0023d8:	e15b20fe 	ldrsh	r2, [fp, #-14]
 c0023dc:	e15b32f4 	ldrsh	r3, [fp, #-36]	; 0xffffffdc
 c0023e0:	e1520003 	cmp	r2, r3
 c0023e4:	daffffa3 	ble	c002278 <LcdClrRect+0xbc>
			for( m=usLeft; m<=usRight; m++)
			{
				(LCD_PutPixel(m, i, ucColor));
			}
		}	
		return;
 c0023e8:	ea000104 	b	c002800 <LcdClrRect+0x644>
	}

	/* check borderline */
	if( 0 == (usLeft%8) )
 c0023ec:	e15b31be 	ldrh	r3, [fp, #-30]	; 0xffffffe2
 c0023f0:	e2033007 	and	r3, r3, #7
 c0023f4:	e1a03803 	lsl	r3, r3, #16
 c0023f8:	e1a03823 	lsr	r3, r3, #16
 c0023fc:	e3530000 	cmp	r3, #0
 c002400:	1a000002 	bne	c002410 <LcdClrRect+0x254>
		k=usLeft;
 c002404:	e15b31be 	ldrh	r3, [fp, #-30]	; 0xffffffe2
 c002408:	e14b31b0 	strh	r3, [fp, #-16]
 c00240c:	ea00000f 	b	c002450 <LcdClrRect+0x294>
	else
	{
		k=(usLeft/8)*8+8;
 c002410:	e15b31fe 	ldrsh	r3, [fp, #-30]	; 0xffffffe2
 c002414:	e2832007 	add	r2, r3, #7
 c002418:	e3530000 	cmp	r3, #0
 c00241c:	b1a03002 	movlt	r3, r2
 c002420:	e1a031c3 	asr	r3, r3, #3
 c002424:	e1a03803 	lsl	r3, r3, #16
 c002428:	e1a03823 	lsr	r3, r3, #16
 c00242c:	e1a03803 	lsl	r3, r3, #16
 c002430:	e1a03843 	asr	r3, r3, #16
 c002434:	e2833001 	add	r3, r3, #1
 c002438:	e1a03803 	lsl	r3, r3, #16
 c00243c:	e1a03823 	lsr	r3, r3, #16
 c002440:	e1a03183 	lsl	r3, r3, #3
 c002444:	e1a03803 	lsl	r3, r3, #16
 c002448:	e1a03823 	lsr	r3, r3, #16
 c00244c:	e14b31b0 	strh	r3, [fp, #-16]
	}
	if( 0 == (usRight%8) )
 c002450:	e15b32b2 	ldrh	r3, [fp, #-34]	; 0xffffffde
 c002454:	e2033007 	and	r3, r3, #7
 c002458:	e1a03803 	lsl	r3, r3, #16
 c00245c:	e1a03823 	lsr	r3, r3, #16
 c002460:	e3530000 	cmp	r3, #0
 c002464:	1a000002 	bne	c002474 <LcdClrRect+0x2b8>
		l= usRight;
 c002468:	e15b32b2 	ldrh	r3, [fp, #-34]	; 0xffffffde
 c00246c:	e14b31b2 	strh	r3, [fp, #-18]	; 0xffffffee
 c002470:	ea00000c 	b	c0024a8 <LcdClrRect+0x2ec>
	else
	{
		l=(usRight/8)*8;
 c002474:	e15b32f2 	ldrsh	r3, [fp, #-34]	; 0xffffffde
 c002478:	e2832007 	add	r2, r3, #7
 c00247c:	e3530000 	cmp	r3, #0
 c002480:	b1a03002 	movlt	r3, r2
 c002484:	e1a031c3 	asr	r3, r3, #3
 c002488:	e1a03803 	lsl	r3, r3, #16
 c00248c:	e1a03823 	lsr	r3, r3, #16
 c002490:	e1a03803 	lsl	r3, r3, #16
 c002494:	e1a03823 	lsr	r3, r3, #16
 c002498:	e1a03183 	lsl	r3, r3, #3
 c00249c:	e1a03803 	lsl	r3, r3, #16
 c0024a0:	e1a03823 	lsr	r3, r3, #16
 c0024a4:	e14b31b2 	strh	r3, [fp, #-18]	; 0xffffffee
	}

	for( i=usTop; i<=usBottom; i++ )
 c0024a8:	e15b32b0 	ldrh	r3, [fp, #-32]	; 0xffffffe0
 c0024ac:	e14b30be 	strh	r3, [fp, #-14]
 c0024b0:	ea0000ce 	b	c0027f0 <LcdClrRect+0x634>
	{
		for( m=usLeft; m<=(k-1); m++ )
 c0024b4:	e15b31be 	ldrh	r3, [fp, #-30]	; 0xffffffe2
 c0024b8:	e14b31b4 	strh	r3, [fp, #-20]	; 0xffffffec
 c0024bc:	ea00004d 	b	c0025f8 <LcdClrRect+0x43c>
		{
			(LCD_PutPixel(m, i, ucColor));
 c0024c0:	e15b20fe 	ldrsh	r2, [fp, #-14]
 c0024c4:	e1a03002 	mov	r3, r2
 c0024c8:	e1a03103 	lsl	r3, r3, #2
 c0024cc:	e0833002 	add	r3, r3, r2
 c0024d0:	e1a03303 	lsl	r3, r3, #6
 c0024d4:	e1a02fa3 	lsr	r2, r3, #31
 c0024d8:	e0823003 	add	r3, r2, r3
 c0024dc:	e1a030c3 	asr	r3, r3, #1
 c0024e0:	e28326c3 	add	r2, r3, #204472320	; 0xc300000
 c0024e4:	e2822c96 	add	r2, r2, #38400	; 0x9600
 c0024e8:	e15b31f4 	ldrsh	r3, [fp, #-20]	; 0xffffffec
 c0024ec:	e2831007 	add	r1, r3, #7
 c0024f0:	e3530000 	cmp	r3, #0
 c0024f4:	b1a03001 	movlt	r3, r1
 c0024f8:	e1a031c3 	asr	r3, r3, #3
 c0024fc:	e1a03803 	lsl	r3, r3, #16
 c002500:	e1a03823 	lsr	r3, r3, #16
 c002504:	e1a03803 	lsl	r3, r3, #16
 c002508:	e1a03843 	asr	r3, r3, #16
 c00250c:	e1a03103 	lsl	r3, r3, #2
 c002510:	e0823003 	add	r3, r2, r3
 c002514:	e1a01003 	mov	r1, r3
 c002518:	e15b20fe 	ldrsh	r2, [fp, #-14]
 c00251c:	e1a03002 	mov	r3, r2
 c002520:	e1a03103 	lsl	r3, r3, #2
 c002524:	e0833002 	add	r3, r3, r2
 c002528:	e1a03303 	lsl	r3, r3, #6
 c00252c:	e1a02fa3 	lsr	r2, r3, #31
 c002530:	e0823003 	add	r3, r2, r3
 c002534:	e1a030c3 	asr	r3, r3, #1
 c002538:	e28326c3 	add	r2, r3, #204472320	; 0xc300000
 c00253c:	e2822c96 	add	r2, r2, #38400	; 0x9600
 c002540:	e15b31f4 	ldrsh	r3, [fp, #-20]	; 0xffffffec
 c002544:	e2830007 	add	r0, r3, #7
 c002548:	e3530000 	cmp	r3, #0
 c00254c:	b1a03000 	movlt	r3, r0
 c002550:	e1a031c3 	asr	r3, r3, #3
 c002554:	e1a03803 	lsl	r3, r3, #16
 c002558:	e1a03823 	lsr	r3, r3, #16
 c00255c:	e1a03803 	lsl	r3, r3, #16
 c002560:	e1a03843 	asr	r3, r3, #16
 c002564:	e1a03103 	lsl	r3, r3, #2
 c002568:	e0823003 	add	r3, r2, r3
 c00256c:	e5930000 	ldr	r0, [r3]
 c002570:	e15b21f4 	ldrsh	r2, [fp, #-20]	; 0xffffffec
 c002574:	e1a03fc2 	asr	r3, r2, #31
 c002578:	e1a03ea3 	lsr	r3, r3, #29
 c00257c:	e0822003 	add	r2, r2, r3
 c002580:	e2022007 	and	r2, r2, #7
 c002584:	e0633002 	rsb	r3, r3, r2
 c002588:	e1a03803 	lsl	r3, r3, #16
 c00258c:	e1a03823 	lsr	r3, r3, #16
 c002590:	e1a03803 	lsl	r3, r3, #16
 c002594:	e1a03843 	asr	r3, r3, #16
 c002598:	e1a03103 	lsl	r3, r3, #2
 c00259c:	e3a0220f 	mov	r2, #-268435456	; 0xf0000000
 c0025a0:	e1a03332 	lsr	r3, r2, r3
 c0025a4:	e1e03003 	mvn	r3, r3
 c0025a8:	e0000003 	and	r0, r0, r3
 c0025ac:	e5dbc004 	ldrb	ip, [fp, #4]
 c0025b0:	e15b21f4 	ldrsh	r2, [fp, #-20]	; 0xffffffec
 c0025b4:	e1a03fc2 	asr	r3, r2, #31
 c0025b8:	e1a03ea3 	lsr	r3, r3, #29
 c0025bc:	e0822003 	add	r2, r2, r3
 c0025c0:	e2022007 	and	r2, r2, #7
 c0025c4:	e0633002 	rsb	r3, r3, r2
 c0025c8:	e1a03803 	lsl	r3, r3, #16
 c0025cc:	e1a03823 	lsr	r3, r3, #16
 c0025d0:	e1a03803 	lsl	r3, r3, #16
 c0025d4:	e1a03843 	asr	r3, r3, #16
 c0025d8:	e2633007 	rsb	r3, r3, #7
 c0025dc:	e1a03103 	lsl	r3, r3, #2
 c0025e0:	e1a0331c 	lsl	r3, ip, r3
 c0025e4:	e1803003 	orr	r3, r0, r3
 c0025e8:	e5813000 	str	r3, [r1]
		l=(usRight/8)*8;
	}

	for( i=usTop; i<=usBottom; i++ )
	{
		for( m=usLeft; m<=(k-1); m++ )
 c0025ec:	e15b31b4 	ldrh	r3, [fp, #-20]	; 0xffffffec
 c0025f0:	e2833001 	add	r3, r3, #1
 c0025f4:	e14b31b4 	strh	r3, [fp, #-20]	; 0xffffffec
 c0025f8:	e15b21f4 	ldrsh	r2, [fp, #-20]	; 0xffffffec
 c0025fc:	e15b31f0 	ldrsh	r3, [fp, #-16]
 c002600:	e2433001 	sub	r3, r3, #1
 c002604:	e1520003 	cmp	r2, r3
 c002608:	daffffac 	ble	c0024c0 <LcdClrRect+0x304>
		{
			(LCD_PutPixel(m, i, ucColor));
		}
		for( m=k; m<l; m+=8 )
 c00260c:	e15b31b0 	ldrh	r3, [fp, #-16]
 c002610:	e14b31b4 	strh	r3, [fp, #-20]	; 0xffffffec
 c002614:	ea000019 	b	c002680 <LcdClrRect+0x4c4>
		{
			(*(INT32U*)(LCD_VIRTUAL_BUFFER + i * SCR_XSIZE / 2 + m / 2)) = ulColor;
 c002618:	e15b20fe 	ldrsh	r2, [fp, #-14]
 c00261c:	e1a03002 	mov	r3, r2
 c002620:	e1a03103 	lsl	r3, r3, #2
 c002624:	e0833002 	add	r3, r3, r2
 c002628:	e1a03303 	lsl	r3, r3, #6
 c00262c:	e1a02fa3 	lsr	r2, r3, #31
 c002630:	e0823003 	add	r3, r2, r3
 c002634:	e1a030c3 	asr	r3, r3, #1
 c002638:	e28336c3 	add	r3, r3, #204472320	; 0xc300000
 c00263c:	e2833c96 	add	r3, r3, #38400	; 0x9600
 c002640:	e15b21f4 	ldrsh	r2, [fp, #-20]	; 0xffffffec
 c002644:	e1a01fa2 	lsr	r1, r2, #31
 c002648:	e0812002 	add	r2, r1, r2
 c00264c:	e1a020c2 	asr	r2, r2, #1
 c002650:	e1a02802 	lsl	r2, r2, #16
 c002654:	e1a02822 	lsr	r2, r2, #16
 c002658:	e1a02802 	lsl	r2, r2, #16
 c00265c:	e1a02842 	asr	r2, r2, #16
 c002660:	e0833002 	add	r3, r3, r2
 c002664:	e51b2018 	ldr	r2, [fp, #-24]	; 0xffffffe8
 c002668:	e5832000 	str	r2, [r3]
	{
		for( m=usLeft; m<=(k-1); m++ )
		{
			(LCD_PutPixel(m, i, ucColor));
		}
		for( m=k; m<l; m+=8 )
 c00266c:	e15b31b4 	ldrh	r3, [fp, #-20]	; 0xffffffec
 c002670:	e2833008 	add	r3, r3, #8
 c002674:	e1a03803 	lsl	r3, r3, #16
 c002678:	e1a03823 	lsr	r3, r3, #16
 c00267c:	e14b31b4 	strh	r3, [fp, #-20]	; 0xffffffec
 c002680:	e15b21f4 	ldrsh	r2, [fp, #-20]	; 0xffffffec
 c002684:	e15b31f2 	ldrsh	r3, [fp, #-18]	; 0xffffffee
 c002688:	e1520003 	cmp	r2, r3
 c00268c:	baffffe1 	blt	c002618 <LcdClrRect+0x45c>
		{
			(*(INT32U*)(LCD_VIRTUAL_BUFFER + i * SCR_XSIZE / 2 + m / 2)) = ulColor;
		}
		for( m=l; m<=usRight; m++ )
 c002690:	e15b31b2 	ldrh	r3, [fp, #-18]	; 0xffffffee
 c002694:	e14b31b4 	strh	r3, [fp, #-20]	; 0xffffffec
 c002698:	ea00004d 	b	c0027d4 <LcdClrRect+0x618>
		{
			(LCD_PutPixel(m, i, ucColor));
 c00269c:	e15b20fe 	ldrsh	r2, [fp, #-14]
 c0026a0:	e1a03002 	mov	r3, r2
 c0026a4:	e1a03103 	lsl	r3, r3, #2
 c0026a8:	e0833002 	add	r3, r3, r2
 c0026ac:	e1a03303 	lsl	r3, r3, #6
 c0026b0:	e1a02fa3 	lsr	r2, r3, #31
 c0026b4:	e0823003 	add	r3, r2, r3
 c0026b8:	e1a030c3 	asr	r3, r3, #1
 c0026bc:	e28326c3 	add	r2, r3, #204472320	; 0xc300000
 c0026c0:	e2822c96 	add	r2, r2, #38400	; 0x9600
 c0026c4:	e15b31f4 	ldrsh	r3, [fp, #-20]	; 0xffffffec
 c0026c8:	e2831007 	add	r1, r3, #7
 c0026cc:	e3530000 	cmp	r3, #0
 c0026d0:	b1a03001 	movlt	r3, r1
 c0026d4:	e1a031c3 	asr	r3, r3, #3
 c0026d8:	e1a03803 	lsl	r3, r3, #16
 c0026dc:	e1a03823 	lsr	r3, r3, #16
 c0026e0:	e1a03803 	lsl	r3, r3, #16
 c0026e4:	e1a03843 	asr	r3, r3, #16
 c0026e8:	e1a03103 	lsl	r3, r3, #2
 c0026ec:	e0823003 	add	r3, r2, r3
 c0026f0:	e1a01003 	mov	r1, r3
 c0026f4:	e15b20fe 	ldrsh	r2, [fp, #-14]
 c0026f8:	e1a03002 	mov	r3, r2
 c0026fc:	e1a03103 	lsl	r3, r3, #2
 c002700:	e0833002 	add	r3, r3, r2
 c002704:	e1a03303 	lsl	r3, r3, #6
 c002708:	e1a02fa3 	lsr	r2, r3, #31
 c00270c:	e0823003 	add	r3, r2, r3
 c002710:	e1a030c3 	asr	r3, r3, #1
 c002714:	e28326c3 	add	r2, r3, #204472320	; 0xc300000
 c002718:	e2822c96 	add	r2, r2, #38400	; 0x9600
 c00271c:	e15b31f4 	ldrsh	r3, [fp, #-20]	; 0xffffffec
 c002720:	e2830007 	add	r0, r3, #7
 c002724:	e3530000 	cmp	r3, #0
 c002728:	b1a03000 	movlt	r3, r0
 c00272c:	e1a031c3 	asr	r3, r3, #3
 c002730:	e1a03803 	lsl	r3, r3, #16
 c002734:	e1a03823 	lsr	r3, r3, #16
 c002738:	e1a03803 	lsl	r3, r3, #16
 c00273c:	e1a03843 	asr	r3, r3, #16
 c002740:	e1a03103 	lsl	r3, r3, #2
 c002744:	e0823003 	add	r3, r2, r3
 c002748:	e5930000 	ldr	r0, [r3]
 c00274c:	e15b21f4 	ldrsh	r2, [fp, #-20]	; 0xffffffec
 c002750:	e1a03fc2 	asr	r3, r2, #31
 c002754:	e1a03ea3 	lsr	r3, r3, #29
 c002758:	e0822003 	add	r2, r2, r3
 c00275c:	e2022007 	and	r2, r2, #7
 c002760:	e0633002 	rsb	r3, r3, r2
 c002764:	e1a03803 	lsl	r3, r3, #16
 c002768:	e1a03823 	lsr	r3, r3, #16
 c00276c:	e1a03803 	lsl	r3, r3, #16
 c002770:	e1a03843 	asr	r3, r3, #16
 c002774:	e1a03103 	lsl	r3, r3, #2
 c002778:	e3a0220f 	mov	r2, #-268435456	; 0xf0000000
 c00277c:	e1a03332 	lsr	r3, r2, r3
 c002780:	e1e03003 	mvn	r3, r3
 c002784:	e0000003 	and	r0, r0, r3
 c002788:	e5dbc004 	ldrb	ip, [fp, #4]
 c00278c:	e15b21f4 	ldrsh	r2, [fp, #-20]	; 0xffffffec
 c002790:	e1a03fc2 	asr	r3, r2, #31
 c002794:	e1a03ea3 	lsr	r3, r3, #29
 c002798:	e0822003 	add	r2, r2, r3
 c00279c:	e2022007 	and	r2, r2, #7
 c0027a0:	e0633002 	rsb	r3, r3, r2
 c0027a4:	e1a03803 	lsl	r3, r3, #16
 c0027a8:	e1a03823 	lsr	r3, r3, #16
 c0027ac:	e1a03803 	lsl	r3, r3, #16
 c0027b0:	e1a03843 	asr	r3, r3, #16
 c0027b4:	e2633007 	rsb	r3, r3, #7
 c0027b8:	e1a03103 	lsl	r3, r3, #2
 c0027bc:	e1a0331c 	lsl	r3, ip, r3
 c0027c0:	e1803003 	orr	r3, r0, r3
 c0027c4:	e5813000 	str	r3, [r1]
		}
		for( m=k; m<l; m+=8 )
		{
			(*(INT32U*)(LCD_VIRTUAL_BUFFER + i * SCR_XSIZE / 2 + m / 2)) = ulColor;
		}
		for( m=l; m<=usRight; m++ )
 c0027c8:	e15b31b4 	ldrh	r3, [fp, #-20]	; 0xffffffec
 c0027cc:	e2833001 	add	r3, r3, #1
 c0027d0:	e14b31b4 	strh	r3, [fp, #-20]	; 0xffffffec
 c0027d4:	e15b21f4 	ldrsh	r2, [fp, #-20]	; 0xffffffec
 c0027d8:	e15b32f2 	ldrsh	r3, [fp, #-34]	; 0xffffffde
 c0027dc:	e1520003 	cmp	r2, r3
 c0027e0:	daffffad 	ble	c00269c <LcdClrRect+0x4e0>
	else
	{
		l=(usRight/8)*8;
	}

	for( i=usTop; i<=usBottom; i++ )
 c0027e4:	e15b30be 	ldrh	r3, [fp, #-14]
 c0027e8:	e2833001 	add	r3, r3, #1
 c0027ec:	e14b30be 	strh	r3, [fp, #-14]
 c0027f0:	e15b20fe 	ldrsh	r2, [fp, #-14]
 c0027f4:	e15b32f4 	ldrsh	r3, [fp, #-36]	; 0xffffffdc
 c0027f8:	e1520003 	cmp	r2, r3
 c0027fc:	daffff2c 	ble	c0024b4 <LcdClrRect+0x2f8>
		for( m=l; m<=usRight; m++ )
		{
			(LCD_PutPixel(m, i, ucColor));
		}
	}
}
 c002800:	e24bd00c 	sub	sp, fp, #12
 c002804:	e89d6800 	ldm	sp, {fp, sp, lr}
 c002808:	e12fff1e 	bx	lr

0c00280c <Lcd_Draw_Box>:
* ret:		none
* modify:
* comment:		
*********************************************************************************************/
void Lcd_Draw_Box(INT16 usLeft, INT16 usTop, INT16 usRight, INT16 usBottom, INT8U ucColor)
{
 c00280c:	e1a0c00d 	mov	ip, sp
 c002810:	e92dd800 	push	{fp, ip, lr, pc}
 c002814:	e24cb004 	sub	fp, ip, #4
 c002818:	e24dd010 	sub	sp, sp, #16
 c00281c:	e14b00be 	strh	r0, [fp, #-14]
 c002820:	e14b11b0 	strh	r1, [fp, #-16]
 c002824:	e14b21b2 	strh	r2, [fp, #-18]	; 0xffffffee
 c002828:	e14b31b4 	strh	r3, [fp, #-20]	; 0xffffffec
	Lcd_Draw_HLine(usLeft, usRight,  usTop,    ucColor, 3);
 c00282c:	e15b00fe 	ldrsh	r0, [fp, #-14]
 c002830:	e15b11f2 	ldrsh	r1, [fp, #-18]	; 0xffffffee
 c002834:	e15b21f0 	ldrsh	r2, [fp, #-16]
 c002838:	e5db3004 	ldrb	r3, [fp, #4]
 c00283c:	e3a0c003 	mov	ip, #3
 c002840:	e58dc000 	str	ip, [sp]
 c002844:	eb00026d 	bl	c003200 <Lcd_Draw_HLine>
	Lcd_Draw_HLine(usLeft, usRight,  usBottom, ucColor, 3);
 c002848:	e15b00fe 	ldrsh	r0, [fp, #-14]
 c00284c:	e15b11f2 	ldrsh	r1, [fp, #-18]	; 0xffffffee
 c002850:	e15b21f4 	ldrsh	r2, [fp, #-20]	; 0xffffffec
 c002854:	e5db3004 	ldrb	r3, [fp, #4]
 c002858:	e3a0c003 	mov	ip, #3
 c00285c:	e58dc000 	str	ip, [sp]
 c002860:	eb000266 	bl	c003200 <Lcd_Draw_HLine>
	Lcd_Draw_VLine(usTop,  usBottom, usLeft,   ucColor, 3);
 c002864:	e15b01f0 	ldrsh	r0, [fp, #-16]
 c002868:	e15b11f4 	ldrsh	r1, [fp, #-20]	; 0xffffffec
 c00286c:	e15b20fe 	ldrsh	r2, [fp, #-14]
 c002870:	e5db3004 	ldrb	r3, [fp, #4]
 c002874:	e3a0c003 	mov	ip, #3
 c002878:	e58dc000 	str	ip, [sp]
 c00287c:	eb0002e1 	bl	c003408 <Lcd_Draw_VLine>
	Lcd_Draw_VLine(usTop,  usBottom, usRight,  ucColor, 3);
 c002880:	e15b01f0 	ldrsh	r0, [fp, #-16]
 c002884:	e15b11f4 	ldrsh	r1, [fp, #-20]	; 0xffffffec
 c002888:	e15b21f2 	ldrsh	r2, [fp, #-18]	; 0xffffffee
 c00288c:	e5db3004 	ldrb	r3, [fp, #4]
 c002890:	e3a0c003 	mov	ip, #3
 c002894:	e58dc000 	str	ip, [sp]
 c002898:	eb0002da 	bl	c003408 <Lcd_Draw_VLine>
}
 c00289c:	e24bd00c 	sub	sp, fp, #12
 c0028a0:	e89d6800 	ldm	sp, {fp, sp, lr}
 c0028a4:	e12fff1e 	bx	lr

0c0028a8 <Lcd_Draw_Line>:
* ret:		none
* modify:
* comment:		
*********************************************************************************************/
void Lcd_Draw_Line(INT16 usX0, INT16 usY0, INT16 usX1, INT16 usY1, INT8U ucColor, INT16U usWidth)
{
 c0028a8:	e1a0c00d 	mov	ip, sp
 c0028ac:	e92dd800 	push	{fp, ip, lr, pc}
 c0028b0:	e24cb004 	sub	fp, ip, #4
 c0028b4:	e24dd028 	sub	sp, sp, #40	; 0x28
 c0028b8:	e14b02b6 	strh	r0, [fp, #-38]	; 0xffffffda
 c0028bc:	e14b12b8 	strh	r1, [fp, #-40]	; 0xffffffd8
 c0028c0:	e14b22ba 	strh	r2, [fp, #-42]	; 0xffffffd6
 c0028c4:	e14b32bc 	strh	r3, [fp, #-44]	; 0xffffffd4
	INT16 y_sign;
	INT16 x_sign;
	INT16 decision;
	INT16 wCurx, wCury, wNextx, wNexty, wpy, wpx;

	if( usY0 == usY1 )
 c0028c8:	e15b22f8 	ldrsh	r2, [fp, #-40]	; 0xffffffd8
 c0028cc:	e15b32fc 	ldrsh	r3, [fp, #-44]	; 0xffffffd4
 c0028d0:	e1520003 	cmp	r2, r3
 c0028d4:	1a000007 	bne	c0028f8 <Lcd_Draw_Line+0x50>
	{
		Lcd_Draw_HLine (usX0, usX1, usY0, ucColor, usWidth);
 c0028d8:	e15b02f6 	ldrsh	r0, [fp, #-38]	; 0xffffffda
 c0028dc:	e15b12fa 	ldrsh	r1, [fp, #-42]	; 0xffffffd6
 c0028e0:	e15b22f8 	ldrsh	r2, [fp, #-40]	; 0xffffffd8
 c0028e4:	e5db3004 	ldrb	r3, [fp, #4]
 c0028e8:	e1dbc0b8 	ldrh	ip, [fp, #8]
 c0028ec:	e58dc000 	str	ip, [sp]
 c0028f0:	eb000242 	bl	c003200 <Lcd_Draw_HLine>
		return;
 c0028f4:	ea00023e 	b	c0031f4 <Lcd_Draw_Line+0x94c>
	}
	if( usX0 == usX1 )
 c0028f8:	e15b22f6 	ldrsh	r2, [fp, #-38]	; 0xffffffda
 c0028fc:	e15b32fa 	ldrsh	r3, [fp, #-42]	; 0xffffffd6
 c002900:	e1520003 	cmp	r2, r3
 c002904:	1a000007 	bne	c002928 <Lcd_Draw_Line+0x80>
	{
		Lcd_Draw_VLine (usY0, usY1, usX0, ucColor, usWidth);
 c002908:	e15b02f8 	ldrsh	r0, [fp, #-40]	; 0xffffffd8
 c00290c:	e15b12fc 	ldrsh	r1, [fp, #-44]	; 0xffffffd4
 c002910:	e15b22f6 	ldrsh	r2, [fp, #-38]	; 0xffffffda
 c002914:	e5db3004 	ldrb	r3, [fp, #4]
 c002918:	e1dbc0b8 	ldrh	ip, [fp, #8]
 c00291c:	e58dc000 	str	ip, [sp]
 c002920:	eb0002b8 	bl	c003408 <Lcd_Draw_VLine>
		return;
 c002924:	ea000232 	b	c0031f4 <Lcd_Draw_Line+0x94c>
	}
	usDx = abs(usX0 - usX1);
 c002928:	e15b22f6 	ldrsh	r2, [fp, #-38]	; 0xffffffda
 c00292c:	e15b32fa 	ldrsh	r3, [fp, #-42]	; 0xffffffd6
 c002930:	e0633002 	rsb	r3, r3, r2
 c002934:	e3530000 	cmp	r3, #0
 c002938:	b2633000 	rsblt	r3, r3, #0
 c00293c:	e14b31bc 	strh	r3, [fp, #-28]	; 0xffffffe4
	usDy = abs(usY0 - usY1);
 c002940:	e15b22f8 	ldrsh	r2, [fp, #-40]	; 0xffffffd8
 c002944:	e15b32fc 	ldrsh	r3, [fp, #-44]	; 0xffffffd4
 c002948:	e0633002 	rsb	r3, r3, r2
 c00294c:	e3530000 	cmp	r3, #0
 c002950:	b2633000 	rsblt	r3, r3, #0
 c002954:	e14b31be 	strh	r3, [fp, #-30]	; 0xffffffe2
	if( ((usDx >= usDy && (usX0 > usX1)) ||
 c002958:	e15b21fc 	ldrsh	r2, [fp, #-28]	; 0xffffffe4
 c00295c:	e15b31fe 	ldrsh	r3, [fp, #-30]	; 0xffffffe2
 c002960:	e1520003 	cmp	r2, r3
 c002964:	ba000003 	blt	c002978 <Lcd_Draw_Line+0xd0>
 c002968:	e15b22f6 	ldrsh	r2, [fp, #-38]	; 0xffffffda
 c00296c:	e15b32fa 	ldrsh	r3, [fp, #-42]	; 0xffffffd6
 c002970:	e1520003 	cmp	r2, r3
 c002974:	ca000007 	bgt	c002998 <Lcd_Draw_Line+0xf0>
 c002978:	e15b21fe 	ldrsh	r2, [fp, #-30]	; 0xffffffe2
 c00297c:	e15b31fc 	ldrsh	r3, [fp, #-28]	; 0xffffffe4
 c002980:	e1520003 	cmp	r2, r3
 c002984:	da00001b 	ble	c0029f8 <Lcd_Draw_Line+0x150>
        ((usDy > usDx) && (usY0 > usY1))) )
 c002988:	e15b22f8 	ldrsh	r2, [fp, #-40]	; 0xffffffd8
 c00298c:	e15b32fc 	ldrsh	r3, [fp, #-44]	; 0xffffffd4
 c002990:	e1520003 	cmp	r2, r3
 c002994:	da000017 	ble	c0029f8 <Lcd_Draw_Line+0x150>
    {
        GUISWAP(usX1, usX0);
 c002998:	e15b22ba 	ldrh	r2, [fp, #-42]	; 0xffffffd6
 c00299c:	e15b32b6 	ldrh	r3, [fp, #-38]	; 0xffffffda
 c0029a0:	e0223003 	eor	r3, r2, r3
 c0029a4:	e14b32ba 	strh	r3, [fp, #-42]	; 0xffffffd6
 c0029a8:	e15b22b6 	ldrh	r2, [fp, #-38]	; 0xffffffda
 c0029ac:	e15b32ba 	ldrh	r3, [fp, #-42]	; 0xffffffd6
 c0029b0:	e0223003 	eor	r3, r2, r3
 c0029b4:	e14b32b6 	strh	r3, [fp, #-38]	; 0xffffffda
 c0029b8:	e15b22ba 	ldrh	r2, [fp, #-42]	; 0xffffffd6
 c0029bc:	e15b32b6 	ldrh	r3, [fp, #-38]	; 0xffffffda
 c0029c0:	e0223003 	eor	r3, r2, r3
 c0029c4:	e14b32ba 	strh	r3, [fp, #-42]	; 0xffffffd6
        GUISWAP(usY1, usY0);
 c0029c8:	e15b22bc 	ldrh	r2, [fp, #-44]	; 0xffffffd4
 c0029cc:	e15b32b8 	ldrh	r3, [fp, #-40]	; 0xffffffd8
 c0029d0:	e0223003 	eor	r3, r2, r3
 c0029d4:	e14b32bc 	strh	r3, [fp, #-44]	; 0xffffffd4
 c0029d8:	e15b22b8 	ldrh	r2, [fp, #-40]	; 0xffffffd8
 c0029dc:	e15b32bc 	ldrh	r3, [fp, #-44]	; 0xffffffd4
 c0029e0:	e0223003 	eor	r3, r2, r3
 c0029e4:	e14b32b8 	strh	r3, [fp, #-40]	; 0xffffffd8
 c0029e8:	e15b22bc 	ldrh	r2, [fp, #-44]	; 0xffffffd4
 c0029ec:	e15b32b8 	ldrh	r3, [fp, #-40]	; 0xffffffd8
 c0029f0:	e0223003 	eor	r3, r2, r3
 c0029f4:	e14b32bc 	strh	r3, [fp, #-44]	; 0xffffffd4
    }
    y_sign = (usY1 - usY0) / usDy;
 c0029f8:	e15b22fc 	ldrsh	r2, [fp, #-44]	; 0xffffffd4
 c0029fc:	e15b32f8 	ldrsh	r3, [fp, #-40]	; 0xffffffd8
 c002a00:	e0632002 	rsb	r2, r3, r2
 c002a04:	e15b31fe 	ldrsh	r3, [fp, #-30]	; 0xffffffe2
 c002a08:	e1a00002 	mov	r0, r2
 c002a0c:	e1a01003 	mov	r1, r3
 c002a10:	eb000c6c 	bl	c005bc8 <__aeabi_idiv>
 c002a14:	e1a03000 	mov	r3, r0
 c002a18:	e14b32b0 	strh	r3, [fp, #-32]	; 0xffffffe0
    x_sign = (usX1 - usX0) / usDx;
 c002a1c:	e15b22fa 	ldrsh	r2, [fp, #-42]	; 0xffffffd6
 c002a20:	e15b32f6 	ldrsh	r3, [fp, #-38]	; 0xffffffda
 c002a24:	e0632002 	rsb	r2, r3, r2
 c002a28:	e15b31fc 	ldrsh	r3, [fp, #-28]	; 0xffffffe4
 c002a2c:	e1a00002 	mov	r0, r2
 c002a30:	e1a01003 	mov	r1, r3
 c002a34:	eb000c63 	bl	c005bc8 <__aeabi_idiv>
 c002a38:	e1a03000 	mov	r3, r0
 c002a3c:	e14b32b2 	strh	r3, [fp, #-34]	; 0xffffffde

    if( usDx >= usDy )
 c002a40:	e15b21fc 	ldrsh	r2, [fp, #-28]	; 0xffffffe4
 c002a44:	e15b31fe 	ldrsh	r3, [fp, #-30]	; 0xffffffe2
 c002a48:	e1520003 	cmp	r2, r3
 c002a4c:	ba0000f4 	blt	c002e24 <Lcd_Draw_Line+0x57c>
    {
        for( wCurx = usX0, wCury = usY0, wNextx = usX1,
 c002a50:	e15b32b6 	ldrh	r3, [fp, #-38]	; 0xffffffda
 c002a54:	e14b31b0 	strh	r3, [fp, #-16]
 c002a58:	e15b32b8 	ldrh	r3, [fp, #-40]	; 0xffffffd8
 c002a5c:	e14b31b2 	strh	r3, [fp, #-18]	; 0xffffffee
 c002a60:	e15b32ba 	ldrh	r3, [fp, #-42]	; 0xffffffd6
 c002a64:	e14b31b4 	strh	r3, [fp, #-20]	; 0xffffffec
             wNexty = usY1, decision = (usDx >> 1);
 c002a68:	e15b32bc 	ldrh	r3, [fp, #-44]	; 0xffffffd4
 c002a6c:	e14b31b6 	strh	r3, [fp, #-22]	; 0xffffffea
 c002a70:	e15b31fc 	ldrsh	r3, [fp, #-28]	; 0xffffffe4
 c002a74:	e1a030c3 	asr	r3, r3, #1
 c002a78:	e14b30be 	strh	r3, [fp, #-14]
    y_sign = (usY1 - usY0) / usDy;
    x_sign = (usX1 - usX0) / usDx;

    if( usDx >= usDy )
    {
        for( wCurx = usX0, wCury = usY0, wNextx = usX1,
 c002a7c:	ea0000e3 	b	c002e10 <Lcd_Draw_Line+0x568>
             wNexty = usY1, decision = (usDx >> 1);
             wCurx <= wNextx; wCurx++, wNextx--, decision += usDy )
        {
            if( decision >= usDx )
 c002a80:	e15b20fe 	ldrsh	r2, [fp, #-14]
 c002a84:	e15b31fc 	ldrsh	r3, [fp, #-28]	; 0xffffffe4
 c002a88:	e1520003 	cmp	r2, r3
 c002a8c:	ba000011 	blt	c002ad8 <Lcd_Draw_Line+0x230>
            {
                decision -= usDx;
 c002a90:	e15b20be 	ldrh	r2, [fp, #-14]
 c002a94:	e15b31bc 	ldrh	r3, [fp, #-28]	; 0xffffffe4
 c002a98:	e0633002 	rsb	r3, r3, r2
 c002a9c:	e1a03803 	lsl	r3, r3, #16
 c002aa0:	e1a03823 	lsr	r3, r3, #16
 c002aa4:	e14b30be 	strh	r3, [fp, #-14]
                wCury += y_sign;
 c002aa8:	e15b21b2 	ldrh	r2, [fp, #-18]	; 0xffffffee
 c002aac:	e15b32b0 	ldrh	r3, [fp, #-32]	; 0xffffffe0
 c002ab0:	e0823003 	add	r3, r2, r3
 c002ab4:	e1a03803 	lsl	r3, r3, #16
 c002ab8:	e1a03823 	lsr	r3, r3, #16
 c002abc:	e14b31b2 	strh	r3, [fp, #-18]	; 0xffffffee
                wNexty -= y_sign;
 c002ac0:	e15b21b6 	ldrh	r2, [fp, #-22]	; 0xffffffea
 c002ac4:	e15b32b0 	ldrh	r3, [fp, #-32]	; 0xffffffe0
 c002ac8:	e0633002 	rsb	r3, r3, r2
 c002acc:	e1a03803 	lsl	r3, r3, #16
 c002ad0:	e1a03823 	lsr	r3, r3, #16
 c002ad4:	e14b31b6 	strh	r3, [fp, #-22]	; 0xffffffea
            }
            for( wpy = wCury - usWidth / 2;
 c002ad8:	e15b21b2 	ldrh	r2, [fp, #-18]	; 0xffffffee
 c002adc:	e1db30b8 	ldrh	r3, [fp, #8]
 c002ae0:	e1a030a3 	lsr	r3, r3, #1
 c002ae4:	e1a03803 	lsl	r3, r3, #16
 c002ae8:	e1a03823 	lsr	r3, r3, #16
 c002aec:	e0633002 	rsb	r3, r3, r2
 c002af0:	e1a03803 	lsl	r3, r3, #16
 c002af4:	e1a03823 	lsr	r3, r3, #16
 c002af8:	e14b31b8 	strh	r3, [fp, #-24]	; 0xffffffe8
 c002afc:	ea00004d 	b	c002c38 <Lcd_Draw_Line+0x390>
                 wpy <= wCury + usWidth / 2; wpy++ )
            {
                LCD_PutPixel(wCurx, wpy, ucColor);
 c002b00:	e15b21f8 	ldrsh	r2, [fp, #-24]	; 0xffffffe8
 c002b04:	e1a03002 	mov	r3, r2
 c002b08:	e1a03103 	lsl	r3, r3, #2
 c002b0c:	e0833002 	add	r3, r3, r2
 c002b10:	e1a03303 	lsl	r3, r3, #6
 c002b14:	e1a02fa3 	lsr	r2, r3, #31
 c002b18:	e0823003 	add	r3, r2, r3
 c002b1c:	e1a030c3 	asr	r3, r3, #1
 c002b20:	e28326c3 	add	r2, r3, #204472320	; 0xc300000
 c002b24:	e2822c96 	add	r2, r2, #38400	; 0x9600
 c002b28:	e15b31f0 	ldrsh	r3, [fp, #-16]
 c002b2c:	e2831007 	add	r1, r3, #7
 c002b30:	e3530000 	cmp	r3, #0
 c002b34:	b1a03001 	movlt	r3, r1
 c002b38:	e1a031c3 	asr	r3, r3, #3
 c002b3c:	e1a03803 	lsl	r3, r3, #16
 c002b40:	e1a03823 	lsr	r3, r3, #16
 c002b44:	e1a03803 	lsl	r3, r3, #16
 c002b48:	e1a03843 	asr	r3, r3, #16
 c002b4c:	e1a03103 	lsl	r3, r3, #2
 c002b50:	e0823003 	add	r3, r2, r3
 c002b54:	e1a01003 	mov	r1, r3
 c002b58:	e15b21f8 	ldrsh	r2, [fp, #-24]	; 0xffffffe8
 c002b5c:	e1a03002 	mov	r3, r2
 c002b60:	e1a03103 	lsl	r3, r3, #2
 c002b64:	e0833002 	add	r3, r3, r2
 c002b68:	e1a03303 	lsl	r3, r3, #6
 c002b6c:	e1a02fa3 	lsr	r2, r3, #31
 c002b70:	e0823003 	add	r3, r2, r3
 c002b74:	e1a030c3 	asr	r3, r3, #1
 c002b78:	e28326c3 	add	r2, r3, #204472320	; 0xc300000
 c002b7c:	e2822c96 	add	r2, r2, #38400	; 0x9600
 c002b80:	e15b31f0 	ldrsh	r3, [fp, #-16]
 c002b84:	e2830007 	add	r0, r3, #7
 c002b88:	e3530000 	cmp	r3, #0
 c002b8c:	b1a03000 	movlt	r3, r0
 c002b90:	e1a031c3 	asr	r3, r3, #3
 c002b94:	e1a03803 	lsl	r3, r3, #16
 c002b98:	e1a03823 	lsr	r3, r3, #16
 c002b9c:	e1a03803 	lsl	r3, r3, #16
 c002ba0:	e1a03843 	asr	r3, r3, #16
 c002ba4:	e1a03103 	lsl	r3, r3, #2
 c002ba8:	e0823003 	add	r3, r2, r3
 c002bac:	e5930000 	ldr	r0, [r3]
 c002bb0:	e15b21f0 	ldrsh	r2, [fp, #-16]
 c002bb4:	e1a03fc2 	asr	r3, r2, #31
 c002bb8:	e1a03ea3 	lsr	r3, r3, #29
 c002bbc:	e0822003 	add	r2, r2, r3
 c002bc0:	e2022007 	and	r2, r2, #7
 c002bc4:	e0633002 	rsb	r3, r3, r2
 c002bc8:	e1a03803 	lsl	r3, r3, #16
 c002bcc:	e1a03823 	lsr	r3, r3, #16
 c002bd0:	e1a03803 	lsl	r3, r3, #16
 c002bd4:	e1a03843 	asr	r3, r3, #16
 c002bd8:	e1a03103 	lsl	r3, r3, #2
 c002bdc:	e3a0220f 	mov	r2, #-268435456	; 0xf0000000
 c002be0:	e1a03332 	lsr	r3, r2, r3
 c002be4:	e1e03003 	mvn	r3, r3
 c002be8:	e0000003 	and	r0, r0, r3
 c002bec:	e5dbc004 	ldrb	ip, [fp, #4]
 c002bf0:	e15b21f0 	ldrsh	r2, [fp, #-16]
 c002bf4:	e1a03fc2 	asr	r3, r2, #31
 c002bf8:	e1a03ea3 	lsr	r3, r3, #29
 c002bfc:	e0822003 	add	r2, r2, r3
 c002c00:	e2022007 	and	r2, r2, #7
 c002c04:	e0633002 	rsb	r3, r3, r2
 c002c08:	e1a03803 	lsl	r3, r3, #16
 c002c0c:	e1a03823 	lsr	r3, r3, #16
 c002c10:	e1a03803 	lsl	r3, r3, #16
 c002c14:	e1a03843 	asr	r3, r3, #16
 c002c18:	e2633007 	rsb	r3, r3, #7
 c002c1c:	e1a03103 	lsl	r3, r3, #2
 c002c20:	e1a0331c 	lsl	r3, ip, r3
 c002c24:	e1803003 	orr	r3, r0, r3
 c002c28:	e5813000 	str	r3, [r1]
                decision -= usDx;
                wCury += y_sign;
                wNexty -= y_sign;
            }
            for( wpy = wCury - usWidth / 2;
                 wpy <= wCury + usWidth / 2; wpy++ )
 c002c2c:	e15b31b8 	ldrh	r3, [fp, #-24]	; 0xffffffe8
 c002c30:	e2833001 	add	r3, r3, #1
 c002c34:	e14b31b8 	strh	r3, [fp, #-24]	; 0xffffffe8
 c002c38:	e15b21f8 	ldrsh	r2, [fp, #-24]	; 0xffffffe8
 c002c3c:	e15b11f2 	ldrsh	r1, [fp, #-18]	; 0xffffffee
 c002c40:	e1db30b8 	ldrh	r3, [fp, #8]
 c002c44:	e1a030a3 	lsr	r3, r3, #1
 c002c48:	e1a03803 	lsl	r3, r3, #16
 c002c4c:	e1a03823 	lsr	r3, r3, #16
 c002c50:	e0813003 	add	r3, r1, r3
            {
                decision -= usDx;
                wCury += y_sign;
                wNexty -= y_sign;
            }
            for( wpy = wCury - usWidth / 2;
 c002c54:	e1520003 	cmp	r2, r3
 c002c58:	daffffa8 	ble	c002b00 <Lcd_Draw_Line+0x258>
                 wpy <= wCury + usWidth / 2; wpy++ )
            {
                LCD_PutPixel(wCurx, wpy, ucColor);
            }

            for( wpy = wNexty - usWidth / 2;
 c002c5c:	e15b21b6 	ldrh	r2, [fp, #-22]	; 0xffffffea
 c002c60:	e1db30b8 	ldrh	r3, [fp, #8]
 c002c64:	e1a030a3 	lsr	r3, r3, #1
 c002c68:	e1a03803 	lsl	r3, r3, #16
 c002c6c:	e1a03823 	lsr	r3, r3, #16
 c002c70:	e0633002 	rsb	r3, r3, r2
 c002c74:	e1a03803 	lsl	r3, r3, #16
 c002c78:	e1a03823 	lsr	r3, r3, #16
 c002c7c:	e14b31b8 	strh	r3, [fp, #-24]	; 0xffffffe8
 c002c80:	ea00004d 	b	c002dbc <Lcd_Draw_Line+0x514>
                 wpy <= wNexty + usWidth / 2; wpy++ )
            {
                LCD_PutPixel(wNextx, wpy, ucColor);
 c002c84:	e15b21f8 	ldrsh	r2, [fp, #-24]	; 0xffffffe8
 c002c88:	e1a03002 	mov	r3, r2
 c002c8c:	e1a03103 	lsl	r3, r3, #2
 c002c90:	e0833002 	add	r3, r3, r2
 c002c94:	e1a03303 	lsl	r3, r3, #6
 c002c98:	e1a02fa3 	lsr	r2, r3, #31
 c002c9c:	e0823003 	add	r3, r2, r3
 c002ca0:	e1a030c3 	asr	r3, r3, #1
 c002ca4:	e28326c3 	add	r2, r3, #204472320	; 0xc300000
 c002ca8:	e2822c96 	add	r2, r2, #38400	; 0x9600
 c002cac:	e15b31f4 	ldrsh	r3, [fp, #-20]	; 0xffffffec
 c002cb0:	e2831007 	add	r1, r3, #7
 c002cb4:	e3530000 	cmp	r3, #0
 c002cb8:	b1a03001 	movlt	r3, r1
 c002cbc:	e1a031c3 	asr	r3, r3, #3
 c002cc0:	e1a03803 	lsl	r3, r3, #16
 c002cc4:	e1a03823 	lsr	r3, r3, #16
 c002cc8:	e1a03803 	lsl	r3, r3, #16
 c002ccc:	e1a03843 	asr	r3, r3, #16
 c002cd0:	e1a03103 	lsl	r3, r3, #2
 c002cd4:	e0823003 	add	r3, r2, r3
 c002cd8:	e1a01003 	mov	r1, r3
 c002cdc:	e15b21f8 	ldrsh	r2, [fp, #-24]	; 0xffffffe8
 c002ce0:	e1a03002 	mov	r3, r2
 c002ce4:	e1a03103 	lsl	r3, r3, #2
 c002ce8:	e0833002 	add	r3, r3, r2
 c002cec:	e1a03303 	lsl	r3, r3, #6
 c002cf0:	e1a02fa3 	lsr	r2, r3, #31
 c002cf4:	e0823003 	add	r3, r2, r3
 c002cf8:	e1a030c3 	asr	r3, r3, #1
 c002cfc:	e28326c3 	add	r2, r3, #204472320	; 0xc300000
 c002d00:	e2822c96 	add	r2, r2, #38400	; 0x9600
 c002d04:	e15b31f4 	ldrsh	r3, [fp, #-20]	; 0xffffffec
 c002d08:	e2830007 	add	r0, r3, #7
 c002d0c:	e3530000 	cmp	r3, #0
 c002d10:	b1a03000 	movlt	r3, r0
 c002d14:	e1a031c3 	asr	r3, r3, #3
 c002d18:	e1a03803 	lsl	r3, r3, #16
 c002d1c:	e1a03823 	lsr	r3, r3, #16
 c002d20:	e1a03803 	lsl	r3, r3, #16
 c002d24:	e1a03843 	asr	r3, r3, #16
 c002d28:	e1a03103 	lsl	r3, r3, #2
 c002d2c:	e0823003 	add	r3, r2, r3
 c002d30:	e5930000 	ldr	r0, [r3]
 c002d34:	e15b21f4 	ldrsh	r2, [fp, #-20]	; 0xffffffec
 c002d38:	e1a03fc2 	asr	r3, r2, #31
 c002d3c:	e1a03ea3 	lsr	r3, r3, #29
 c002d40:	e0822003 	add	r2, r2, r3
 c002d44:	e2022007 	and	r2, r2, #7
 c002d48:	e0633002 	rsb	r3, r3, r2
 c002d4c:	e1a03803 	lsl	r3, r3, #16
 c002d50:	e1a03823 	lsr	r3, r3, #16
 c002d54:	e1a03803 	lsl	r3, r3, #16
 c002d58:	e1a03843 	asr	r3, r3, #16
 c002d5c:	e1a03103 	lsl	r3, r3, #2
 c002d60:	e3a0220f 	mov	r2, #-268435456	; 0xf0000000
 c002d64:	e1a03332 	lsr	r3, r2, r3
 c002d68:	e1e03003 	mvn	r3, r3
 c002d6c:	e0000003 	and	r0, r0, r3
 c002d70:	e5dbc004 	ldrb	ip, [fp, #4]
 c002d74:	e15b21f4 	ldrsh	r2, [fp, #-20]	; 0xffffffec
 c002d78:	e1a03fc2 	asr	r3, r2, #31
 c002d7c:	e1a03ea3 	lsr	r3, r3, #29
 c002d80:	e0822003 	add	r2, r2, r3
 c002d84:	e2022007 	and	r2, r2, #7
 c002d88:	e0633002 	rsb	r3, r3, r2
 c002d8c:	e1a03803 	lsl	r3, r3, #16
 c002d90:	e1a03823 	lsr	r3, r3, #16
 c002d94:	e1a03803 	lsl	r3, r3, #16
 c002d98:	e1a03843 	asr	r3, r3, #16
 c002d9c:	e2633007 	rsb	r3, r3, #7
 c002da0:	e1a03103 	lsl	r3, r3, #2
 c002da4:	e1a0331c 	lsl	r3, ip, r3
 c002da8:	e1803003 	orr	r3, r0, r3
 c002dac:	e5813000 	str	r3, [r1]
            {
                LCD_PutPixel(wCurx, wpy, ucColor);
            }

            for( wpy = wNexty - usWidth / 2;
                 wpy <= wNexty + usWidth / 2; wpy++ )
 c002db0:	e15b31b8 	ldrh	r3, [fp, #-24]	; 0xffffffe8
 c002db4:	e2833001 	add	r3, r3, #1
 c002db8:	e14b31b8 	strh	r3, [fp, #-24]	; 0xffffffe8
 c002dbc:	e15b21f8 	ldrsh	r2, [fp, #-24]	; 0xffffffe8
 c002dc0:	e15b11f6 	ldrsh	r1, [fp, #-22]	; 0xffffffea
 c002dc4:	e1db30b8 	ldrh	r3, [fp, #8]
 c002dc8:	e1a030a3 	lsr	r3, r3, #1
 c002dcc:	e1a03803 	lsl	r3, r3, #16
 c002dd0:	e1a03823 	lsr	r3, r3, #16
 c002dd4:	e0813003 	add	r3, r1, r3
                 wpy <= wCury + usWidth / 2; wpy++ )
            {
                LCD_PutPixel(wCurx, wpy, ucColor);
            }

            for( wpy = wNexty - usWidth / 2;
 c002dd8:	e1520003 	cmp	r2, r3
 c002ddc:	daffffa8 	ble	c002c84 <Lcd_Draw_Line+0x3dc>

    if( usDx >= usDy )
    {
        for( wCurx = usX0, wCury = usY0, wNextx = usX1,
             wNexty = usY1, decision = (usDx >> 1);
             wCurx <= wNextx; wCurx++, wNextx--, decision += usDy )
 c002de0:	e15b31b0 	ldrh	r3, [fp, #-16]
 c002de4:	e2833001 	add	r3, r3, #1
 c002de8:	e14b31b0 	strh	r3, [fp, #-16]
 c002dec:	e15b31b4 	ldrh	r3, [fp, #-20]	; 0xffffffec
 c002df0:	e2433001 	sub	r3, r3, #1
 c002df4:	e14b31b4 	strh	r3, [fp, #-20]	; 0xffffffec
 c002df8:	e15b20be 	ldrh	r2, [fp, #-14]
 c002dfc:	e15b31be 	ldrh	r3, [fp, #-30]	; 0xffffffe2
 c002e00:	e0823003 	add	r3, r2, r3
 c002e04:	e1a03803 	lsl	r3, r3, #16
 c002e08:	e1a03823 	lsr	r3, r3, #16
 c002e0c:	e14b30be 	strh	r3, [fp, #-14]
    y_sign = (usY1 - usY0) / usDy;
    x_sign = (usX1 - usX0) / usDx;

    if( usDx >= usDy )
    {
        for( wCurx = usX0, wCury = usY0, wNextx = usX1,
 c002e10:	e15b21f0 	ldrsh	r2, [fp, #-16]
 c002e14:	e15b31f4 	ldrsh	r3, [fp, #-20]	; 0xffffffec
 c002e18:	e1520003 	cmp	r2, r3
 c002e1c:	daffff17 	ble	c002a80 <Lcd_Draw_Line+0x1d8>
 c002e20:	ea0000f3 	b	c0031f4 <Lcd_Draw_Line+0x94c>
            }
        }
    }
    else
    {
        for( wCurx = usX0, wCury = usY0, wNextx = usX1,
 c002e24:	e15b32b6 	ldrh	r3, [fp, #-38]	; 0xffffffda
 c002e28:	e14b31b0 	strh	r3, [fp, #-16]
 c002e2c:	e15b32b8 	ldrh	r3, [fp, #-40]	; 0xffffffd8
 c002e30:	e14b31b2 	strh	r3, [fp, #-18]	; 0xffffffee
 c002e34:	e15b32ba 	ldrh	r3, [fp, #-42]	; 0xffffffd6
 c002e38:	e14b31b4 	strh	r3, [fp, #-20]	; 0xffffffec
             wNexty = usY1, decision = (usDy >> 1);
 c002e3c:	e15b32bc 	ldrh	r3, [fp, #-44]	; 0xffffffd4
 c002e40:	e14b31b6 	strh	r3, [fp, #-22]	; 0xffffffea
 c002e44:	e15b31fe 	ldrsh	r3, [fp, #-30]	; 0xffffffe2
 c002e48:	e1a030c3 	asr	r3, r3, #1
 c002e4c:	e14b30be 	strh	r3, [fp, #-14]
            }
        }
    }
    else
    {
        for( wCurx = usX0, wCury = usY0, wNextx = usX1,
 c002e50:	ea0000e3 	b	c0031e4 <Lcd_Draw_Line+0x93c>
             wNexty = usY1, decision = (usDy >> 1);
             wCury <= wNexty; wCury++, wNexty--, decision += usDx )
        {
            if( decision >= usDy )
 c002e54:	e15b20fe 	ldrsh	r2, [fp, #-14]
 c002e58:	e15b31fe 	ldrsh	r3, [fp, #-30]	; 0xffffffe2
 c002e5c:	e1520003 	cmp	r2, r3
 c002e60:	ba000011 	blt	c002eac <Lcd_Draw_Line+0x604>
            {
                decision -= usDy;
 c002e64:	e15b20be 	ldrh	r2, [fp, #-14]
 c002e68:	e15b31be 	ldrh	r3, [fp, #-30]	; 0xffffffe2
 c002e6c:	e0633002 	rsb	r3, r3, r2
 c002e70:	e1a03803 	lsl	r3, r3, #16
 c002e74:	e1a03823 	lsr	r3, r3, #16
 c002e78:	e14b30be 	strh	r3, [fp, #-14]
                wCurx += x_sign;
 c002e7c:	e15b21b0 	ldrh	r2, [fp, #-16]
 c002e80:	e15b32b2 	ldrh	r3, [fp, #-34]	; 0xffffffde
 c002e84:	e0823003 	add	r3, r2, r3
 c002e88:	e1a03803 	lsl	r3, r3, #16
 c002e8c:	e1a03823 	lsr	r3, r3, #16
 c002e90:	e14b31b0 	strh	r3, [fp, #-16]
                wNextx -= x_sign;
 c002e94:	e15b21b4 	ldrh	r2, [fp, #-20]	; 0xffffffec
 c002e98:	e15b32b2 	ldrh	r3, [fp, #-34]	; 0xffffffde
 c002e9c:	e0633002 	rsb	r3, r3, r2
 c002ea0:	e1a03803 	lsl	r3, r3, #16
 c002ea4:	e1a03823 	lsr	r3, r3, #16
 c002ea8:	e14b31b4 	strh	r3, [fp, #-20]	; 0xffffffec
            }
            for( wpx = wCurx - usWidth / 2;
 c002eac:	e15b21b0 	ldrh	r2, [fp, #-16]
 c002eb0:	e1db30b8 	ldrh	r3, [fp, #8]
 c002eb4:	e1a030a3 	lsr	r3, r3, #1
 c002eb8:	e1a03803 	lsl	r3, r3, #16
 c002ebc:	e1a03823 	lsr	r3, r3, #16
 c002ec0:	e0633002 	rsb	r3, r3, r2
 c002ec4:	e1a03803 	lsl	r3, r3, #16
 c002ec8:	e1a03823 	lsr	r3, r3, #16
 c002ecc:	e14b31ba 	strh	r3, [fp, #-26]	; 0xffffffe6
 c002ed0:	ea00004d 	b	c00300c <Lcd_Draw_Line+0x764>
                 wpx <= wCurx + usWidth / 2; wpx++ )
            {
                LCD_PutPixel(wpx, wCury, ucColor);
 c002ed4:	e15b21f2 	ldrsh	r2, [fp, #-18]	; 0xffffffee
 c002ed8:	e1a03002 	mov	r3, r2
 c002edc:	e1a03103 	lsl	r3, r3, #2
 c002ee0:	e0833002 	add	r3, r3, r2
 c002ee4:	e1a03303 	lsl	r3, r3, #6
 c002ee8:	e1a02fa3 	lsr	r2, r3, #31
 c002eec:	e0823003 	add	r3, r2, r3
 c002ef0:	e1a030c3 	asr	r3, r3, #1
 c002ef4:	e28326c3 	add	r2, r3, #204472320	; 0xc300000
 c002ef8:	e2822c96 	add	r2, r2, #38400	; 0x9600
 c002efc:	e15b31fa 	ldrsh	r3, [fp, #-26]	; 0xffffffe6
 c002f00:	e2831007 	add	r1, r3, #7
 c002f04:	e3530000 	cmp	r3, #0
 c002f08:	b1a03001 	movlt	r3, r1
 c002f0c:	e1a031c3 	asr	r3, r3, #3
 c002f10:	e1a03803 	lsl	r3, r3, #16
 c002f14:	e1a03823 	lsr	r3, r3, #16
 c002f18:	e1a03803 	lsl	r3, r3, #16
 c002f1c:	e1a03843 	asr	r3, r3, #16
 c002f20:	e1a03103 	lsl	r3, r3, #2
 c002f24:	e0823003 	add	r3, r2, r3
 c002f28:	e1a01003 	mov	r1, r3
 c002f2c:	e15b21f2 	ldrsh	r2, [fp, #-18]	; 0xffffffee
 c002f30:	e1a03002 	mov	r3, r2
 c002f34:	e1a03103 	lsl	r3, r3, #2
 c002f38:	e0833002 	add	r3, r3, r2
 c002f3c:	e1a03303 	lsl	r3, r3, #6
 c002f40:	e1a02fa3 	lsr	r2, r3, #31
 c002f44:	e0823003 	add	r3, r2, r3
 c002f48:	e1a030c3 	asr	r3, r3, #1
 c002f4c:	e28326c3 	add	r2, r3, #204472320	; 0xc300000
 c002f50:	e2822c96 	add	r2, r2, #38400	; 0x9600
 c002f54:	e15b31fa 	ldrsh	r3, [fp, #-26]	; 0xffffffe6
 c002f58:	e2830007 	add	r0, r3, #7
 c002f5c:	e3530000 	cmp	r3, #0
 c002f60:	b1a03000 	movlt	r3, r0
 c002f64:	e1a031c3 	asr	r3, r3, #3
 c002f68:	e1a03803 	lsl	r3, r3, #16
 c002f6c:	e1a03823 	lsr	r3, r3, #16
 c002f70:	e1a03803 	lsl	r3, r3, #16
 c002f74:	e1a03843 	asr	r3, r3, #16
 c002f78:	e1a03103 	lsl	r3, r3, #2
 c002f7c:	e0823003 	add	r3, r2, r3
 c002f80:	e5930000 	ldr	r0, [r3]
 c002f84:	e15b21fa 	ldrsh	r2, [fp, #-26]	; 0xffffffe6
 c002f88:	e1a03fc2 	asr	r3, r2, #31
 c002f8c:	e1a03ea3 	lsr	r3, r3, #29
 c002f90:	e0822003 	add	r2, r2, r3
 c002f94:	e2022007 	and	r2, r2, #7
 c002f98:	e0633002 	rsb	r3, r3, r2
 c002f9c:	e1a03803 	lsl	r3, r3, #16
 c002fa0:	e1a03823 	lsr	r3, r3, #16
 c002fa4:	e1a03803 	lsl	r3, r3, #16
 c002fa8:	e1a03843 	asr	r3, r3, #16
 c002fac:	e1a03103 	lsl	r3, r3, #2
 c002fb0:	e3a0220f 	mov	r2, #-268435456	; 0xf0000000
 c002fb4:	e1a03332 	lsr	r3, r2, r3
 c002fb8:	e1e03003 	mvn	r3, r3
 c002fbc:	e0000003 	and	r0, r0, r3
 c002fc0:	e5dbc004 	ldrb	ip, [fp, #4]
 c002fc4:	e15b21fa 	ldrsh	r2, [fp, #-26]	; 0xffffffe6
 c002fc8:	e1a03fc2 	asr	r3, r2, #31
 c002fcc:	e1a03ea3 	lsr	r3, r3, #29
 c002fd0:	e0822003 	add	r2, r2, r3
 c002fd4:	e2022007 	and	r2, r2, #7
 c002fd8:	e0633002 	rsb	r3, r3, r2
 c002fdc:	e1a03803 	lsl	r3, r3, #16
 c002fe0:	e1a03823 	lsr	r3, r3, #16
 c002fe4:	e1a03803 	lsl	r3, r3, #16
 c002fe8:	e1a03843 	asr	r3, r3, #16
 c002fec:	e2633007 	rsb	r3, r3, #7
 c002ff0:	e1a03103 	lsl	r3, r3, #2
 c002ff4:	e1a0331c 	lsl	r3, ip, r3
 c002ff8:	e1803003 	orr	r3, r0, r3
 c002ffc:	e5813000 	str	r3, [r1]
                decision -= usDy;
                wCurx += x_sign;
                wNextx -= x_sign;
            }
            for( wpx = wCurx - usWidth / 2;
                 wpx <= wCurx + usWidth / 2; wpx++ )
 c003000:	e15b31ba 	ldrh	r3, [fp, #-26]	; 0xffffffe6
 c003004:	e2833001 	add	r3, r3, #1
 c003008:	e14b31ba 	strh	r3, [fp, #-26]	; 0xffffffe6
 c00300c:	e15b21fa 	ldrsh	r2, [fp, #-26]	; 0xffffffe6
 c003010:	e15b11f0 	ldrsh	r1, [fp, #-16]
 c003014:	e1db30b8 	ldrh	r3, [fp, #8]
 c003018:	e1a030a3 	lsr	r3, r3, #1
 c00301c:	e1a03803 	lsl	r3, r3, #16
 c003020:	e1a03823 	lsr	r3, r3, #16
 c003024:	e0813003 	add	r3, r1, r3
            {
                decision -= usDy;
                wCurx += x_sign;
                wNextx -= x_sign;
            }
            for( wpx = wCurx - usWidth / 2;
 c003028:	e1520003 	cmp	r2, r3
 c00302c:	daffffa8 	ble	c002ed4 <Lcd_Draw_Line+0x62c>
                 wpx <= wCurx + usWidth / 2; wpx++ )
            {
                LCD_PutPixel(wpx, wCury, ucColor);
            }

            for( wpx = wNextx - usWidth / 2;
 c003030:	e15b21b4 	ldrh	r2, [fp, #-20]	; 0xffffffec
 c003034:	e1db30b8 	ldrh	r3, [fp, #8]
 c003038:	e1a030a3 	lsr	r3, r3, #1
 c00303c:	e1a03803 	lsl	r3, r3, #16
 c003040:	e1a03823 	lsr	r3, r3, #16
 c003044:	e0633002 	rsb	r3, r3, r2
 c003048:	e1a03803 	lsl	r3, r3, #16
 c00304c:	e1a03823 	lsr	r3, r3, #16
 c003050:	e14b31ba 	strh	r3, [fp, #-26]	; 0xffffffe6
 c003054:	ea00004d 	b	c003190 <Lcd_Draw_Line+0x8e8>
                 wpx <= wNextx + usWidth / 2; wpx++ )
            {
                LCD_PutPixel(wpx, wNexty, ucColor);
 c003058:	e15b21f6 	ldrsh	r2, [fp, #-22]	; 0xffffffea
 c00305c:	e1a03002 	mov	r3, r2
 c003060:	e1a03103 	lsl	r3, r3, #2
 c003064:	e0833002 	add	r3, r3, r2
 c003068:	e1a03303 	lsl	r3, r3, #6
 c00306c:	e1a02fa3 	lsr	r2, r3, #31
 c003070:	e0823003 	add	r3, r2, r3
 c003074:	e1a030c3 	asr	r3, r3, #1
 c003078:	e28326c3 	add	r2, r3, #204472320	; 0xc300000
 c00307c:	e2822c96 	add	r2, r2, #38400	; 0x9600
 c003080:	e15b31fa 	ldrsh	r3, [fp, #-26]	; 0xffffffe6
 c003084:	e2831007 	add	r1, r3, #7
 c003088:	e3530000 	cmp	r3, #0
 c00308c:	b1a03001 	movlt	r3, r1
 c003090:	e1a031c3 	asr	r3, r3, #3
 c003094:	e1a03803 	lsl	r3, r3, #16
 c003098:	e1a03823 	lsr	r3, r3, #16
 c00309c:	e1a03803 	lsl	r3, r3, #16
 c0030a0:	e1a03843 	asr	r3, r3, #16
 c0030a4:	e1a03103 	lsl	r3, r3, #2
 c0030a8:	e0823003 	add	r3, r2, r3
 c0030ac:	e1a01003 	mov	r1, r3
 c0030b0:	e15b21f6 	ldrsh	r2, [fp, #-22]	; 0xffffffea
 c0030b4:	e1a03002 	mov	r3, r2
 c0030b8:	e1a03103 	lsl	r3, r3, #2
 c0030bc:	e0833002 	add	r3, r3, r2
 c0030c0:	e1a03303 	lsl	r3, r3, #6
 c0030c4:	e1a02fa3 	lsr	r2, r3, #31
 c0030c8:	e0823003 	add	r3, r2, r3
 c0030cc:	e1a030c3 	asr	r3, r3, #1
 c0030d0:	e28326c3 	add	r2, r3, #204472320	; 0xc300000
 c0030d4:	e2822c96 	add	r2, r2, #38400	; 0x9600
 c0030d8:	e15b31fa 	ldrsh	r3, [fp, #-26]	; 0xffffffe6
 c0030dc:	e2830007 	add	r0, r3, #7
 c0030e0:	e3530000 	cmp	r3, #0
 c0030e4:	b1a03000 	movlt	r3, r0
 c0030e8:	e1a031c3 	asr	r3, r3, #3
 c0030ec:	e1a03803 	lsl	r3, r3, #16
 c0030f0:	e1a03823 	lsr	r3, r3, #16
 c0030f4:	e1a03803 	lsl	r3, r3, #16
 c0030f8:	e1a03843 	asr	r3, r3, #16
 c0030fc:	e1a03103 	lsl	r3, r3, #2
 c003100:	e0823003 	add	r3, r2, r3
 c003104:	e5930000 	ldr	r0, [r3]
 c003108:	e15b21fa 	ldrsh	r2, [fp, #-26]	; 0xffffffe6
 c00310c:	e1a03fc2 	asr	r3, r2, #31
 c003110:	e1a03ea3 	lsr	r3, r3, #29
 c003114:	e0822003 	add	r2, r2, r3
 c003118:	e2022007 	and	r2, r2, #7
 c00311c:	e0633002 	rsb	r3, r3, r2
 c003120:	e1a03803 	lsl	r3, r3, #16
 c003124:	e1a03823 	lsr	r3, r3, #16
 c003128:	e1a03803 	lsl	r3, r3, #16
 c00312c:	e1a03843 	asr	r3, r3, #16
 c003130:	e1a03103 	lsl	r3, r3, #2
 c003134:	e3a0220f 	mov	r2, #-268435456	; 0xf0000000
 c003138:	e1a03332 	lsr	r3, r2, r3
 c00313c:	e1e03003 	mvn	r3, r3
 c003140:	e0000003 	and	r0, r0, r3
 c003144:	e5dbc004 	ldrb	ip, [fp, #4]
 c003148:	e15b21fa 	ldrsh	r2, [fp, #-26]	; 0xffffffe6
 c00314c:	e1a03fc2 	asr	r3, r2, #31
 c003150:	e1a03ea3 	lsr	r3, r3, #29
 c003154:	e0822003 	add	r2, r2, r3
 c003158:	e2022007 	and	r2, r2, #7
 c00315c:	e0633002 	rsb	r3, r3, r2
 c003160:	e1a03803 	lsl	r3, r3, #16
 c003164:	e1a03823 	lsr	r3, r3, #16
 c003168:	e1a03803 	lsl	r3, r3, #16
 c00316c:	e1a03843 	asr	r3, r3, #16
 c003170:	e2633007 	rsb	r3, r3, #7
 c003174:	e1a03103 	lsl	r3, r3, #2
 c003178:	e1a0331c 	lsl	r3, ip, r3
 c00317c:	e1803003 	orr	r3, r0, r3
 c003180:	e5813000 	str	r3, [r1]
            {
                LCD_PutPixel(wpx, wCury, ucColor);
            }

            for( wpx = wNextx - usWidth / 2;
                 wpx <= wNextx + usWidth / 2; wpx++ )
 c003184:	e15b31ba 	ldrh	r3, [fp, #-26]	; 0xffffffe6
 c003188:	e2833001 	add	r3, r3, #1
 c00318c:	e14b31ba 	strh	r3, [fp, #-26]	; 0xffffffe6
 c003190:	e15b21fa 	ldrsh	r2, [fp, #-26]	; 0xffffffe6
 c003194:	e15b11f4 	ldrsh	r1, [fp, #-20]	; 0xffffffec
 c003198:	e1db30b8 	ldrh	r3, [fp, #8]
 c00319c:	e1a030a3 	lsr	r3, r3, #1
 c0031a0:	e1a03803 	lsl	r3, r3, #16
 c0031a4:	e1a03823 	lsr	r3, r3, #16
 c0031a8:	e0813003 	add	r3, r1, r3
                 wpx <= wCurx + usWidth / 2; wpx++ )
            {
                LCD_PutPixel(wpx, wCury, ucColor);
            }

            for( wpx = wNextx - usWidth / 2;
 c0031ac:	e1520003 	cmp	r2, r3
 c0031b0:	daffffa8 	ble	c003058 <Lcd_Draw_Line+0x7b0>
    }
    else
    {
        for( wCurx = usX0, wCury = usY0, wNextx = usX1,
             wNexty = usY1, decision = (usDy >> 1);
             wCury <= wNexty; wCury++, wNexty--, decision += usDx )
 c0031b4:	e15b31b2 	ldrh	r3, [fp, #-18]	; 0xffffffee
 c0031b8:	e2833001 	add	r3, r3, #1
 c0031bc:	e14b31b2 	strh	r3, [fp, #-18]	; 0xffffffee
 c0031c0:	e15b31b6 	ldrh	r3, [fp, #-22]	; 0xffffffea
 c0031c4:	e2433001 	sub	r3, r3, #1
 c0031c8:	e14b31b6 	strh	r3, [fp, #-22]	; 0xffffffea
 c0031cc:	e15b20be 	ldrh	r2, [fp, #-14]
 c0031d0:	e15b31bc 	ldrh	r3, [fp, #-28]	; 0xffffffe4
 c0031d4:	e0823003 	add	r3, r2, r3
 c0031d8:	e1a03803 	lsl	r3, r3, #16
 c0031dc:	e1a03823 	lsr	r3, r3, #16
 c0031e0:	e14b30be 	strh	r3, [fp, #-14]
            }
        }
    }
    else
    {
        for( wCurx = usX0, wCury = usY0, wNextx = usX1,
 c0031e4:	e15b21f2 	ldrsh	r2, [fp, #-18]	; 0xffffffee
 c0031e8:	e15b31f6 	ldrsh	r3, [fp, #-22]	; 0xffffffea
 c0031ec:	e1520003 	cmp	r2, r3
 c0031f0:	daffff17 	ble	c002e54 <Lcd_Draw_Line+0x5ac>
            {
                LCD_PutPixel(wpx, wNexty, ucColor);
            }
        }
    }
}
 c0031f4:	e24bd00c 	sub	sp, fp, #12
 c0031f8:	e89d6800 	ldm	sp, {fp, sp, lr}
 c0031fc:	e12fff1e 	bx	lr

0c003200 <Lcd_Draw_HLine>:
* ret:		none
* modify:
* comment:		
*********************************************************************************************/
void Lcd_Draw_HLine(INT16 usX0, INT16 usX1, INT16 usY0, INT8U ucColor, INT16U usWidth)
{
 c003200:	e1a0c00d 	mov	ip, sp
 c003204:	e92dd800 	push	{fp, ip, lr, pc}
 c003208:	e24cb004 	sub	fp, ip, #4
 c00320c:	e24dd010 	sub	sp, sp, #16
 c003210:	e14b01b6 	strh	r0, [fp, #-22]	; 0xffffffea
 c003214:	e14b11b8 	strh	r1, [fp, #-24]	; 0xffffffe8
 c003218:	e14b21ba 	strh	r2, [fp, #-26]	; 0xffffffe6
 c00321c:	e54b301b 	strb	r3, [fp, #-27]	; 0xffffffe5
	INT16 usLen;

    if( usX1 < usX0 )
 c003220:	e15b21f8 	ldrsh	r2, [fp, #-24]	; 0xffffffe8
 c003224:	e15b31f6 	ldrsh	r3, [fp, #-22]	; 0xffffffea
 c003228:	e1520003 	cmp	r2, r3
 c00322c:	aa000067 	bge	c0033d0 <Lcd_Draw_HLine+0x1d0>
    {
        GUISWAP (usX1, usX0);
 c003230:	e15b21b8 	ldrh	r2, [fp, #-24]	; 0xffffffe8
 c003234:	e15b31b6 	ldrh	r3, [fp, #-22]	; 0xffffffea
 c003238:	e0223003 	eor	r3, r2, r3
 c00323c:	e14b31b8 	strh	r3, [fp, #-24]	; 0xffffffe8
 c003240:	e15b21b6 	ldrh	r2, [fp, #-22]	; 0xffffffea
 c003244:	e15b31b8 	ldrh	r3, [fp, #-24]	; 0xffffffe8
 c003248:	e0223003 	eor	r3, r2, r3
 c00324c:	e14b31b6 	strh	r3, [fp, #-22]	; 0xffffffea
 c003250:	e15b21b8 	ldrh	r2, [fp, #-24]	; 0xffffffe8
 c003254:	e15b31b6 	ldrh	r3, [fp, #-22]	; 0xffffffea
 c003258:	e0223003 	eor	r3, r2, r3
 c00325c:	e14b31b8 	strh	r3, [fp, #-24]	; 0xffffffe8
    }

    while( (usWidth--) > 0 )
 c003260:	ea00005b 	b	c0033d4 <Lcd_Draw_HLine+0x1d4>
    {
        usLen = usX1 - usX0 + 1;
 c003264:	e15b21b8 	ldrh	r2, [fp, #-24]	; 0xffffffe8
 c003268:	e15b31b6 	ldrh	r3, [fp, #-22]	; 0xffffffea
 c00326c:	e0633002 	rsb	r3, r3, r2
 c003270:	e1a03803 	lsl	r3, r3, #16
 c003274:	e1a03823 	lsr	r3, r3, #16
 c003278:	e2833001 	add	r3, r3, #1
 c00327c:	e1a03803 	lsl	r3, r3, #16
 c003280:	e1a03823 	lsr	r3, r3, #16
 c003284:	e14b30be 	strh	r3, [fp, #-14]
        while( (usLen--) > 0 )
 c003288:	ea000042 	b	c003398 <Lcd_Draw_HLine+0x198>
        {
        	LCD_PutPixel(usX0 + usLen, usY0, ucColor);
 c00328c:	e15b21fa 	ldrsh	r2, [fp, #-26]	; 0xffffffe6
 c003290:	e1a03002 	mov	r3, r2
 c003294:	e1a03103 	lsl	r3, r3, #2
 c003298:	e0833002 	add	r3, r3, r2
 c00329c:	e1a03303 	lsl	r3, r3, #6
 c0032a0:	e1a02fa3 	lsr	r2, r3, #31
 c0032a4:	e0823003 	add	r3, r2, r3
 c0032a8:	e1a030c3 	asr	r3, r3, #1
 c0032ac:	e28326c3 	add	r2, r3, #204472320	; 0xc300000
 c0032b0:	e2822c96 	add	r2, r2, #38400	; 0x9600
 c0032b4:	e15b11f6 	ldrsh	r1, [fp, #-22]	; 0xffffffea
 c0032b8:	e15b30fe 	ldrsh	r3, [fp, #-14]
 c0032bc:	e0813003 	add	r3, r1, r3
 c0032c0:	e2831007 	add	r1, r3, #7
 c0032c4:	e3530000 	cmp	r3, #0
 c0032c8:	b1a03001 	movlt	r3, r1
 c0032cc:	e1a031c3 	asr	r3, r3, #3
 c0032d0:	e1a03103 	lsl	r3, r3, #2
 c0032d4:	e0823003 	add	r3, r2, r3
 c0032d8:	e1a01003 	mov	r1, r3
 c0032dc:	e15b21fa 	ldrsh	r2, [fp, #-26]	; 0xffffffe6
 c0032e0:	e1a03002 	mov	r3, r2
 c0032e4:	e1a03103 	lsl	r3, r3, #2
 c0032e8:	e0833002 	add	r3, r3, r2
 c0032ec:	e1a03303 	lsl	r3, r3, #6
 c0032f0:	e1a02fa3 	lsr	r2, r3, #31
 c0032f4:	e0823003 	add	r3, r2, r3
 c0032f8:	e1a030c3 	asr	r3, r3, #1
 c0032fc:	e28326c3 	add	r2, r3, #204472320	; 0xc300000
 c003300:	e2822c96 	add	r2, r2, #38400	; 0x9600
 c003304:	e15b01f6 	ldrsh	r0, [fp, #-22]	; 0xffffffea
 c003308:	e15b30fe 	ldrsh	r3, [fp, #-14]
 c00330c:	e0803003 	add	r3, r0, r3
 c003310:	e2830007 	add	r0, r3, #7
 c003314:	e3530000 	cmp	r3, #0
 c003318:	b1a03000 	movlt	r3, r0
 c00331c:	e1a031c3 	asr	r3, r3, #3
 c003320:	e1a03103 	lsl	r3, r3, #2
 c003324:	e0823003 	add	r3, r2, r3
 c003328:	e5930000 	ldr	r0, [r3]
 c00332c:	e15b21f6 	ldrsh	r2, [fp, #-22]	; 0xffffffea
 c003330:	e15b30fe 	ldrsh	r3, [fp, #-14]
 c003334:	e0822003 	add	r2, r2, r3
 c003338:	e1a03fc2 	asr	r3, r2, #31
 c00333c:	e1a03ea3 	lsr	r3, r3, #29
 c003340:	e0822003 	add	r2, r2, r3
 c003344:	e2022007 	and	r2, r2, #7
 c003348:	e0633002 	rsb	r3, r3, r2
 c00334c:	e1a03103 	lsl	r3, r3, #2
 c003350:	e3a0220f 	mov	r2, #-268435456	; 0xf0000000
 c003354:	e1a03332 	lsr	r3, r2, r3
 c003358:	e1e03003 	mvn	r3, r3
 c00335c:	e0000003 	and	r0, r0, r3
 c003360:	e55bc01b 	ldrb	ip, [fp, #-27]	; 0xffffffe5
 c003364:	e15b21f6 	ldrsh	r2, [fp, #-22]	; 0xffffffea
 c003368:	e15b30fe 	ldrsh	r3, [fp, #-14]
 c00336c:	e0822003 	add	r2, r2, r3
 c003370:	e1a03fc2 	asr	r3, r2, #31
 c003374:	e1a03ea3 	lsr	r3, r3, #29
 c003378:	e0822003 	add	r2, r2, r3
 c00337c:	e2022007 	and	r2, r2, #7
 c003380:	e0633002 	rsb	r3, r3, r2
 c003384:	e2633007 	rsb	r3, r3, #7
 c003388:	e1a03103 	lsl	r3, r3, #2
 c00338c:	e1a0331c 	lsl	r3, ip, r3
 c003390:	e1803003 	orr	r3, r0, r3
 c003394:	e5813000 	str	r3, [r1]
    }

    while( (usWidth--) > 0 )
    {
        usLen = usX1 - usX0 + 1;
        while( (usLen--) > 0 )
 c003398:	e15b30fe 	ldrsh	r3, [fp, #-14]
 c00339c:	e3530000 	cmp	r3, #0
 c0033a0:	d3a03000 	movle	r3, #0
 c0033a4:	c3a03001 	movgt	r3, #1
 c0033a8:	e20330ff 	and	r3, r3, #255	; 0xff
 c0033ac:	e15b20be 	ldrh	r2, [fp, #-14]
 c0033b0:	e2422001 	sub	r2, r2, #1
 c0033b4:	e14b20be 	strh	r2, [fp, #-14]
 c0033b8:	e3530000 	cmp	r3, #0
 c0033bc:	1affffb2 	bne	c00328c <Lcd_Draw_HLine+0x8c>
        {
        	LCD_PutPixel(usX0 + usLen, usY0, ucColor);
        }
        usY0++;
 c0033c0:	e15b31ba 	ldrh	r3, [fp, #-26]	; 0xffffffe6
 c0033c4:	e2833001 	add	r3, r3, #1
 c0033c8:	e14b31ba 	strh	r3, [fp, #-26]	; 0xffffffe6
 c0033cc:	ea000000 	b	c0033d4 <Lcd_Draw_HLine+0x1d4>
    if( usX1 < usX0 )
    {
        GUISWAP (usX1, usX0);
    }

    while( (usWidth--) > 0 )
 c0033d0:	e1a00000 	nop			; (mov r0, r0)
 c0033d4:	e1db30b4 	ldrh	r3, [fp, #4]
 c0033d8:	e3530000 	cmp	r3, #0
 c0033dc:	03a03000 	moveq	r3, #0
 c0033e0:	13a03001 	movne	r3, #1
 c0033e4:	e20330ff 	and	r3, r3, #255	; 0xff
 c0033e8:	e1db20b4 	ldrh	r2, [fp, #4]
 c0033ec:	e2422001 	sub	r2, r2, #1
 c0033f0:	e1cb20b4 	strh	r2, [fp, #4]
 c0033f4:	e3530000 	cmp	r3, #0
 c0033f8:	1affff99 	bne	c003264 <Lcd_Draw_HLine+0x64>
        {
        	LCD_PutPixel(usX0 + usLen, usY0, ucColor);
        }
        usY0++;
    }
}
 c0033fc:	e24bd00c 	sub	sp, fp, #12
 c003400:	e89d6800 	ldm	sp, {fp, sp, lr}
 c003404:	e12fff1e 	bx	lr

0c003408 <Lcd_Draw_VLine>:
* ret:		none
* modify:
* comment:		
*********************************************************************************************/
void Lcd_Draw_VLine (INT16 usY0, INT16 usY1, INT16 usX0, INT8U ucColor, INT16U usWidth)
{
 c003408:	e1a0c00d 	mov	ip, sp
 c00340c:	e92dd800 	push	{fp, ip, lr, pc}
 c003410:	e24cb004 	sub	fp, ip, #4
 c003414:	e24dd010 	sub	sp, sp, #16
 c003418:	e14b01b6 	strh	r0, [fp, #-22]	; 0xffffffea
 c00341c:	e14b11b8 	strh	r1, [fp, #-24]	; 0xffffffe8
 c003420:	e14b21ba 	strh	r2, [fp, #-26]	; 0xffffffe6
 c003424:	e54b301b 	strb	r3, [fp, #-27]	; 0xffffffe5
	INT16 usLen;

    if( usY1 < usY0 )
 c003428:	e15b21f8 	ldrsh	r2, [fp, #-24]	; 0xffffffe8
 c00342c:	e15b31f6 	ldrsh	r3, [fp, #-22]	; 0xffffffea
 c003430:	e1520003 	cmp	r2, r3
 c003434:	aa000073 	bge	c003608 <Lcd_Draw_VLine+0x200>
    {
        GUISWAP (usY1, usY0);
 c003438:	e15b21b8 	ldrh	r2, [fp, #-24]	; 0xffffffe8
 c00343c:	e15b31b6 	ldrh	r3, [fp, #-22]	; 0xffffffea
 c003440:	e0223003 	eor	r3, r2, r3
 c003444:	e14b31b8 	strh	r3, [fp, #-24]	; 0xffffffe8
 c003448:	e15b21b6 	ldrh	r2, [fp, #-22]	; 0xffffffea
 c00344c:	e15b31b8 	ldrh	r3, [fp, #-24]	; 0xffffffe8
 c003450:	e0223003 	eor	r3, r2, r3
 c003454:	e14b31b6 	strh	r3, [fp, #-22]	; 0xffffffea
 c003458:	e15b21b8 	ldrh	r2, [fp, #-24]	; 0xffffffe8
 c00345c:	e15b31b6 	ldrh	r3, [fp, #-22]	; 0xffffffea
 c003460:	e0223003 	eor	r3, r2, r3
 c003464:	e14b31b8 	strh	r3, [fp, #-24]	; 0xffffffe8
    }

    while( (usWidth--) > 0 )
 c003468:	ea000067 	b	c00360c <Lcd_Draw_VLine+0x204>
    {
        usLen = usY1 - usY0 + 1;
 c00346c:	e15b21b8 	ldrh	r2, [fp, #-24]	; 0xffffffe8
 c003470:	e15b31b6 	ldrh	r3, [fp, #-22]	; 0xffffffea
 c003474:	e0633002 	rsb	r3, r3, r2
 c003478:	e1a03803 	lsl	r3, r3, #16
 c00347c:	e1a03823 	lsr	r3, r3, #16
 c003480:	e2833001 	add	r3, r3, #1
 c003484:	e1a03803 	lsl	r3, r3, #16
 c003488:	e1a03823 	lsr	r3, r3, #16
 c00348c:	e14b30be 	strh	r3, [fp, #-14]
        while( (usLen--) > 0 )
 c003490:	ea00004e 	b	c0035d0 <Lcd_Draw_VLine+0x1c8>
        {
        	LCD_PutPixel(usX0, usY0 + usLen, ucColor);
 c003494:	e15b21f6 	ldrsh	r2, [fp, #-22]	; 0xffffffea
 c003498:	e15b30fe 	ldrsh	r3, [fp, #-14]
 c00349c:	e0822003 	add	r2, r2, r3
 c0034a0:	e1a03002 	mov	r3, r2
 c0034a4:	e1a03103 	lsl	r3, r3, #2
 c0034a8:	e0833002 	add	r3, r3, r2
 c0034ac:	e1a03303 	lsl	r3, r3, #6
 c0034b0:	e1a02fa3 	lsr	r2, r3, #31
 c0034b4:	e0823003 	add	r3, r2, r3
 c0034b8:	e1a030c3 	asr	r3, r3, #1
 c0034bc:	e28326c3 	add	r2, r3, #204472320	; 0xc300000
 c0034c0:	e2822c96 	add	r2, r2, #38400	; 0x9600
 c0034c4:	e15b31fa 	ldrsh	r3, [fp, #-26]	; 0xffffffe6
 c0034c8:	e2831007 	add	r1, r3, #7
 c0034cc:	e3530000 	cmp	r3, #0
 c0034d0:	b1a03001 	movlt	r3, r1
 c0034d4:	e1a031c3 	asr	r3, r3, #3
 c0034d8:	e1a03803 	lsl	r3, r3, #16
 c0034dc:	e1a03823 	lsr	r3, r3, #16
 c0034e0:	e1a03803 	lsl	r3, r3, #16
 c0034e4:	e1a03843 	asr	r3, r3, #16
 c0034e8:	e1a03103 	lsl	r3, r3, #2
 c0034ec:	e0823003 	add	r3, r2, r3
 c0034f0:	e1a01003 	mov	r1, r3
 c0034f4:	e15b21f6 	ldrsh	r2, [fp, #-22]	; 0xffffffea
 c0034f8:	e15b30fe 	ldrsh	r3, [fp, #-14]
 c0034fc:	e0822003 	add	r2, r2, r3
 c003500:	e1a03002 	mov	r3, r2
 c003504:	e1a03103 	lsl	r3, r3, #2
 c003508:	e0833002 	add	r3, r3, r2
 c00350c:	e1a03303 	lsl	r3, r3, #6
 c003510:	e1a02fa3 	lsr	r2, r3, #31
 c003514:	e0823003 	add	r3, r2, r3
 c003518:	e1a030c3 	asr	r3, r3, #1
 c00351c:	e28326c3 	add	r2, r3, #204472320	; 0xc300000
 c003520:	e2822c96 	add	r2, r2, #38400	; 0x9600
 c003524:	e15b31fa 	ldrsh	r3, [fp, #-26]	; 0xffffffe6
 c003528:	e2830007 	add	r0, r3, #7
 c00352c:	e3530000 	cmp	r3, #0
 c003530:	b1a03000 	movlt	r3, r0
 c003534:	e1a031c3 	asr	r3, r3, #3
 c003538:	e1a03803 	lsl	r3, r3, #16
 c00353c:	e1a03823 	lsr	r3, r3, #16
 c003540:	e1a03803 	lsl	r3, r3, #16
 c003544:	e1a03843 	asr	r3, r3, #16
 c003548:	e1a03103 	lsl	r3, r3, #2
 c00354c:	e0823003 	add	r3, r2, r3
 c003550:	e5930000 	ldr	r0, [r3]
 c003554:	e15b21fa 	ldrsh	r2, [fp, #-26]	; 0xffffffe6
 c003558:	e1a03fc2 	asr	r3, r2, #31
 c00355c:	e1a03ea3 	lsr	r3, r3, #29
 c003560:	e0822003 	add	r2, r2, r3
 c003564:	e2022007 	and	r2, r2, #7
 c003568:	e0633002 	rsb	r3, r3, r2
 c00356c:	e1a03803 	lsl	r3, r3, #16
 c003570:	e1a03823 	lsr	r3, r3, #16
 c003574:	e1a03803 	lsl	r3, r3, #16
 c003578:	e1a03843 	asr	r3, r3, #16
 c00357c:	e1a03103 	lsl	r3, r3, #2
 c003580:	e3a0220f 	mov	r2, #-268435456	; 0xf0000000
 c003584:	e1a03332 	lsr	r3, r2, r3
 c003588:	e1e03003 	mvn	r3, r3
 c00358c:	e0000003 	and	r0, r0, r3
 c003590:	e55bc01b 	ldrb	ip, [fp, #-27]	; 0xffffffe5
 c003594:	e15b21fa 	ldrsh	r2, [fp, #-26]	; 0xffffffe6
 c003598:	e1a03fc2 	asr	r3, r2, #31
 c00359c:	e1a03ea3 	lsr	r3, r3, #29
 c0035a0:	e0822003 	add	r2, r2, r3
 c0035a4:	e2022007 	and	r2, r2, #7
 c0035a8:	e0633002 	rsb	r3, r3, r2
 c0035ac:	e1a03803 	lsl	r3, r3, #16
 c0035b0:	e1a03823 	lsr	r3, r3, #16
 c0035b4:	e1a03803 	lsl	r3, r3, #16
 c0035b8:	e1a03843 	asr	r3, r3, #16
 c0035bc:	e2633007 	rsb	r3, r3, #7
 c0035c0:	e1a03103 	lsl	r3, r3, #2
 c0035c4:	e1a0331c 	lsl	r3, ip, r3
 c0035c8:	e1803003 	orr	r3, r0, r3
 c0035cc:	e5813000 	str	r3, [r1]
    }

    while( (usWidth--) > 0 )
    {
        usLen = usY1 - usY0 + 1;
        while( (usLen--) > 0 )
 c0035d0:	e15b30fe 	ldrsh	r3, [fp, #-14]
 c0035d4:	e3530000 	cmp	r3, #0
 c0035d8:	d3a03000 	movle	r3, #0
 c0035dc:	c3a03001 	movgt	r3, #1
 c0035e0:	e20330ff 	and	r3, r3, #255	; 0xff
 c0035e4:	e15b20be 	ldrh	r2, [fp, #-14]
 c0035e8:	e2422001 	sub	r2, r2, #1
 c0035ec:	e14b20be 	strh	r2, [fp, #-14]
 c0035f0:	e3530000 	cmp	r3, #0
 c0035f4:	1affffa6 	bne	c003494 <Lcd_Draw_VLine+0x8c>
        {
        	LCD_PutPixel(usX0, usY0 + usLen, ucColor);
        }
        usX0++;
 c0035f8:	e15b31ba 	ldrh	r3, [fp, #-26]	; 0xffffffe6
 c0035fc:	e2833001 	add	r3, r3, #1
 c003600:	e14b31ba 	strh	r3, [fp, #-26]	; 0xffffffe6
 c003604:	ea000000 	b	c00360c <Lcd_Draw_VLine+0x204>
    if( usY1 < usY0 )
    {
        GUISWAP (usY1, usY0);
    }

    while( (usWidth--) > 0 )
 c003608:	e1a00000 	nop			; (mov r0, r0)
 c00360c:	e1db30b4 	ldrh	r3, [fp, #4]
 c003610:	e3530000 	cmp	r3, #0
 c003614:	03a03000 	moveq	r3, #0
 c003618:	13a03001 	movne	r3, #1
 c00361c:	e20330ff 	and	r3, r3, #255	; 0xff
 c003620:	e1db20b4 	ldrh	r2, [fp, #4]
 c003624:	e2422001 	sub	r2, r2, #1
 c003628:	e1cb20b4 	strh	r2, [fp, #4]
 c00362c:	e3530000 	cmp	r3, #0
 c003630:	1affff8d 	bne	c00346c <Lcd_Draw_VLine+0x64>
        {
        	LCD_PutPixel(usX0, usY0 + usLen, ucColor);
        }
        usX0++;
    }
}
 c003634:	e24bd00c 	sub	sp, fp, #12
 c003638:	e89d6800 	ldm	sp, {fp, sp, lr}
 c00363c:	e12fff1e 	bx	lr

0c003640 <Lcd_DspAscII8x16>:
* ret:		none
* modify:
* comment:		
*********************************************************************************************/
void Lcd_DspAscII8x16(INT16U x0, INT16U y0, INT8U ForeColor, INT8U * s)
{
 c003640:	e1a0c00d 	mov	ip, sp
 c003644:	e92dd810 	push	{r4, fp, ip, lr, pc}
 c003648:	e24cb004 	sub	fp, ip, #4
 c00364c:	e24dd03c 	sub	sp, sp, #60	; 0x3c
 c003650:	e50b3048 	str	r3, [fp, #-72]	; 0xffffffb8
 c003654:	e14b03be 	strh	r0, [fp, #-62]	; 0xffffffc2
 c003658:	e14b14b0 	strh	r1, [fp, #-64]	; 0xffffffc0
 c00365c:	e1a03002 	mov	r3, r2
 c003660:	e54b3041 	strb	r3, [fp, #-65]	; 0xffffffbf
	INT16 i,j,k,x,y,xx;
	INT8U qm;
	INT32U ulOffset;
	INT8 ywbuf[16],temp[2];
    
	for( i = 0; i < strlen((const char*)s); i++ )
 c003664:	e3a03000 	mov	r3, #0
 c003668:	e14b31b6 	strh	r3, [fp, #-22]	; 0xffffffea
 c00366c:	ea0000ae 	b	c00392c <Lcd_DspAscII8x16+0x2ec>
	{
		if( (INT8U)*(s+i) >= 161 )
 c003670:	e15b31f6 	ldrsh	r3, [fp, #-22]	; 0xffffffea
 c003674:	e51b2048 	ldr	r2, [fp, #-72]	; 0xffffffb8
 c003678:	e0823003 	add	r3, r2, r3
 c00367c:	e5d33000 	ldrb	r3, [r3]
 c003680:	e35300a0 	cmp	r3, #160	; 0xa0
 c003684:	9a000007 	bls	c0036a8 <Lcd_DspAscII8x16+0x68>
		{
			temp[0] = *(s + i);
 c003688:	e15b31f6 	ldrsh	r3, [fp, #-22]	; 0xffffffea
 c00368c:	e51b2048 	ldr	r2, [fp, #-72]	; 0xffffffb8
 c003690:	e0823003 	add	r3, r2, r3
 c003694:	e5d33000 	ldrb	r3, [r3]
 c003698:	e54b303c 	strb	r3, [fp, #-60]	; 0xffffffc4
			temp[1] = '\0';
 c00369c:	e3a03000 	mov	r3, #0
 c0036a0:	e54b303b 	strb	r3, [fp, #-59]	; 0xffffffc5
			return;
 c0036a4:	ea0000a6 	b	c003944 <Lcd_DspAscII8x16+0x304>
		}
		else
		{
			qm = *(s+i);
 c0036a8:	e15b31f6 	ldrsh	r3, [fp, #-22]	; 0xffffffea
 c0036ac:	e51b2048 	ldr	r2, [fp, #-72]	; 0xffffffb8
 c0036b0:	e0823003 	add	r3, r2, r3
 c0036b4:	e5d33000 	ldrb	r3, [r3]
 c0036b8:	e54b301d 	strb	r3, [fp, #-29]	; 0xffffffe3
			ulOffset = (INT32U)(qm) * 16;		//Here to be changed tomorrow
 c0036bc:	e55b301d 	ldrb	r3, [fp, #-29]	; 0xffffffe3
 c0036c0:	e1a03203 	lsl	r3, r3, #4
 c0036c4:	e50b3024 	str	r3, [fp, #-36]	; 0xffffffdc
			for( j = 0; j < 16; j ++ )
 c0036c8:	e3a03000 	mov	r3, #0
 c0036cc:	e14b31b8 	strh	r3, [fp, #-24]	; 0xffffffe8
 c0036d0:	ea00000d 	b	c00370c <Lcd_DspAscII8x16+0xcc>
			{
				ywbuf[j] = g_auc_Ascii8x16[ulOffset + j];
 c0036d4:	e15b11f8 	ldrsh	r1, [fp, #-24]	; 0xffffffe8
 c0036d8:	e15b21f8 	ldrsh	r2, [fp, #-24]	; 0xffffffe8
 c0036dc:	e51b3024 	ldr	r3, [fp, #-36]	; 0xffffffdc
 c0036e0:	e0823003 	add	r3, r2, r3
 c0036e4:	e59f2264 	ldr	r2, [pc, #612]	; c003950 <Lcd_DspAscII8x16+0x310>
 c0036e8:	e7d22003 	ldrb	r2, [r2, r3]
 c0036ec:	e3e03023 	mvn	r3, #35	; 0x23
 c0036f0:	e24b0014 	sub	r0, fp, #20
 c0036f4:	e0801001 	add	r1, r0, r1
 c0036f8:	e0813003 	add	r3, r1, r3
 c0036fc:	e5c32000 	strb	r2, [r3]
		}
		else
		{
			qm = *(s+i);
			ulOffset = (INT32U)(qm) * 16;		//Here to be changed tomorrow
			for( j = 0; j < 16; j ++ )
 c003700:	e15b31b8 	ldrh	r3, [fp, #-24]	; 0xffffffe8
 c003704:	e2833001 	add	r3, r3, #1
 c003708:	e14b31b8 	strh	r3, [fp, #-24]	; 0xffffffe8
 c00370c:	e15b31f8 	ldrsh	r3, [fp, #-24]	; 0xffffffe8
 c003710:	e353000f 	cmp	r3, #15
 c003714:	daffffee 	ble	c0036d4 <Lcd_DspAscII8x16+0x94>
			{
				ywbuf[j] = g_auc_Ascii8x16[ulOffset + j];
            }

            for( y = 0; y < 16; y++ )
 c003718:	e3a03000 	mov	r3, #0
 c00371c:	e14b31bc 	strh	r3, [fp, #-28]	; 0xffffffe4
 c003720:	ea00007b 	b	c003914 <Lcd_DspAscII8x16+0x2d4>
            {
            	for( x = 0; x < 8; x++ ) 
 c003724:	e3a03000 	mov	r3, #0
 c003728:	e14b31ba 	strh	r3, [fp, #-26]	; 0xffffffe6
 c00372c:	ea000072 	b	c0038fc <Lcd_DspAscII8x16+0x2bc>
               	{
                	k = x % 8;
 c003730:	e15b21fa 	ldrsh	r2, [fp, #-26]	; 0xffffffe6
 c003734:	e1a03fc2 	asr	r3, r2, #31
 c003738:	e1a03ea3 	lsr	r3, r3, #29
 c00373c:	e0822003 	add	r2, r2, r3
 c003740:	e2022007 	and	r2, r2, #7
 c003744:	e0633002 	rsb	r3, r3, r2
 c003748:	e14b32b6 	strh	r3, [fp, #-38]	; 0xffffffda
			    	if( ywbuf[y]  & (0x80 >> k) )
 c00374c:	e15b21fc 	ldrsh	r2, [fp, #-28]	; 0xffffffe4
 c003750:	e3e03023 	mvn	r3, #35	; 0x23
 c003754:	e24b1014 	sub	r1, fp, #20
 c003758:	e0812002 	add	r2, r1, r2
 c00375c:	e0823003 	add	r3, r2, r3
 c003760:	e5d33000 	ldrb	r3, [r3]
 c003764:	e1a02003 	mov	r2, r3
 c003768:	e15b32f6 	ldrsh	r3, [fp, #-38]	; 0xffffffda
 c00376c:	e3a01080 	mov	r1, #128	; 0x80
 c003770:	e1a03351 	asr	r3, r1, r3
 c003774:	e0023003 	and	r3, r2, r3
 c003778:	e3530000 	cmp	r3, #0
 c00377c:	0a00005b 	beq	c0038f0 <Lcd_DspAscII8x16+0x2b0>
			       	{
			       		xx = x0 + x + i*8;
 c003780:	e15b21ba 	ldrh	r2, [fp, #-26]	; 0xffffffe6
 c003784:	e15b33be 	ldrh	r3, [fp, #-62]	; 0xffffffc2
 c003788:	e0823003 	add	r3, r2, r3
 c00378c:	e1a03803 	lsl	r3, r3, #16
 c003790:	e1a02823 	lsr	r2, r3, #16
 c003794:	e15b31b6 	ldrh	r3, [fp, #-22]	; 0xffffffea
 c003798:	e1a03183 	lsl	r3, r3, #3
 c00379c:	e1a03803 	lsl	r3, r3, #16
 c0037a0:	e1a03823 	lsr	r3, r3, #16
 c0037a4:	e0823003 	add	r3, r2, r3
 c0037a8:	e1a03803 	lsl	r3, r3, #16
 c0037ac:	e1a03823 	lsr	r3, r3, #16
 c0037b0:	e14b32b8 	strh	r3, [fp, #-40]	; 0xffffffd8
			       		LCD_PutPixel(xx, y + y0, (INT8U)ForeColor);
 c0037b4:	e15b21fc 	ldrsh	r2, [fp, #-28]	; 0xffffffe4
 c0037b8:	e15b34b0 	ldrh	r3, [fp, #-64]	; 0xffffffc0
 c0037bc:	e0822003 	add	r2, r2, r3
 c0037c0:	e1a03002 	mov	r3, r2
 c0037c4:	e1a03103 	lsl	r3, r3, #2
 c0037c8:	e0833002 	add	r3, r3, r2
 c0037cc:	e1a03303 	lsl	r3, r3, #6
 c0037d0:	e1a02fa3 	lsr	r2, r3, #31
 c0037d4:	e0823003 	add	r3, r2, r3
 c0037d8:	e1a030c3 	asr	r3, r3, #1
 c0037dc:	e28326c3 	add	r2, r3, #204472320	; 0xc300000
 c0037e0:	e2822c96 	add	r2, r2, #38400	; 0x9600
 c0037e4:	e15b32f8 	ldrsh	r3, [fp, #-40]	; 0xffffffd8
 c0037e8:	e2831007 	add	r1, r3, #7
 c0037ec:	e3530000 	cmp	r3, #0
 c0037f0:	b1a03001 	movlt	r3, r1
 c0037f4:	e1a031c3 	asr	r3, r3, #3
 c0037f8:	e1a03803 	lsl	r3, r3, #16
 c0037fc:	e1a03823 	lsr	r3, r3, #16
 c003800:	e1a03803 	lsl	r3, r3, #16
 c003804:	e1a03843 	asr	r3, r3, #16
 c003808:	e1a03103 	lsl	r3, r3, #2
 c00380c:	e0823003 	add	r3, r2, r3
 c003810:	e1a01003 	mov	r1, r3
 c003814:	e15b21fc 	ldrsh	r2, [fp, #-28]	; 0xffffffe4
 c003818:	e15b34b0 	ldrh	r3, [fp, #-64]	; 0xffffffc0
 c00381c:	e0822003 	add	r2, r2, r3
 c003820:	e1a03002 	mov	r3, r2
 c003824:	e1a03103 	lsl	r3, r3, #2
 c003828:	e0833002 	add	r3, r3, r2
 c00382c:	e1a03303 	lsl	r3, r3, #6
 c003830:	e1a02fa3 	lsr	r2, r3, #31
 c003834:	e0823003 	add	r3, r2, r3
 c003838:	e1a030c3 	asr	r3, r3, #1
 c00383c:	e28326c3 	add	r2, r3, #204472320	; 0xc300000
 c003840:	e2822c96 	add	r2, r2, #38400	; 0x9600
 c003844:	e15b32f8 	ldrsh	r3, [fp, #-40]	; 0xffffffd8
 c003848:	e2830007 	add	r0, r3, #7
 c00384c:	e3530000 	cmp	r3, #0
 c003850:	b1a03000 	movlt	r3, r0
 c003854:	e1a031c3 	asr	r3, r3, #3
 c003858:	e1a03803 	lsl	r3, r3, #16
 c00385c:	e1a03823 	lsr	r3, r3, #16
 c003860:	e1a03803 	lsl	r3, r3, #16
 c003864:	e1a03843 	asr	r3, r3, #16
 c003868:	e1a03103 	lsl	r3, r3, #2
 c00386c:	e0823003 	add	r3, r2, r3
 c003870:	e5930000 	ldr	r0, [r3]
 c003874:	e15b22f8 	ldrsh	r2, [fp, #-40]	; 0xffffffd8
 c003878:	e1a03fc2 	asr	r3, r2, #31
 c00387c:	e1a03ea3 	lsr	r3, r3, #29
 c003880:	e0822003 	add	r2, r2, r3
 c003884:	e2022007 	and	r2, r2, #7
 c003888:	e0633002 	rsb	r3, r3, r2
 c00388c:	e1a03803 	lsl	r3, r3, #16
 c003890:	e1a03823 	lsr	r3, r3, #16
 c003894:	e1a03803 	lsl	r3, r3, #16
 c003898:	e1a03843 	asr	r3, r3, #16
 c00389c:	e1a03103 	lsl	r3, r3, #2
 c0038a0:	e3a0220f 	mov	r2, #-268435456	; 0xf0000000
 c0038a4:	e1a03332 	lsr	r3, r2, r3
 c0038a8:	e1e03003 	mvn	r3, r3
 c0038ac:	e0000003 	and	r0, r0, r3
 c0038b0:	e55bc041 	ldrb	ip, [fp, #-65]	; 0xffffffbf
 c0038b4:	e15b22f8 	ldrsh	r2, [fp, #-40]	; 0xffffffd8
 c0038b8:	e1a03fc2 	asr	r3, r2, #31
 c0038bc:	e1a03ea3 	lsr	r3, r3, #29
 c0038c0:	e0822003 	add	r2, r2, r3
 c0038c4:	e2022007 	and	r2, r2, #7
 c0038c8:	e0633002 	rsb	r3, r3, r2
 c0038cc:	e1a03803 	lsl	r3, r3, #16
 c0038d0:	e1a03823 	lsr	r3, r3, #16
 c0038d4:	e1a03803 	lsl	r3, r3, #16
 c0038d8:	e1a03843 	asr	r3, r3, #16
 c0038dc:	e2633007 	rsb	r3, r3, #7
 c0038e0:	e1a03103 	lsl	r3, r3, #2
 c0038e4:	e1a0331c 	lsl	r3, ip, r3
 c0038e8:	e1803003 	orr	r3, r0, r3
 c0038ec:	e5813000 	str	r3, [r1]
				ywbuf[j] = g_auc_Ascii8x16[ulOffset + j];
            }

            for( y = 0; y < 16; y++ )
            {
            	for( x = 0; x < 8; x++ ) 
 c0038f0:	e15b31ba 	ldrh	r3, [fp, #-26]	; 0xffffffe6
 c0038f4:	e2833001 	add	r3, r3, #1
 c0038f8:	e14b31ba 	strh	r3, [fp, #-26]	; 0xffffffe6
 c0038fc:	e15b31fa 	ldrsh	r3, [fp, #-26]	; 0xffffffe6
 c003900:	e3530007 	cmp	r3, #7
 c003904:	daffff89 	ble	c003730 <Lcd_DspAscII8x16+0xf0>
			for( j = 0; j < 16; j ++ )
			{
				ywbuf[j] = g_auc_Ascii8x16[ulOffset + j];
            }

            for( y = 0; y < 16; y++ )
 c003908:	e15b31bc 	ldrh	r3, [fp, #-28]	; 0xffffffe4
 c00390c:	e2833001 	add	r3, r3, #1
 c003910:	e14b31bc 	strh	r3, [fp, #-28]	; 0xffffffe4
 c003914:	e15b31fc 	ldrsh	r3, [fp, #-28]	; 0xffffffe4
 c003918:	e353000f 	cmp	r3, #15
 c00391c:	daffff80 	ble	c003724 <Lcd_DspAscII8x16+0xe4>
	INT16 i,j,k,x,y,xx;
	INT8U qm;
	INT32U ulOffset;
	INT8 ywbuf[16],temp[2];
    
	for( i = 0; i < strlen((const char*)s); i++ )
 c003920:	e15b31b6 	ldrh	r3, [fp, #-22]	; 0xffffffea
 c003924:	e2833001 	add	r3, r3, #1
 c003928:	e14b31b6 	strh	r3, [fp, #-22]	; 0xffffffea
 c00392c:	e15b41f6 	ldrsh	r4, [fp, #-22]	; 0xffffffea
 c003930:	e51b0048 	ldr	r0, [fp, #-72]	; 0xffffffb8
 c003934:	eb000a07 	bl	c006158 <strlen>
 c003938:	e1a03000 	mov	r3, r0
 c00393c:	e1540003 	cmp	r4, r3
 c003940:	3affff4a 	bcc	c003670 <Lcd_DspAscII8x16+0x30>
			       	}
			   	}
            }
		}
	}
}
 c003944:	e24bd010 	sub	sp, fp, #16
 c003948:	e89d6810 	ldm	sp, {r4, fp, sp, lr}
 c00394c:	e12fff1e 	bx	lr
 c003950:	0c00623c 	.word	0x0c00623c

0c003954 <ReverseLine>:
* ret:		none
* modify:
* comment:		
*********************************************************************************************/
void ReverseLine(INT32U ulHeight, INT32U ulY)
{
 c003954:	e1a0c00d 	mov	ip, sp
 c003958:	e92dd800 	push	{fp, ip, lr, pc}
 c00395c:	e24cb004 	sub	fp, ip, #4
 c003960:	e24dd018 	sub	sp, sp, #24
 c003964:	e50b0020 	str	r0, [fp, #-32]	; 0xffffffe0
 c003968:	e50b1024 	str	r1, [fp, #-36]	; 0xffffffdc
	INT32U i, j, temp;
	
	for( i = 0; i < ulHeight; i++ )
 c00396c:	e3a03000 	mov	r3, #0
 c003970:	e50b3010 	str	r3, [fp, #-16]
 c003974:	ea00002c 	b	c003a2c <ReverseLine+0xd8>
	{
		for( j = 0; j < (SCR_XSIZE/4/2) ; j++ )
 c003978:	e3a03000 	mov	r3, #0
 c00397c:	e50b3014 	str	r3, [fp, #-20]	; 0xffffffec
 c003980:	ea000023 	b	c003a14 <ReverseLine+0xc0>
		{
			temp = *(INT32U*)(LCD_VIRTUAL_BUFFER + (ulY+i)*SCR_XSIZE/2 + j*4);
 c003984:	e51b2024 	ldr	r2, [fp, #-36]	; 0xffffffdc
 c003988:	e51b3010 	ldr	r3, [fp, #-16]
 c00398c:	e0822003 	add	r2, r2, r3
 c003990:	e1a03002 	mov	r3, r2
 c003994:	e1a03103 	lsl	r3, r3, #2
 c003998:	e0833002 	add	r3, r3, r2
 c00399c:	e1a03303 	lsl	r3, r3, #6
 c0039a0:	e1a020a3 	lsr	r2, r3, #1
 c0039a4:	e51b3014 	ldr	r3, [fp, #-20]	; 0xffffffec
 c0039a8:	e1a03103 	lsl	r3, r3, #2
 c0039ac:	e0823003 	add	r3, r2, r3
 c0039b0:	e28336c3 	add	r3, r3, #204472320	; 0xc300000
 c0039b4:	e2833c96 	add	r3, r3, #38400	; 0x9600
 c0039b8:	e5933000 	ldr	r3, [r3]
 c0039bc:	e50b3018 	str	r3, [fp, #-24]	; 0xffffffe8
			temp ^= 0xFFFFFFFF;
 c0039c0:	e51b3018 	ldr	r3, [fp, #-24]	; 0xffffffe8
 c0039c4:	e1e03003 	mvn	r3, r3
 c0039c8:	e50b3018 	str	r3, [fp, #-24]	; 0xffffffe8
			*(INT32U*)(LCD_VIRTUAL_BUFFER + (ulY+i)*SCR_XSIZE/2 + j*4) = temp;
 c0039cc:	e51b2024 	ldr	r2, [fp, #-36]	; 0xffffffdc
 c0039d0:	e51b3010 	ldr	r3, [fp, #-16]
 c0039d4:	e0822003 	add	r2, r2, r3
 c0039d8:	e1a03002 	mov	r3, r2
 c0039dc:	e1a03103 	lsl	r3, r3, #2
 c0039e0:	e0833002 	add	r3, r3, r2
 c0039e4:	e1a03303 	lsl	r3, r3, #6
 c0039e8:	e1a020a3 	lsr	r2, r3, #1
 c0039ec:	e51b3014 	ldr	r3, [fp, #-20]	; 0xffffffec
 c0039f0:	e1a03103 	lsl	r3, r3, #2
 c0039f4:	e0823003 	add	r3, r2, r3
 c0039f8:	e28336c3 	add	r3, r3, #204472320	; 0xc300000
 c0039fc:	e2833c96 	add	r3, r3, #38400	; 0x9600
 c003a00:	e51b2018 	ldr	r2, [fp, #-24]	; 0xffffffe8
 c003a04:	e5832000 	str	r2, [r3]
{
	INT32U i, j, temp;
	
	for( i = 0; i < ulHeight; i++ )
	{
		for( j = 0; j < (SCR_XSIZE/4/2) ; j++ )
 c003a08:	e51b3014 	ldr	r3, [fp, #-20]	; 0xffffffec
 c003a0c:	e2833001 	add	r3, r3, #1
 c003a10:	e50b3014 	str	r3, [fp, #-20]	; 0xffffffec
 c003a14:	e51b3014 	ldr	r3, [fp, #-20]	; 0xffffffec
 c003a18:	e3530027 	cmp	r3, #39	; 0x27
 c003a1c:	9affffd8 	bls	c003984 <ReverseLine+0x30>
*********************************************************************************************/
void ReverseLine(INT32U ulHeight, INT32U ulY)
{
	INT32U i, j, temp;
	
	for( i = 0; i < ulHeight; i++ )
 c003a20:	e51b3010 	ldr	r3, [fp, #-16]
 c003a24:	e2833001 	add	r3, r3, #1
 c003a28:	e50b3010 	str	r3, [fp, #-16]
 c003a2c:	e51b2010 	ldr	r2, [fp, #-16]
 c003a30:	e51b3020 	ldr	r3, [fp, #-32]	; 0xffffffe0
 c003a34:	e1520003 	cmp	r2, r3
 c003a38:	3affffce 	bcc	c003978 <ReverseLine+0x24>
			temp = *(INT32U*)(LCD_VIRTUAL_BUFFER + (ulY+i)*SCR_XSIZE/2 + j*4);
			temp ^= 0xFFFFFFFF;
			*(INT32U*)(LCD_VIRTUAL_BUFFER + (ulY+i)*SCR_XSIZE/2 + j*4) = temp;
		}
	}
}
 c003a3c:	e24bd00c 	sub	sp, fp, #12
 c003a40:	e89d6800 	ldm	sp, {fp, sp, lr}
 c003a44:	e12fff1e 	bx	lr

0c003a48 <Zdma0Done>:
* modify:
* comment:		
*********************************************************************************************/
static INT8U ucZdma0Done=1;	//When DMA is finish,ucZdma0Done is cleared to Zero
void Zdma0Done(void)
{
 c003a48:	e52dc004 	push	{ip}		; (str ip, [sp, #-4]!)
 c003a4c:	e1a0c00d 	mov	ip, sp
 c003a50:	e92dd80c 	push	{r2, r3, fp, ip, lr, pc}
 c003a54:	e24cb004 	sub	fp, ip, #4
	rI_ISPC=BIT_ZDMA0;	    //clear pending
 c003a58:	e59f3020 	ldr	r3, [pc, #32]	; c003a80 <Zdma0Done+0x38>
 c003a5c:	e3a02702 	mov	r2, #524288	; 0x80000
 c003a60:	e5832000 	str	r2, [r3]
	ucZdma0Done=0;
 c003a64:	e59f3018 	ldr	r3, [pc, #24]	; c003a84 <Zdma0Done+0x3c>
 c003a68:	e3a02000 	mov	r2, #0
 c003a6c:	e5c32000 	strb	r2, [r3]
}
 c003a70:	e24bd014 	sub	sp, fp, #20
 c003a74:	e89d680c 	ldm	sp, {r2, r3, fp, sp, lr}
 c003a78:	e49dc004 	pop	{ip}		; (ldr ip, [sp], #4)
 c003a7c:	e25ef004 	subs	pc, lr, #4
 c003a80:	01e00024 	.word	0x01e00024
 c003a84:	0c006238 	.word	0x0c006238

0c003a88 <Lcd_Dma_Trans>:
* ret:		none
* modify:
* comment:		
*********************************************************************************************/
void Lcd_Dma_Trans(void)
{
 c003a88:	e1a0c00d 	mov	ip, sp
 c003a8c:	e92dd800 	push	{fp, ip, lr, pc}
 c003a90:	e24cb004 	sub	fp, ip, #4
	INT8U err;
	
	ucZdma0Done=1;
 c003a94:	e59f3074 	ldr	r3, [pc, #116]	; c003b10 <Lcd_Dma_Trans+0x88>
 c003a98:	e3a02001 	mov	r2, #1
 c003a9c:	e5c32000 	strb	r2, [r3]
	//#define LCD_VIRTUAL_BUFFER	(0xc400000)
	//#define LCD_ACTIVE_BUFFER	(LCD_VIRTUAL_BUFFER+(SCR_XSIZE*SCR_YSIZE/2))	//DMA ON
	//#define LCD_ACTIVE_BUFFER	LCD_VIRTUAL_BUFFER								//DMA OFF
	//#define LCD_BUF_SIZE		(SCR_XSIZE*SCR_YSIZE/2)
	//So the Lcd Buffer Low area is from LCD_VIRTUAL_BUFFER to (LCD_ACTIVE_BUFFER+(SCR_XSIZE*SCR_YSIZE/2))
	rNCACHBE1=(((unsigned)(LCD_ACTIVE_BUFFER)>>12) <<16 )|((unsigned)(LCD_VIRTUAL_BUFFER)>>12);
 c003aa0:	e59f306c 	ldr	r3, [pc, #108]	; c003b14 <Lcd_Dma_Trans+0x8c>
 c003aa4:	e59f206c 	ldr	r2, [pc, #108]	; c003b18 <Lcd_Dma_Trans+0x90>
 c003aa8:	e5832000 	str	r2, [r3]
  	rZDISRC0=(DW<<30)|(1<<28)|LCD_VIRTUAL_BUFFER; // inc
 c003aac:	e59f3068 	ldr	r3, [pc, #104]	; c003b1c <Lcd_Dma_Trans+0x94>
 c003ab0:	e59f2068 	ldr	r2, [pc, #104]	; c003b20 <Lcd_Dma_Trans+0x98>
 c003ab4:	e5832000 	str	r2, [r3]
  	rZDIDES0=( 2<<30)  |(1<<28)|LCD_ACTIVE_BUFFER; // inc
 c003ab8:	e59f3064 	ldr	r3, [pc, #100]	; c003b24 <Lcd_Dma_Trans+0x9c>
 c003abc:	e59f2064 	ldr	r2, [pc, #100]	; c003b28 <Lcd_Dma_Trans+0xa0>
 c003ac0:	e5832000 	str	r2, [r3]
        rZDICNT0=( 2<<28)|(1<<26)|(3<<22)|(0<<20)|(LCD_BUF_SIZE);
 c003ac4:	e59f3060 	ldr	r3, [pc, #96]	; c003b2c <Lcd_Dma_Trans+0xa4>
 c003ac8:	e59f2060 	ldr	r2, [pc, #96]	; c003b30 <Lcd_Dma_Trans+0xa8>
 c003acc:	e5832000 	str	r2, [r3]
        //                      |            |            |             |------------>Int. whenever transferred
        //                      |            |            |-------------------->Write time on the fly
        //                      |            |---------------------------->Block(4-word) transfer mode
        //                      |------------------------------------>whole service
	//reEnable ZDMA transfer
  	rZDICNT0 |= (1<<20);		//after ES3
 c003ad0:	e59f3054 	ldr	r3, [pc, #84]	; c003b2c <Lcd_Dma_Trans+0xa4>
 c003ad4:	e59f2050 	ldr	r2, [pc, #80]	; c003b2c <Lcd_Dma_Trans+0xa4>
 c003ad8:	e5922000 	ldr	r2, [r2]
 c003adc:	e3822601 	orr	r2, r2, #1048576	; 0x100000
 c003ae0:	e5832000 	str	r2, [r3]
    rZDCON0=0x1; // start!!!  
 c003ae4:	e3a0377a 	mov	r3, #31981568	; 0x1e80000
 c003ae8:	e3a02001 	mov	r2, #1
 c003aec:	e5832000 	str	r2, [r3]

	//Delay(500);
	while(ucZdma0Done);		//wait for DMA finish
 c003af0:	e1a00000 	nop			; (mov r0, r0)
 c003af4:	e59f3014 	ldr	r3, [pc, #20]	; c003b10 <Lcd_Dma_Trans+0x88>
 c003af8:	e5d33000 	ldrb	r3, [r3]
 c003afc:	e3530000 	cmp	r3, #0
 c003b00:	1afffffb 	bne	c003af4 <Lcd_Dma_Trans+0x6c>
}
 c003b04:	e24bd00c 	sub	sp, fp, #12
 c003b08:	e89d6800 	ldm	sp, {fp, sp, lr}
 c003b0c:	e12fff1e 	bx	lr
 c003b10:	0c006238 	.word	0x0c006238
 c003b14:	01c00008 	.word	0x01c00008
 c003b18:	c300c309 	.word	0xc300c309
 c003b1c:	01e80004 	.word	0x01e80004
 c003b20:	1c309600 	.word	0x1c309600
 c003b24:	01e80008 	.word	0x01e80008
 c003b28:	9c300000 	.word	0x9c300000
 c003b2c:	01e8000c 	.word	0x01e8000c
 c003b30:	24c09600 	.word	0x24c09600

0c003b34 <Lcd_Test>:
* ret:		none
* modify:
* comment:		
*********************************************************************************************/
void Lcd_Test(void)
{
 c003b34:	e1a0c00d 	mov	ip, sp
 c003b38:	e92dd800 	push	{fp, ip, lr, pc}
 c003b3c:	e24cb004 	sub	fp, ip, #4
 c003b40:	e24dd008 	sub	sp, sp, #8
	/* initial LCD controller */
	Lcd_Init();
 c003b44:	ebfff8ce 	bl	c001e84 <Lcd_Init>
	/* clear screen */
	Lcd_Clr();
 c003b48:	ebfff980 	bl	c002150 <Lcd_Clr>
	Lcd_Active_Clr();
 c003b4c:	ebfff931 	bl	c002018 <Lcd_Active_Clr>
    #ifdef Eng_v // english version
	Lcd_DspAscII8x16(10,0,DARKGRAY,"Embest S3CEV40 ");
	#else
//	Lcd_DspHz16(10,0,DARKGRAY,"");
	#endif
	Lcd_DspAscII8x16(10,20,BLACK,"Codigo del puesto: ");
 c003b50:	e3a0000a 	mov	r0, #10
 c003b54:	e3a01014 	mov	r1, #20
 c003b58:	e3a0200f 	mov	r2, #15
 c003b5c:	e59f31a0 	ldr	r3, [pc, #416]	; c003d04 <Lcd_Test+0x1d0>
 c003b60:	ebfffeb6 	bl	c003640 <Lcd_DspAscII8x16>
	Lcd_Draw_Box(10,40,310,230,14);
 c003b64:	e3a0300e 	mov	r3, #14
 c003b68:	e58d3000 	str	r3, [sp]
 c003b6c:	e3a0000a 	mov	r0, #10
 c003b70:	e3a01028 	mov	r1, #40	; 0x28
 c003b74:	e59f218c 	ldr	r2, [pc, #396]	; c003d08 <Lcd_Test+0x1d4>
 c003b78:	e3a030e6 	mov	r3, #230	; 0xe6
 c003b7c:	ebfffb22 	bl	c00280c <Lcd_Draw_Box>
	Lcd_Draw_Box(20,45,300,225,13);
 c003b80:	e3a0300d 	mov	r3, #13
 c003b84:	e58d3000 	str	r3, [sp]
 c003b88:	e3a00014 	mov	r0, #20
 c003b8c:	e3a0102d 	mov	r1, #45	; 0x2d
 c003b90:	e3a02f4b 	mov	r2, #300	; 0x12c
 c003b94:	e3a030e1 	mov	r3, #225	; 0xe1
 c003b98:	ebfffb1b 	bl	c00280c <Lcd_Draw_Box>
	Lcd_Draw_Box(30,50,290,220,12);
 c003b9c:	e3a0300c 	mov	r3, #12
 c003ba0:	e58d3000 	str	r3, [sp]
 c003ba4:	e3a0001e 	mov	r0, #30
 c003ba8:	e3a01032 	mov	r1, #50	; 0x32
 c003bac:	e59f2158 	ldr	r2, [pc, #344]	; c003d0c <Lcd_Test+0x1d8>
 c003bb0:	e3a030dc 	mov	r3, #220	; 0xdc
 c003bb4:	ebfffb14 	bl	c00280c <Lcd_Draw_Box>
	Lcd_Draw_Box(40,55,280,215,11);
 c003bb8:	e3a0300b 	mov	r3, #11
 c003bbc:	e58d3000 	str	r3, [sp]
 c003bc0:	e3a00028 	mov	r0, #40	; 0x28
 c003bc4:	e3a01037 	mov	r1, #55	; 0x37
 c003bc8:	e3a02f46 	mov	r2, #280	; 0x118
 c003bcc:	e3a030d7 	mov	r3, #215	; 0xd7
 c003bd0:	ebfffb0d 	bl	c00280c <Lcd_Draw_Box>
	Lcd_Draw_Box(50,60,270,210,10);
 c003bd4:	e3a0300a 	mov	r3, #10
 c003bd8:	e58d3000 	str	r3, [sp]
 c003bdc:	e3a00032 	mov	r0, #50	; 0x32
 c003be0:	e3a0103c 	mov	r1, #60	; 0x3c
 c003be4:	e59f2124 	ldr	r2, [pc, #292]	; c003d10 <Lcd_Test+0x1dc>
 c003be8:	e3a030d2 	mov	r3, #210	; 0xd2
 c003bec:	ebfffb06 	bl	c00280c <Lcd_Draw_Box>
	Lcd_Draw_Box(60,65,260,205,9);
 c003bf0:	e3a03009 	mov	r3, #9
 c003bf4:	e58d3000 	str	r3, [sp]
 c003bf8:	e3a0003c 	mov	r0, #60	; 0x3c
 c003bfc:	e3a01041 	mov	r1, #65	; 0x41
 c003c00:	e3a02f41 	mov	r2, #260	; 0x104
 c003c04:	e3a030cd 	mov	r3, #205	; 0xcd
 c003c08:	ebfffaff 	bl	c00280c <Lcd_Draw_Box>
	Lcd_Draw_Box(70,70,250,200,8);
 c003c0c:	e3a03008 	mov	r3, #8
 c003c10:	e58d3000 	str	r3, [sp]
 c003c14:	e3a00046 	mov	r0, #70	; 0x46
 c003c18:	e3a01046 	mov	r1, #70	; 0x46
 c003c1c:	e3a020fa 	mov	r2, #250	; 0xfa
 c003c20:	e3a030c8 	mov	r3, #200	; 0xc8
 c003c24:	ebfffaf8 	bl	c00280c <Lcd_Draw_Box>
	Lcd_Draw_Box(80,75,240,195,7);
 c003c28:	e3a03007 	mov	r3, #7
 c003c2c:	e58d3000 	str	r3, [sp]
 c003c30:	e3a00050 	mov	r0, #80	; 0x50
 c003c34:	e3a0104b 	mov	r1, #75	; 0x4b
 c003c38:	e3a020f0 	mov	r2, #240	; 0xf0
 c003c3c:	e3a030c3 	mov	r3, #195	; 0xc3
 c003c40:	ebfffaf1 	bl	c00280c <Lcd_Draw_Box>
	Lcd_Draw_Box(90,80,230,190,6);
 c003c44:	e3a03006 	mov	r3, #6
 c003c48:	e58d3000 	str	r3, [sp]
 c003c4c:	e3a0005a 	mov	r0, #90	; 0x5a
 c003c50:	e3a01050 	mov	r1, #80	; 0x50
 c003c54:	e3a020e6 	mov	r2, #230	; 0xe6
 c003c58:	e3a030be 	mov	r3, #190	; 0xbe
 c003c5c:	ebfffaea 	bl	c00280c <Lcd_Draw_Box>
	Lcd_Draw_Box(100,85,220,185,5);
 c003c60:	e3a03005 	mov	r3, #5
 c003c64:	e58d3000 	str	r3, [sp]
 c003c68:	e3a00064 	mov	r0, #100	; 0x64
 c003c6c:	e3a01055 	mov	r1, #85	; 0x55
 c003c70:	e3a020dc 	mov	r2, #220	; 0xdc
 c003c74:	e3a030b9 	mov	r3, #185	; 0xb9
 c003c78:	ebfffae3 	bl	c00280c <Lcd_Draw_Box>
	Lcd_Draw_Box(110,90,210,180,4);
 c003c7c:	e3a03004 	mov	r3, #4
 c003c80:	e58d3000 	str	r3, [sp]
 c003c84:	e3a0006e 	mov	r0, #110	; 0x6e
 c003c88:	e3a0105a 	mov	r1, #90	; 0x5a
 c003c8c:	e3a020d2 	mov	r2, #210	; 0xd2
 c003c90:	e3a030b4 	mov	r3, #180	; 0xb4
 c003c94:	ebfffadc 	bl	c00280c <Lcd_Draw_Box>
	Lcd_Draw_Box(120,95,200,175,3);
 c003c98:	e3a03003 	mov	r3, #3
 c003c9c:	e58d3000 	str	r3, [sp]
 c003ca0:	e3a00078 	mov	r0, #120	; 0x78
 c003ca4:	e3a0105f 	mov	r1, #95	; 0x5f
 c003ca8:	e3a020c8 	mov	r2, #200	; 0xc8
 c003cac:	e3a030af 	mov	r3, #175	; 0xaf
 c003cb0:	ebfffad5 	bl	c00280c <Lcd_Draw_Box>
	Lcd_Draw_Box(130,100,190,170,2);
 c003cb4:	e3a03002 	mov	r3, #2
 c003cb8:	e58d3000 	str	r3, [sp]
 c003cbc:	e3a00082 	mov	r0, #130	; 0x82
 c003cc0:	e3a01064 	mov	r1, #100	; 0x64
 c003cc4:	e3a020be 	mov	r2, #190	; 0xbe
 c003cc8:	e3a030aa 	mov	r3, #170	; 0xaa
 c003ccc:	ebffface 	bl	c00280c <Lcd_Draw_Box>
	BitmapView(125,135,Stru_Bitmap_gbMouse);
 c003cd0:	e59f303c 	ldr	r3, [pc, #60]	; c003d14 <Lcd_Test+0x1e0>
 c003cd4:	e1a0200d 	mov	r2, sp
 c003cd8:	e2831008 	add	r1, r3, #8
 c003cdc:	e8910003 	ldm	r1, {r0, r1}
 c003ce0:	e8820003 	stm	r2, {r0, r1}
 c003ce4:	e893000c 	ldm	r3, {r2, r3}
 c003ce8:	e3a0007d 	mov	r0, #125	; 0x7d
 c003cec:	e3a01087 	mov	r1, #135	; 0x87
 c003cf0:	ebfff3f5 	bl	c000ccc <BitmapView>
	Lcd_Dma_Trans();
 c003cf4:	ebffff63 	bl	c003a88 <Lcd_Dma_Trans>

}
 c003cf8:	e24bd00c 	sub	sp, fp, #12
 c003cfc:	e89d6800 	ldm	sp, {fp, sp, lr}
 c003d00:	e12fff1e 	bx	lr
 c003d04:	0c007330 	.word	0x0c007330
 c003d08:	00000136 	.word	0x00000136
 c003d0c:	00000122 	.word	0x00000122
 c003d10:	0000010e 	.word	0x0000010e
 c003d14:	0c006210 	.word	0x0c006210

0c003d18 <pantalla_inicial>:

void pantalla_inicial () {
 c003d18:	e1a0c00d 	mov	ip, sp
 c003d1c:	e92dd800 	push	{fp, ip, lr, pc}
 c003d20:	e24cb004 	sub	fp, ip, #4
	Lcd_Clr();
 c003d24:	ebfff909 	bl	c002150 <Lcd_Clr>
	Lcd_Active_Clr();
 c003d28:	ebfff8ba 	bl	c002018 <Lcd_Active_Clr>
	Lcd_DspAscII8x16(140,15,BLACK,"SUDOKU");
 c003d2c:	e3a0008c 	mov	r0, #140	; 0x8c
 c003d30:	e3a0100f 	mov	r1, #15
 c003d34:	e3a0200f 	mov	r2, #15
 c003d38:	e59f3114 	ldr	r3, [pc, #276]	; c003e54 <pantalla_inicial+0x13c>
 c003d3c:	ebfffe3f 	bl	c003640 <Lcd_DspAscII8x16>
	Lcd_DspAscII8x16(10,70,BLACK,"PULSE UN BOTON PARA JUGAR");
 c003d40:	e3a0000a 	mov	r0, #10
 c003d44:	e3a01046 	mov	r1, #70	; 0x46
 c003d48:	e3a0200f 	mov	r2, #15
 c003d4c:	e59f3104 	ldr	r3, [pc, #260]	; c003e58 <pantalla_inicial+0x140>
 c003d50:	ebfffe3a 	bl	c003640 <Lcd_DspAscII8x16>
	Lcd_DspAscII8x16(0,90,BLACK,"Instrucciones: ");
 c003d54:	e3a00000 	mov	r0, #0
 c003d58:	e3a0105a 	mov	r1, #90	; 0x5a
 c003d5c:	e3a0200f 	mov	r2, #15
 c003d60:	e59f30f4 	ldr	r3, [pc, #244]	; c003e5c <pantalla_inicial+0x144>
 c003d64:	ebfffe35 	bl	c003640 <Lcd_DspAscII8x16>
	Lcd_DspAscII8x16(0,100,BLACK," - Primero debera elegir la fila");
 c003d68:	e3a00000 	mov	r0, #0
 c003d6c:	e3a01064 	mov	r1, #100	; 0x64
 c003d70:	e3a0200f 	mov	r2, #15
 c003d74:	e59f30e4 	ldr	r3, [pc, #228]	; c003e60 <pantalla_inicial+0x148>
 c003d78:	ebfffe30 	bl	c003640 <Lcd_DspAscII8x16>
	Lcd_DspAscII8x16(0,110,BLACK," - Segundo debera elegir la columna");
 c003d7c:	e3a00000 	mov	r0, #0
 c003d80:	e3a0106e 	mov	r1, #110	; 0x6e
 c003d84:	e3a0200f 	mov	r2, #15
 c003d88:	e59f30d4 	ldr	r3, [pc, #212]	; c003e64 <pantalla_inicial+0x14c>
 c003d8c:	ebfffe2b 	bl	c003640 <Lcd_DspAscII8x16>
	Lcd_DspAscII8x16(0,120,BLACK," - Finalmente debera elegir el valor");
 c003d90:	e3a00000 	mov	r0, #0
 c003d94:	e3a01078 	mov	r1, #120	; 0x78
 c003d98:	e3a0200f 	mov	r2, #15
 c003d9c:	e59f30c4 	ldr	r3, [pc, #196]	; c003e68 <pantalla_inicial+0x150>
 c003da0:	ebfffe26 	bl	c003640 <Lcd_DspAscII8x16>
	Lcd_DspAscII8x16(0,130,BLACK," - Borre el valor de la casilla con 0");
 c003da4:	e3a00000 	mov	r0, #0
 c003da8:	e3a01082 	mov	r1, #130	; 0x82
 c003dac:	e3a0200f 	mov	r2, #15
 c003db0:	e59f30b4 	ldr	r3, [pc, #180]	; c003e6c <pantalla_inicial+0x154>
 c003db4:	ebfffe21 	bl	c003640 <Lcd_DspAscII8x16>
	Lcd_DspAscII8x16(0,140,BLACK," - Boton izquierdo para cambiar un valor");
 c003db8:	e3a00000 	mov	r0, #0
 c003dbc:	e3a0108c 	mov	r1, #140	; 0x8c
 c003dc0:	e3a0200f 	mov	r2, #15
 c003dc4:	e59f30a4 	ldr	r3, [pc, #164]	; c003e70 <pantalla_inicial+0x158>
 c003dc8:	ebfffe1c 	bl	c003640 <Lcd_DspAscII8x16>
	Lcd_DspAscII8x16(0,150,BLACK," - Boton derecho para confirmar el valor");
 c003dcc:	e3a00000 	mov	r0, #0
 c003dd0:	e3a01096 	mov	r1, #150	; 0x96
 c003dd4:	e3a0200f 	mov	r2, #15
 c003dd8:	e59f3094 	ldr	r3, [pc, #148]	; c003e74 <pantalla_inicial+0x15c>
 c003ddc:	ebfffe17 	bl	c003640 <Lcd_DspAscII8x16>
	Lcd_DspAscII8x16(0,160,BLACK," - Finalice el juego eligiendo la fila A");
 c003de0:	e3a00000 	mov	r0, #0
 c003de4:	e3a010a0 	mov	r1, #160	; 0xa0
 c003de8:	e3a0200f 	mov	r2, #15
 c003dec:	e59f3084 	ldr	r3, [pc, #132]	; c003e78 <pantalla_inicial+0x160>
 c003df0:	ebfffe12 	bl	c003640 <Lcd_DspAscII8x16>
	Lcd_DspAscII8x16(0,170,BLACK," - El juego acabara con sudoku completo");
 c003df4:	e3a00000 	mov	r0, #0
 c003df8:	e3a010aa 	mov	r1, #170	; 0xaa
 c003dfc:	e3a0200f 	mov	r2, #15
 c003e00:	e59f3074 	ldr	r3, [pc, #116]	; c003e7c <pantalla_inicial+0x164>
 c003e04:	ebfffe0d 	bl	c003640 <Lcd_DspAscII8x16>
	Lcd_DspAscII8x16(0,180,BLACK," - Las pistas se marcan con un recuadro");
 c003e08:	e3a00000 	mov	r0, #0
 c003e0c:	e3a010b4 	mov	r1, #180	; 0xb4
 c003e10:	e3a0200f 	mov	r2, #15
 c003e14:	e59f3064 	ldr	r3, [pc, #100]	; c003e80 <pantalla_inicial+0x168>
 c003e18:	ebfffe08 	bl	c003640 <Lcd_DspAscII8x16>
	Lcd_DspAscII8x16(0,190,BLACK," - Los errores se marcan en negro");
 c003e1c:	e3a00000 	mov	r0, #0
 c003e20:	e3a010be 	mov	r1, #190	; 0xbe
 c003e24:	e3a0200f 	mov	r2, #15
 c003e28:	e59f3054 	ldr	r3, [pc, #84]	; c003e84 <pantalla_inicial+0x16c>
 c003e2c:	ebfffe03 	bl	c003640 <Lcd_DspAscII8x16>
	Lcd_DspAscII8x16(40,225,BLACK,"Alberto Revel y Ruben Quilez");
 c003e30:	e3a00028 	mov	r0, #40	; 0x28
 c003e34:	e3a010e1 	mov	r1, #225	; 0xe1
 c003e38:	e3a0200f 	mov	r2, #15
 c003e3c:	e59f3044 	ldr	r3, [pc, #68]	; c003e88 <pantalla_inicial+0x170>
 c003e40:	ebfffdfe 	bl	c003640 <Lcd_DspAscII8x16>
	Lcd_Dma_Trans();
 c003e44:	ebffff0f 	bl	c003a88 <Lcd_Dma_Trans>
}
 c003e48:	e24bd00c 	sub	sp, fp, #12
 c003e4c:	e89d6800 	ldm	sp, {fp, sp, lr}
 c003e50:	e12fff1e 	bx	lr
 c003e54:	0c007344 	.word	0x0c007344
 c003e58:	0c00734c 	.word	0x0c00734c
 c003e5c:	0c007368 	.word	0x0c007368
 c003e60:	0c007378 	.word	0x0c007378
 c003e64:	0c00739c 	.word	0x0c00739c
 c003e68:	0c0073c0 	.word	0x0c0073c0
 c003e6c:	0c0073e8 	.word	0x0c0073e8
 c003e70:	0c007410 	.word	0x0c007410
 c003e74:	0c00743c 	.word	0x0c00743c
 c003e78:	0c007468 	.word	0x0c007468
 c003e7c:	0c007494 	.word	0x0c007494
 c003e80:	0c0074bc 	.word	0x0c0074bc
 c003e84:	0c0074e4 	.word	0x0c0074e4
 c003e88:	0c007508 	.word	0x0c007508

0c003e8c <reverse_string>:


void* reverse_string(char *str)
{
 c003e8c:	e1a0c00d 	mov	ip, sp
 c003e90:	e92dd800 	push	{fp, ip, lr, pc}
 c003e94:	e24cb004 	sub	fp, ip, #4
 c003e98:	e24dd018 	sub	sp, sp, #24
 c003e9c:	e50b0020 	str	r0, [fp, #-32]	; 0xffffffe0
char temp;
size_t len = strlen(str) - 1;
 c003ea0:	e51b0020 	ldr	r0, [fp, #-32]	; 0xffffffe0
 c003ea4:	eb0008ab 	bl	c006158 <strlen>
 c003ea8:	e1a03000 	mov	r3, r0
 c003eac:	e2433001 	sub	r3, r3, #1
 c003eb0:	e50b3018 	str	r3, [fp, #-24]	; 0xffffffe8
size_t i;
size_t k = len;
 c003eb4:	e51b3018 	ldr	r3, [fp, #-24]	; 0xffffffe8
 c003eb8:	e50b3014 	str	r3, [fp, #-20]	; 0xffffffec

for(i = 0; i < len; i++)
 c003ebc:	e3a03000 	mov	r3, #0
 c003ec0:	e50b3010 	str	r3, [fp, #-16]
 c003ec4:	ea00001c 	b	c003f3c <reverse_string+0xb0>
{
	temp = str[k];
 c003ec8:	e51b2020 	ldr	r2, [fp, #-32]	; 0xffffffe0
 c003ecc:	e51b3014 	ldr	r3, [fp, #-20]	; 0xffffffec
 c003ed0:	e0823003 	add	r3, r2, r3
 c003ed4:	e5d33000 	ldrb	r3, [r3]
 c003ed8:	e54b3019 	strb	r3, [fp, #-25]	; 0xffffffe7
	str[k] = str[i];
 c003edc:	e51b2020 	ldr	r2, [fp, #-32]	; 0xffffffe0
 c003ee0:	e51b3014 	ldr	r3, [fp, #-20]	; 0xffffffec
 c003ee4:	e0823003 	add	r3, r2, r3
 c003ee8:	e51b1020 	ldr	r1, [fp, #-32]	; 0xffffffe0
 c003eec:	e51b2010 	ldr	r2, [fp, #-16]
 c003ef0:	e0812002 	add	r2, r1, r2
 c003ef4:	e5d22000 	ldrb	r2, [r2]
 c003ef8:	e5c32000 	strb	r2, [r3]
	str[i] = temp;
 c003efc:	e51b2020 	ldr	r2, [fp, #-32]	; 0xffffffe0
 c003f00:	e51b3010 	ldr	r3, [fp, #-16]
 c003f04:	e0823003 	add	r3, r2, r3
 c003f08:	e55b2019 	ldrb	r2, [fp, #-25]	; 0xffffffe7
 c003f0c:	e5c32000 	strb	r2, [r3]
	k--;
 c003f10:	e51b3014 	ldr	r3, [fp, #-20]	; 0xffffffec
 c003f14:	e2433001 	sub	r3, r3, #1
 c003f18:	e50b3014 	str	r3, [fp, #-20]	; 0xffffffec

	    /* As 2 characters are changing place for each cycle of the loop
	       only traverse half the array of characters */
	    if(k == (len / 2))
 c003f1c:	e51b3018 	ldr	r3, [fp, #-24]	; 0xffffffe8
 c003f20:	e1a020a3 	lsr	r2, r3, #1
 c003f24:	e51b3014 	ldr	r3, [fp, #-20]	; 0xffffffec
 c003f28:	e1520003 	cmp	r2, r3
 c003f2c:	0a000007 	beq	c003f50 <reverse_string+0xc4>
char temp;
size_t len = strlen(str) - 1;
size_t i;
size_t k = len;

for(i = 0; i < len; i++)
 c003f30:	e51b3010 	ldr	r3, [fp, #-16]
 c003f34:	e2833001 	add	r3, r3, #1
 c003f38:	e50b3010 	str	r3, [fp, #-16]
 c003f3c:	e51b2010 	ldr	r2, [fp, #-16]
 c003f40:	e51b3018 	ldr	r3, [fp, #-24]	; 0xffffffe8
 c003f44:	e1520003 	cmp	r2, r3
 c003f48:	3affffde 	bcc	c003ec8 <reverse_string+0x3c>
 c003f4c:	ea000000 	b	c003f54 <reverse_string+0xc8>

	    /* As 2 characters are changing place for each cycle of the loop
	       only traverse half the array of characters */
	    if(k == (len / 2))
	    {
	   	    break;
 c003f50:	e1a00000 	nop			; (mov r0, r0)
	    }
    }
}
 c003f54:	e1a00003 	mov	r0, r3
 c003f58:	e24bd00c 	sub	sp, fp, #12
 c003f5c:	e89d6800 	ldm	sp, {fp, sp, lr}
 c003f60:	e12fff1e 	bx	lr

0c003f64 <itoa>:

char* itoa(int num, char* str, int base)
{
 c003f64:	e1a0c00d 	mov	ip, sp
 c003f68:	e92dd800 	push	{fp, ip, lr, pc}
 c003f6c:	e24cb004 	sub	fp, ip, #4
 c003f70:	e24dd020 	sub	sp, sp, #32
 c003f74:	e50b0020 	str	r0, [fp, #-32]	; 0xffffffe0
 c003f78:	e50b1024 	str	r1, [fp, #-36]	; 0xffffffdc
 c003f7c:	e50b2028 	str	r2, [fp, #-40]	; 0xffffffd8
    int i = 0;
 c003f80:	e3a03000 	mov	r3, #0
 c003f84:	e50b3010 	str	r3, [fp, #-16]
    int isNegative = 0;
 c003f88:	e3a03000 	mov	r3, #0
 c003f8c:	e50b3014 	str	r3, [fp, #-20]	; 0xffffffec

    /* Handle 0 explicitely, otherwise empty string is printed for 0 */
    if (num == 0)
 c003f90:	e51b3020 	ldr	r3, [fp, #-32]	; 0xffffffe0
 c003f94:	e3530000 	cmp	r3, #0
 c003f98:	1a00000e 	bne	c003fd8 <itoa+0x74>
    {
        str[i++] = '0';
 c003f9c:	e51b3010 	ldr	r3, [fp, #-16]
 c003fa0:	e51b2024 	ldr	r2, [fp, #-36]	; 0xffffffdc
 c003fa4:	e0823003 	add	r3, r2, r3
 c003fa8:	e3a02030 	mov	r2, #48	; 0x30
 c003fac:	e5c32000 	strb	r2, [r3]
 c003fb0:	e51b3010 	ldr	r3, [fp, #-16]
 c003fb4:	e2833001 	add	r3, r3, #1
 c003fb8:	e50b3010 	str	r3, [fp, #-16]
        str[i] = '\0';
 c003fbc:	e51b3010 	ldr	r3, [fp, #-16]
 c003fc0:	e51b2024 	ldr	r2, [fp, #-36]	; 0xffffffdc
 c003fc4:	e0823003 	add	r3, r2, r3
 c003fc8:	e3a02000 	mov	r2, #0
 c003fcc:	e5c32000 	strb	r2, [r3]
        return str;
 c003fd0:	e51b3024 	ldr	r3, [fp, #-36]	; 0xffffffdc
 c003fd4:	ea00003f 	b	c0040d8 <itoa+0x174>
    }

    // In standard itoa(), negative numbers are handled only with
    // base 10. Otherwise numbers are considered unsigned.
    if (num < 0 && base == 10)
 c003fd8:	e51b3020 	ldr	r3, [fp, #-32]	; 0xffffffe0
 c003fdc:	e3530000 	cmp	r3, #0
 c003fe0:	aa000026 	bge	c004080 <itoa+0x11c>
 c003fe4:	e51b3028 	ldr	r3, [fp, #-40]	; 0xffffffd8
 c003fe8:	e353000a 	cmp	r3, #10
 c003fec:	1a000023 	bne	c004080 <itoa+0x11c>
    {
        isNegative = 1;
 c003ff0:	e3a03001 	mov	r3, #1
 c003ff4:	e50b3014 	str	r3, [fp, #-20]	; 0xffffffec
        num = -num;
 c003ff8:	e51b3020 	ldr	r3, [fp, #-32]	; 0xffffffe0
 c003ffc:	e2633000 	rsb	r3, r3, #0
 c004000:	e50b3020 	str	r3, [fp, #-32]	; 0xffffffe0
    }

    // Process individual digits
    while (num != 0)
 c004004:	ea00001d 	b	c004080 <itoa+0x11c>
    {
        int rem = num % base;
 c004008:	e51b3020 	ldr	r3, [fp, #-32]	; 0xffffffe0
 c00400c:	e1a00003 	mov	r0, r3
 c004010:	e51b1028 	ldr	r1, [fp, #-40]	; 0xffffffd8
 c004014:	eb000735 	bl	c005cf0 <__aeabi_idivmod>
 c004018:	e1a03001 	mov	r3, r1
 c00401c:	e50b3018 	str	r3, [fp, #-24]	; 0xffffffe8
        str[i++] = (rem > 9)? (rem-10) + 'a' : rem + '0';
 c004020:	e51b3010 	ldr	r3, [fp, #-16]
 c004024:	e51b2024 	ldr	r2, [fp, #-36]	; 0xffffffdc
 c004028:	e0822003 	add	r2, r2, r3
 c00402c:	e51b3018 	ldr	r3, [fp, #-24]	; 0xffffffe8
 c004030:	e3530009 	cmp	r3, #9
 c004034:	da000004 	ble	c00404c <itoa+0xe8>
 c004038:	e51b3018 	ldr	r3, [fp, #-24]	; 0xffffffe8
 c00403c:	e20330ff 	and	r3, r3, #255	; 0xff
 c004040:	e2833057 	add	r3, r3, #87	; 0x57
 c004044:	e20330ff 	and	r3, r3, #255	; 0xff
 c004048:	ea000003 	b	c00405c <itoa+0xf8>
 c00404c:	e51b3018 	ldr	r3, [fp, #-24]	; 0xffffffe8
 c004050:	e20330ff 	and	r3, r3, #255	; 0xff
 c004054:	e2833030 	add	r3, r3, #48	; 0x30
 c004058:	e20330ff 	and	r3, r3, #255	; 0xff
 c00405c:	e5c23000 	strb	r3, [r2]
 c004060:	e51b3010 	ldr	r3, [fp, #-16]
 c004064:	e2833001 	add	r3, r3, #1
 c004068:	e50b3010 	str	r3, [fp, #-16]
        num = num/base;
 c00406c:	e51b0020 	ldr	r0, [fp, #-32]	; 0xffffffe0
 c004070:	e51b1028 	ldr	r1, [fp, #-40]	; 0xffffffd8
 c004074:	eb0006d3 	bl	c005bc8 <__aeabi_idiv>
 c004078:	e1a03000 	mov	r3, r0
 c00407c:	e50b3020 	str	r3, [fp, #-32]	; 0xffffffe0
        isNegative = 1;
        num = -num;
    }

    // Process individual digits
    while (num != 0)
 c004080:	e51b3020 	ldr	r3, [fp, #-32]	; 0xffffffe0
 c004084:	e3530000 	cmp	r3, #0
 c004088:	1affffde 	bne	c004008 <itoa+0xa4>
        str[i++] = (rem > 9)? (rem-10) + 'a' : rem + '0';
        num = num/base;
    }

    // If number is negative, append '-'
    if (isNegative==1)
 c00408c:	e51b3014 	ldr	r3, [fp, #-20]	; 0xffffffec
 c004090:	e3530001 	cmp	r3, #1
 c004094:	1a000007 	bne	c0040b8 <itoa+0x154>
        str[i++] = '-';
 c004098:	e51b3010 	ldr	r3, [fp, #-16]
 c00409c:	e51b2024 	ldr	r2, [fp, #-36]	; 0xffffffdc
 c0040a0:	e0823003 	add	r3, r2, r3
 c0040a4:	e3a0202d 	mov	r2, #45	; 0x2d
 c0040a8:	e5c32000 	strb	r2, [r3]
 c0040ac:	e51b3010 	ldr	r3, [fp, #-16]
 c0040b0:	e2833001 	add	r3, r3, #1
 c0040b4:	e50b3010 	str	r3, [fp, #-16]

    str[i] = '\0'; // Append string terminator
 c0040b8:	e51b3010 	ldr	r3, [fp, #-16]
 c0040bc:	e51b2024 	ldr	r2, [fp, #-36]	; 0xffffffdc
 c0040c0:	e0823003 	add	r3, r2, r3
 c0040c4:	e3a02000 	mov	r2, #0
 c0040c8:	e5c32000 	strb	r2, [r3]

    // Reverse the string
    reverse_string(str);
 c0040cc:	e51b0024 	ldr	r0, [fp, #-36]	; 0xffffffdc
 c0040d0:	ebffff6d 	bl	c003e8c <reverse_string>

    return str;
 c0040d4:	e51b3024 	ldr	r3, [fp, #-36]	; 0xffffffdc
}
 c0040d8:	e1a00003 	mov	r0, r3
 c0040dc:	e24bd00c 	sub	sp, fp, #12
 c0040e0:	e89d6800 	ldm	sp, {fp, sp, lr}
 c0040e4:	e12fff1e 	bx	lr

0c0040e8 <mostrarTiempo>:
void mostrarTiempo() {
 c0040e8:	e1a0c00d 	mov	ip, sp
 c0040ec:	e92dd800 	push	{fp, ip, lr, pc}
 c0040f0:	e24cb004 	sub	fp, ip, #4
 c0040f4:	e24dd068 	sub	sp, sp, #104	; 0x68
	LcdClrRect(0,0,SCR_XSIZE,initY-1,0);
 c0040f8:	e59f3144 	ldr	r3, [pc, #324]	; c004244 <mostrarTiempo+0x15c>
 c0040fc:	e5933000 	ldr	r3, [r3]
 c004100:	e1a03803 	lsl	r3, r3, #16
 c004104:	e1a03823 	lsr	r3, r3, #16
 c004108:	e2433001 	sub	r3, r3, #1
 c00410c:	e1a03803 	lsl	r3, r3, #16
 c004110:	e1a03823 	lsr	r3, r3, #16
 c004114:	e1a03803 	lsl	r3, r3, #16
 c004118:	e1a03823 	lsr	r3, r3, #16
 c00411c:	e1a03803 	lsl	r3, r3, #16
 c004120:	e1a03843 	asr	r3, r3, #16
 c004124:	e3a02000 	mov	r2, #0
 c004128:	e58d2000 	str	r2, [sp]
 c00412c:	e3a00000 	mov	r0, #0
 c004130:	e3a01000 	mov	r1, #0
 c004134:	e3a02d05 	mov	r2, #320	; 0x140
 c004138:	ebfff81f 	bl	c0021bc <LcdClrRect>
	char buffer [5];
	char buffer2 [5];
	itoa (tiempoTotal/1000000,buffer, 10);
 c00413c:	e59f3104 	ldr	r3, [pc, #260]	; c004248 <mostrarTiempo+0x160>
 c004140:	e5932000 	ldr	r2, [r3]
 c004144:	e59f3100 	ldr	r3, [pc, #256]	; c00424c <mostrarTiempo+0x164>
 c004148:	e0831392 	umull	r1, r3, r2, r3
 c00414c:	e1a03923 	lsr	r3, r3, #18
 c004150:	e1a02003 	mov	r2, r3
 c004154:	e24b3014 	sub	r3, fp, #20
 c004158:	e1a00002 	mov	r0, r2
 c00415c:	e1a01003 	mov	r1, r3
 c004160:	e3a0200a 	mov	r2, #10
 c004164:	ebffff7e 	bl	c003f64 <itoa>
	itoa (tiempoCalculo/1000,buffer2, 10);
 c004168:	e59f30e0 	ldr	r3, [pc, #224]	; c004250 <mostrarTiempo+0x168>
 c00416c:	e5932000 	ldr	r2, [r3]
 c004170:	e59f30dc 	ldr	r3, [pc, #220]	; c004254 <mostrarTiempo+0x16c>
 c004174:	e0831392 	umull	r1, r3, r2, r3
 c004178:	e1a03323 	lsr	r3, r3, #6
 c00417c:	e1a02003 	mov	r2, r3
 c004180:	e24b301c 	sub	r3, fp, #28
 c004184:	e1a00002 	mov	r0, r2
 c004188:	e1a01003 	mov	r1, r3
 c00418c:	e3a0200a 	mov	r2, #10
 c004190:	ebffff73 	bl	c003f64 <itoa>
	char str[80];
	strcpy(str, "Tiempo Total:");
 c004194:	e24b306c 	sub	r3, fp, #108	; 0x6c
 c004198:	e1a00003 	mov	r0, r3
 c00419c:	e59f10b4 	ldr	r1, [pc, #180]	; c004258 <mostrarTiempo+0x170>
 c0041a0:	e3a0200e 	mov	r2, #14
 c0041a4:	eb0006da 	bl	c005d14 <memcpy>
	strcat(str, buffer);
 c0041a8:	e24b206c 	sub	r2, fp, #108	; 0x6c
 c0041ac:	e24b3014 	sub	r3, fp, #20
 c0041b0:	e1a00002 	mov	r0, r2
 c0041b4:	e1a01003 	mov	r1, r3
 c0041b8:	eb000785 	bl	c005fd4 <strcat>
	strcat(str, "s. Tiempo Calc:");
 c0041bc:	e24b306c 	sub	r3, fp, #108	; 0x6c
 c0041c0:	e1a00003 	mov	r0, r3
 c0041c4:	eb0007e3 	bl	c006158 <strlen>
 c0041c8:	e1a03000 	mov	r3, r0
 c0041cc:	e24b206c 	sub	r2, fp, #108	; 0x6c
 c0041d0:	e0823003 	add	r3, r2, r3
 c0041d4:	e1a00003 	mov	r0, r3
 c0041d8:	e59f107c 	ldr	r1, [pc, #124]	; c00425c <mostrarTiempo+0x174>
 c0041dc:	e3a02010 	mov	r2, #16
 c0041e0:	eb0006cb 	bl	c005d14 <memcpy>
	strcat(str, buffer2);
 c0041e4:	e24b206c 	sub	r2, fp, #108	; 0x6c
 c0041e8:	e24b301c 	sub	r3, fp, #28
 c0041ec:	e1a00002 	mov	r0, r2
 c0041f0:	e1a01003 	mov	r1, r3
 c0041f4:	eb000776 	bl	c005fd4 <strcat>
	strcat(str, "ms.");
 c0041f8:	e24b306c 	sub	r3, fp, #108	; 0x6c
 c0041fc:	e1a00003 	mov	r0, r3
 c004200:	eb0007d4 	bl	c006158 <strlen>
 c004204:	e1a03000 	mov	r3, r0
 c004208:	e24b206c 	sub	r2, fp, #108	; 0x6c
 c00420c:	e0823003 	add	r3, r2, r3
 c004210:	e1a00003 	mov	r0, r3
 c004214:	e59f1044 	ldr	r1, [pc, #68]	; c004260 <mostrarTiempo+0x178>
 c004218:	e3a02004 	mov	r2, #4
 c00421c:	eb0006bc 	bl	c005d14 <memcpy>
	Lcd_DspAscII8x16(0,0,BLACK,str);
 c004220:	e24b306c 	sub	r3, fp, #108	; 0x6c
 c004224:	e3a00000 	mov	r0, #0
 c004228:	e3a01000 	mov	r1, #0
 c00422c:	e3a0200f 	mov	r2, #15
 c004230:	ebfffd02 	bl	c003640 <Lcd_DspAscII8x16>
	Lcd_Dma_Trans();
 c004234:	ebfffe13 	bl	c003a88 <Lcd_Dma_Trans>
}
 c004238:	e24bd00c 	sub	sp, fp, #12
 c00423c:	e89d6800 	ldm	sp, {fp, sp, lr}
 c004240:	e12fff1e 	bx	lr
 c004244:	0c00622c 	.word	0x0c00622c
 c004248:	0c0075f4 	.word	0x0c0075f4
 c00424c:	431bde83 	.word	0x431bde83
 c004250:	0c0075f0 	.word	0x0c0075f0
 c004254:	10624dd3 	.word	0x10624dd3
 c004258:	0c007528 	.word	0x0c007528
 c00425c:	0c007538 	.word	0x0c007538
 c004260:	0c007548 	.word	0x0c007548

0c004264 <tablero>:

void tablero () {
 c004264:	e1a0c00d 	mov	ip, sp
 c004268:	e92dd800 	push	{fp, ip, lr, pc}
 c00426c:	e24cb004 	sub	fp, ip, #4
 c004270:	e24dd010 	sub	sp, sp, #16
	// Borramos la pantalla
	Lcd_Clr();
 c004274:	ebfff7b5 	bl	c002150 <Lcd_Clr>
	Lcd_Active_Clr();
 c004278:	ebfff766 	bl	c002018 <Lcd_Active_Clr>
	// Pintamos el recuadro exterior en el que ira dibujado el tablero

    mostrarTiempo();
 c00427c:	ebffff99 	bl	c0040e8 <mostrarTiempo>
	Lcd_Draw_Box(initX,initY,limitX,limitY,14);
 c004280:	e59f3364 	ldr	r3, [pc, #868]	; c0045ec <tablero+0x388>
 c004284:	e5933000 	ldr	r3, [r3]
 c004288:	e1a03803 	lsl	r3, r3, #16
 c00428c:	e1a00823 	lsr	r0, r3, #16
 c004290:	e59f3358 	ldr	r3, [pc, #856]	; c0045f0 <tablero+0x38c>
 c004294:	e5933000 	ldr	r3, [r3]
 c004298:	e1a03803 	lsl	r3, r3, #16
 c00429c:	e1a01823 	lsr	r1, r3, #16
 c0042a0:	e59f334c 	ldr	r3, [pc, #844]	; c0045f4 <tablero+0x390>
 c0042a4:	e5933000 	ldr	r3, [r3]
 c0042a8:	e1a03803 	lsl	r3, r3, #16
 c0042ac:	e1a02823 	lsr	r2, r3, #16
 c0042b0:	e59f3340 	ldr	r3, [pc, #832]	; c0045f8 <tablero+0x394>
 c0042b4:	e5933000 	ldr	r3, [r3]
 c0042b8:	e1a03803 	lsl	r3, r3, #16
 c0042bc:	e1a03823 	lsr	r3, r3, #16
 c0042c0:	e1a00800 	lsl	r0, r0, #16
 c0042c4:	e1a00840 	asr	r0, r0, #16
 c0042c8:	e1a01801 	lsl	r1, r1, #16
 c0042cc:	e1a01841 	asr	r1, r1, #16
 c0042d0:	e1a02802 	lsl	r2, r2, #16
 c0042d4:	e1a02842 	asr	r2, r2, #16
 c0042d8:	e1a03803 	lsl	r3, r3, #16
 c0042dc:	e1a03843 	asr	r3, r3, #16
 c0042e0:	e3a0c00e 	mov	ip, #14
 c0042e4:	e58dc000 	str	ip, [sp]
 c0042e8:	ebfff947 	bl	c00280c <Lcd_Draw_Box>
	// Pintamos las lineas (Horizontales y verticales) que conformaran el tablero e informacin
	int i = 1;
 c0042ec:	e3a03001 	mov	r3, #1
 c0042f0:	e50b3010 	str	r3, [fp, #-16]
	for ( i = 1; i < 9; i++) {
 c0042f4:	e3a03001 	mov	r3, #1
 c0042f8:	e50b3010 	str	r3, [fp, #-16]
 c0042fc:	ea0000ae 	b	c0045bc <tablero+0x358>
		if( i % 3 == 0)
 c004300:	e51b1010 	ldr	r1, [fp, #-16]
 c004304:	e59f32f0 	ldr	r3, [pc, #752]	; c0045fc <tablero+0x398>
 c004308:	e0c20193 	smull	r0, r2, r3, r1
 c00430c:	e1a03fc1 	asr	r3, r1, #31
 c004310:	e0632002 	rsb	r2, r3, r2
 c004314:	e1a03002 	mov	r3, r2
 c004318:	e1a03083 	lsl	r3, r3, #1
 c00431c:	e0833002 	add	r3, r3, r2
 c004320:	e0632001 	rsb	r2, r3, r1
 c004324:	e3520000 	cmp	r2, #0
 c004328:	1a000050 	bne	c004470 <tablero+0x20c>
		{
			Lcd_Draw_HLine(initX,limitX,initY + (i*spawnY),14,3);
 c00432c:	e59f32b8 	ldr	r3, [pc, #696]	; c0045ec <tablero+0x388>
 c004330:	e5933000 	ldr	r3, [r3]
 c004334:	e1a03803 	lsl	r3, r3, #16
 c004338:	e1a01823 	lsr	r1, r3, #16
 c00433c:	e59f32b0 	ldr	r3, [pc, #688]	; c0045f4 <tablero+0x390>
 c004340:	e5933000 	ldr	r3, [r3]
 c004344:	e1a03803 	lsl	r3, r3, #16
 c004348:	e1a02823 	lsr	r2, r3, #16
 c00434c:	e51b3010 	ldr	r3, [fp, #-16]
 c004350:	e1a03803 	lsl	r3, r3, #16
 c004354:	e1a03823 	lsr	r3, r3, #16
 c004358:	e59f02a0 	ldr	r0, [pc, #672]	; c004600 <tablero+0x39c>
 c00435c:	e5900000 	ldr	r0, [r0]
 c004360:	e1a00800 	lsl	r0, r0, #16
 c004364:	e1a00820 	lsr	r0, r0, #16
 c004368:	e0030390 	mul	r3, r0, r3
 c00436c:	e1a03803 	lsl	r3, r3, #16
 c004370:	e1a00823 	lsr	r0, r3, #16
 c004374:	e59f3274 	ldr	r3, [pc, #628]	; c0045f0 <tablero+0x38c>
 c004378:	e5933000 	ldr	r3, [r3]
 c00437c:	e1a03803 	lsl	r3, r3, #16
 c004380:	e1a03823 	lsr	r3, r3, #16
 c004384:	e0803003 	add	r3, r0, r3
 c004388:	e1a03803 	lsl	r3, r3, #16
 c00438c:	e1a03823 	lsr	r3, r3, #16
 c004390:	e1a03803 	lsl	r3, r3, #16
 c004394:	e1a03823 	lsr	r3, r3, #16
 c004398:	e1a01801 	lsl	r1, r1, #16
 c00439c:	e1a01841 	asr	r1, r1, #16
 c0043a0:	e1a02802 	lsl	r2, r2, #16
 c0043a4:	e1a02842 	asr	r2, r2, #16
 c0043a8:	e1a03803 	lsl	r3, r3, #16
 c0043ac:	e1a03843 	asr	r3, r3, #16
 c0043b0:	e3a00003 	mov	r0, #3
 c0043b4:	e58d0000 	str	r0, [sp]
 c0043b8:	e1a00001 	mov	r0, r1
 c0043bc:	e1a01002 	mov	r1, r2
 c0043c0:	e1a02003 	mov	r2, r3
 c0043c4:	e3a0300e 	mov	r3, #14
 c0043c8:	ebfffb8c 	bl	c003200 <Lcd_Draw_HLine>
			Lcd_Draw_VLine(initY,limitY,initX + (i*spawnX),14,3);
 c0043cc:	e59f321c 	ldr	r3, [pc, #540]	; c0045f0 <tablero+0x38c>
 c0043d0:	e5933000 	ldr	r3, [r3]
 c0043d4:	e1a03803 	lsl	r3, r3, #16
 c0043d8:	e1a01823 	lsr	r1, r3, #16
 c0043dc:	e59f3214 	ldr	r3, [pc, #532]	; c0045f8 <tablero+0x394>
 c0043e0:	e5933000 	ldr	r3, [r3]
 c0043e4:	e1a03803 	lsl	r3, r3, #16
 c0043e8:	e1a02823 	lsr	r2, r3, #16
 c0043ec:	e51b3010 	ldr	r3, [fp, #-16]
 c0043f0:	e1a03803 	lsl	r3, r3, #16
 c0043f4:	e1a03823 	lsr	r3, r3, #16
 c0043f8:	e59f0204 	ldr	r0, [pc, #516]	; c004604 <tablero+0x3a0>
 c0043fc:	e5900000 	ldr	r0, [r0]
 c004400:	e1a00800 	lsl	r0, r0, #16
 c004404:	e1a00820 	lsr	r0, r0, #16
 c004408:	e0030390 	mul	r3, r0, r3
 c00440c:	e1a03803 	lsl	r3, r3, #16
 c004410:	e1a00823 	lsr	r0, r3, #16
 c004414:	e59f31d0 	ldr	r3, [pc, #464]	; c0045ec <tablero+0x388>
 c004418:	e5933000 	ldr	r3, [r3]
 c00441c:	e1a03803 	lsl	r3, r3, #16
 c004420:	e1a03823 	lsr	r3, r3, #16
 c004424:	e0803003 	add	r3, r0, r3
 c004428:	e1a03803 	lsl	r3, r3, #16
 c00442c:	e1a03823 	lsr	r3, r3, #16
 c004430:	e1a03803 	lsl	r3, r3, #16
 c004434:	e1a03823 	lsr	r3, r3, #16
 c004438:	e1a01801 	lsl	r1, r1, #16
 c00443c:	e1a01841 	asr	r1, r1, #16
 c004440:	e1a02802 	lsl	r2, r2, #16
 c004444:	e1a02842 	asr	r2, r2, #16
 c004448:	e1a03803 	lsl	r3, r3, #16
 c00444c:	e1a03843 	asr	r3, r3, #16
 c004450:	e3a00003 	mov	r0, #3
 c004454:	e58d0000 	str	r0, [sp]
 c004458:	e1a00001 	mov	r0, r1
 c00445c:	e1a01002 	mov	r1, r2
 c004460:	e1a02003 	mov	r2, r3
 c004464:	e3a0300e 	mov	r3, #14
 c004468:	ebfffbe6 	bl	c003408 <Lcd_Draw_VLine>
 c00446c:	ea00004f 	b	c0045b0 <tablero+0x34c>
		}
		else
		{
		Lcd_Draw_HLine(initX,limitX,initY + (i*spawnY),14,1);
 c004470:	e59f3174 	ldr	r3, [pc, #372]	; c0045ec <tablero+0x388>
 c004474:	e5933000 	ldr	r3, [r3]
 c004478:	e1a03803 	lsl	r3, r3, #16
 c00447c:	e1a01823 	lsr	r1, r3, #16
 c004480:	e59f316c 	ldr	r3, [pc, #364]	; c0045f4 <tablero+0x390>
 c004484:	e5933000 	ldr	r3, [r3]
 c004488:	e1a03803 	lsl	r3, r3, #16
 c00448c:	e1a02823 	lsr	r2, r3, #16
 c004490:	e51b3010 	ldr	r3, [fp, #-16]
 c004494:	e1a03803 	lsl	r3, r3, #16
 c004498:	e1a03823 	lsr	r3, r3, #16
 c00449c:	e59f015c 	ldr	r0, [pc, #348]	; c004600 <tablero+0x39c>
 c0044a0:	e5900000 	ldr	r0, [r0]
 c0044a4:	e1a00800 	lsl	r0, r0, #16
 c0044a8:	e1a00820 	lsr	r0, r0, #16
 c0044ac:	e0030390 	mul	r3, r0, r3
 c0044b0:	e1a03803 	lsl	r3, r3, #16
 c0044b4:	e1a00823 	lsr	r0, r3, #16
 c0044b8:	e59f3130 	ldr	r3, [pc, #304]	; c0045f0 <tablero+0x38c>
 c0044bc:	e5933000 	ldr	r3, [r3]
 c0044c0:	e1a03803 	lsl	r3, r3, #16
 c0044c4:	e1a03823 	lsr	r3, r3, #16
 c0044c8:	e0803003 	add	r3, r0, r3
 c0044cc:	e1a03803 	lsl	r3, r3, #16
 c0044d0:	e1a03823 	lsr	r3, r3, #16
 c0044d4:	e1a03803 	lsl	r3, r3, #16
 c0044d8:	e1a03823 	lsr	r3, r3, #16
 c0044dc:	e1a01801 	lsl	r1, r1, #16
 c0044e0:	e1a01841 	asr	r1, r1, #16
 c0044e4:	e1a02802 	lsl	r2, r2, #16
 c0044e8:	e1a02842 	asr	r2, r2, #16
 c0044ec:	e1a03803 	lsl	r3, r3, #16
 c0044f0:	e1a03843 	asr	r3, r3, #16
 c0044f4:	e3a00001 	mov	r0, #1
 c0044f8:	e58d0000 	str	r0, [sp]
 c0044fc:	e1a00001 	mov	r0, r1
 c004500:	e1a01002 	mov	r1, r2
 c004504:	e1a02003 	mov	r2, r3
 c004508:	e3a0300e 	mov	r3, #14
 c00450c:	ebfffb3b 	bl	c003200 <Lcd_Draw_HLine>
		Lcd_Draw_VLine(initY,limitY,initX + (i*spawnX),14,1);
 c004510:	e59f30d8 	ldr	r3, [pc, #216]	; c0045f0 <tablero+0x38c>
 c004514:	e5933000 	ldr	r3, [r3]
 c004518:	e1a03803 	lsl	r3, r3, #16
 c00451c:	e1a01823 	lsr	r1, r3, #16
 c004520:	e59f30d0 	ldr	r3, [pc, #208]	; c0045f8 <tablero+0x394>
 c004524:	e5933000 	ldr	r3, [r3]
 c004528:	e1a03803 	lsl	r3, r3, #16
 c00452c:	e1a02823 	lsr	r2, r3, #16
 c004530:	e51b3010 	ldr	r3, [fp, #-16]
 c004534:	e1a03803 	lsl	r3, r3, #16
 c004538:	e1a03823 	lsr	r3, r3, #16
 c00453c:	e59f00c0 	ldr	r0, [pc, #192]	; c004604 <tablero+0x3a0>
 c004540:	e5900000 	ldr	r0, [r0]
 c004544:	e1a00800 	lsl	r0, r0, #16
 c004548:	e1a00820 	lsr	r0, r0, #16
 c00454c:	e0030390 	mul	r3, r0, r3
 c004550:	e1a03803 	lsl	r3, r3, #16
 c004554:	e1a00823 	lsr	r0, r3, #16
 c004558:	e59f308c 	ldr	r3, [pc, #140]	; c0045ec <tablero+0x388>
 c00455c:	e5933000 	ldr	r3, [r3]
 c004560:	e1a03803 	lsl	r3, r3, #16
 c004564:	e1a03823 	lsr	r3, r3, #16
 c004568:	e0803003 	add	r3, r0, r3
 c00456c:	e1a03803 	lsl	r3, r3, #16
 c004570:	e1a03823 	lsr	r3, r3, #16
 c004574:	e1a03803 	lsl	r3, r3, #16
 c004578:	e1a03823 	lsr	r3, r3, #16
 c00457c:	e1a01801 	lsl	r1, r1, #16
 c004580:	e1a01841 	asr	r1, r1, #16
 c004584:	e1a02802 	lsl	r2, r2, #16
 c004588:	e1a02842 	asr	r2, r2, #16
 c00458c:	e1a03803 	lsl	r3, r3, #16
 c004590:	e1a03843 	asr	r3, r3, #16
 c004594:	e3a00001 	mov	r0, #1
 c004598:	e58d0000 	str	r0, [sp]
 c00459c:	e1a00001 	mov	r0, r1
 c0045a0:	e1a01002 	mov	r1, r2
 c0045a4:	e1a02003 	mov	r2, r3
 c0045a8:	e3a0300e 	mov	r3, #14
 c0045ac:	ebfffb95 	bl	c003408 <Lcd_Draw_VLine>

    mostrarTiempo();
	Lcd_Draw_Box(initX,initY,limitX,limitY,14);
	// Pintamos las lineas (Horizontales y verticales) que conformaran el tablero e informacin
	int i = 1;
	for ( i = 1; i < 9; i++) {
 c0045b0:	e51b3010 	ldr	r3, [fp, #-16]
 c0045b4:	e2833001 	add	r3, r3, #1
 c0045b8:	e50b3010 	str	r3, [fp, #-16]
 c0045bc:	e51b3010 	ldr	r3, [fp, #-16]
 c0045c0:	e3530008 	cmp	r3, #8
 c0045c4:	daffff4d 	ble	c004300 <tablero+0x9c>
		{
		Lcd_Draw_HLine(initX,limitX,initY + (i*spawnY),14,1);
		Lcd_Draw_VLine(initY,limitY,initX + (i*spawnX),14,1);
		}
	}
	Lcd_DspAscII8x16(0,SCR_YSIZE-15,BLACK,"INTRODUZCA FILA A PARA ACABAR LA PARTIDA");
 c0045c8:	e3a00000 	mov	r0, #0
 c0045cc:	e3a010e1 	mov	r1, #225	; 0xe1
 c0045d0:	e3a0200f 	mov	r2, #15
 c0045d4:	e59f302c 	ldr	r3, [pc, #44]	; c004608 <tablero+0x3a4>
 c0045d8:	ebfffc18 	bl	c003640 <Lcd_DspAscII8x16>
	Lcd_Dma_Trans();
 c0045dc:	ebfffd29 	bl	c003a88 <Lcd_Dma_Trans>
}
 c0045e0:	e24bd00c 	sub	sp, fp, #12
 c0045e4:	e89d6800 	ldm	sp, {fp, sp, lr}
 c0045e8:	e12fff1e 	bx	lr
 c0045ec:	0c0075e4 	.word	0x0c0075e4
 c0045f0:	0c00622c 	.word	0x0c00622c
 c0045f4:	0c006224 	.word	0x0c006224
 c0045f8:	0c006228 	.word	0x0c006228
 c0045fc:	55555556 	.word	0x55555556
 c004600:	0c006234 	.word	0x0c006234
 c004604:	0c006230 	.word	0x0c006230
 c004608:	0c00754c 	.word	0x0c00754c

0c00460c <putData>:

void putData(char * valor, int x, int y) {
 c00460c:	e1a0c00d 	mov	ip, sp
 c004610:	e92dd800 	push	{fp, ip, lr, pc}
 c004614:	e24cb004 	sub	fp, ip, #4
 c004618:	e24dd018 	sub	sp, sp, #24
 c00461c:	e50b0018 	str	r0, [fp, #-24]	; 0xffffffe8
 c004620:	e50b101c 	str	r1, [fp, #-28]	; 0xffffffe4
 c004624:	e50b2020 	str	r2, [fp, #-32]	; 0xffffffe0
	int x0 = initX + spawnX * y;
 c004628:	e59f3088 	ldr	r3, [pc, #136]	; c0046b8 <putData+0xac>
 c00462c:	e5933000 	ldr	r3, [r3]
 c004630:	e51b2020 	ldr	r2, [fp, #-32]	; 0xffffffe0
 c004634:	e0020293 	mul	r2, r3, r2
 c004638:	e59f307c 	ldr	r3, [pc, #124]	; c0046bc <putData+0xb0>
 c00463c:	e5933000 	ldr	r3, [r3]
 c004640:	e0823003 	add	r3, r2, r3
 c004644:	e50b3010 	str	r3, [fp, #-16]
	int y0 = initY + spawnY * x;
 c004648:	e59f3070 	ldr	r3, [pc, #112]	; c0046c0 <putData+0xb4>
 c00464c:	e5933000 	ldr	r3, [r3]
 c004650:	e51b201c 	ldr	r2, [fp, #-28]	; 0xffffffe4
 c004654:	e0020293 	mul	r2, r3, r2
 c004658:	e59f3064 	ldr	r3, [pc, #100]	; c0046c4 <putData+0xb8>
 c00465c:	e5933000 	ldr	r3, [r3]
 c004660:	e0823003 	add	r3, r2, r3
 c004664:	e50b3014 	str	r3, [fp, #-20]	; 0xffffffec
//	int x1 = x0 + spawnX;
//	int y1 = y0 + spawnY;
	Lcd_DspAscII8x16(x0 + 15,y0 + 7,BLACK,valor);
 c004668:	e51b3010 	ldr	r3, [fp, #-16]
 c00466c:	e1a03803 	lsl	r3, r3, #16
 c004670:	e1a03823 	lsr	r3, r3, #16
 c004674:	e283300f 	add	r3, r3, #15
 c004678:	e1a03803 	lsl	r3, r3, #16
 c00467c:	e1a02823 	lsr	r2, r3, #16
 c004680:	e51b3014 	ldr	r3, [fp, #-20]	; 0xffffffec
 c004684:	e1a03803 	lsl	r3, r3, #16
 c004688:	e1a03823 	lsr	r3, r3, #16
 c00468c:	e2833007 	add	r3, r3, #7
 c004690:	e1a03803 	lsl	r3, r3, #16
 c004694:	e1a03823 	lsr	r3, r3, #16
 c004698:	e1a00002 	mov	r0, r2
 c00469c:	e1a01003 	mov	r1, r3
 c0046a0:	e3a0200f 	mov	r2, #15
 c0046a4:	e51b3018 	ldr	r3, [fp, #-24]	; 0xffffffe8
 c0046a8:	ebfffbe4 	bl	c003640 <Lcd_DspAscII8x16>
}
 c0046ac:	e24bd00c 	sub	sp, fp, #12
 c0046b0:	e89d6800 	ldm	sp, {fp, sp, lr}
 c0046b4:	e12fff1e 	bx	lr
 c0046b8:	0c006230 	.word	0x0c006230
 c0046bc:	0c0075e4 	.word	0x0c0075e4
 c0046c0:	0c006234 	.word	0x0c006234
 c0046c4:	0c00622c 	.word	0x0c00622c

0c0046c8 <putError>:
void putError(char * valor, int x, int y, int pista) {
 c0046c8:	e1a0c00d 	mov	ip, sp
 c0046cc:	e92dd800 	push	{fp, ip, lr, pc}
 c0046d0:	e24cb004 	sub	fp, ip, #4
 c0046d4:	e24dd028 	sub	sp, sp, #40	; 0x28
 c0046d8:	e50b0020 	str	r0, [fp, #-32]	; 0xffffffe0
 c0046dc:	e50b1024 	str	r1, [fp, #-36]	; 0xffffffdc
 c0046e0:	e50b2028 	str	r2, [fp, #-40]	; 0xffffffd8
 c0046e4:	e50b302c 	str	r3, [fp, #-44]	; 0xffffffd4
	int x0 = initX + spawnX * y;
 c0046e8:	e59f3214 	ldr	r3, [pc, #532]	; c004904 <putError+0x23c>
 c0046ec:	e5933000 	ldr	r3, [r3]
 c0046f0:	e51b2028 	ldr	r2, [fp, #-40]	; 0xffffffd8
 c0046f4:	e0020293 	mul	r2, r3, r2
 c0046f8:	e59f3208 	ldr	r3, [pc, #520]	; c004908 <putError+0x240>
 c0046fc:	e5933000 	ldr	r3, [r3]
 c004700:	e0823003 	add	r3, r2, r3
 c004704:	e50b3010 	str	r3, [fp, #-16]
	int y0 = initY + spawnY * x;
 c004708:	e59f31fc 	ldr	r3, [pc, #508]	; c00490c <putError+0x244>
 c00470c:	e5933000 	ldr	r3, [r3]
 c004710:	e51b2024 	ldr	r2, [fp, #-36]	; 0xffffffdc
 c004714:	e0020293 	mul	r2, r3, r2
 c004718:	e59f31f0 	ldr	r3, [pc, #496]	; c004910 <putError+0x248>
 c00471c:	e5933000 	ldr	r3, [r3]
 c004720:	e0823003 	add	r3, r2, r3
 c004724:	e50b3014 	str	r3, [fp, #-20]	; 0xffffffec
	int x1 = x0 + spawnX;
 c004728:	e59f31d4 	ldr	r3, [pc, #468]	; c004904 <putError+0x23c>
 c00472c:	e5933000 	ldr	r3, [r3]
 c004730:	e51b2010 	ldr	r2, [fp, #-16]
 c004734:	e0823003 	add	r3, r2, r3
 c004738:	e50b3018 	str	r3, [fp, #-24]	; 0xffffffe8
	int y1 = y0 + spawnY;
 c00473c:	e59f31c8 	ldr	r3, [pc, #456]	; c00490c <putError+0x244>
 c004740:	e5933000 	ldr	r3, [r3]
 c004744:	e51b2014 	ldr	r2, [fp, #-20]	; 0xffffffec
 c004748:	e0823003 	add	r3, r2, r3
 c00474c:	e50b301c 	str	r3, [fp, #-28]	; 0xffffffe4
	LcdClrRect(x0 + 1,y0 + 1,x1 - 1,y1 - 1,14);
 c004750:	e51b3010 	ldr	r3, [fp, #-16]
 c004754:	e1a03803 	lsl	r3, r3, #16
 c004758:	e1a03823 	lsr	r3, r3, #16
 c00475c:	e2833001 	add	r3, r3, #1
 c004760:	e1a03803 	lsl	r3, r3, #16
 c004764:	e1a03823 	lsr	r3, r3, #16
 c004768:	e1a03803 	lsl	r3, r3, #16
 c00476c:	e1a00823 	lsr	r0, r3, #16
 c004770:	e51b3014 	ldr	r3, [fp, #-20]	; 0xffffffec
 c004774:	e1a03803 	lsl	r3, r3, #16
 c004778:	e1a03823 	lsr	r3, r3, #16
 c00477c:	e2833001 	add	r3, r3, #1
 c004780:	e1a03803 	lsl	r3, r3, #16
 c004784:	e1a03823 	lsr	r3, r3, #16
 c004788:	e1a03803 	lsl	r3, r3, #16
 c00478c:	e1a01823 	lsr	r1, r3, #16
 c004790:	e51b3018 	ldr	r3, [fp, #-24]	; 0xffffffe8
 c004794:	e1a03803 	lsl	r3, r3, #16
 c004798:	e1a03823 	lsr	r3, r3, #16
 c00479c:	e2433001 	sub	r3, r3, #1
 c0047a0:	e1a03803 	lsl	r3, r3, #16
 c0047a4:	e1a03823 	lsr	r3, r3, #16
 c0047a8:	e1a03803 	lsl	r3, r3, #16
 c0047ac:	e1a02823 	lsr	r2, r3, #16
 c0047b0:	e51b301c 	ldr	r3, [fp, #-28]	; 0xffffffe4
 c0047b4:	e1a03803 	lsl	r3, r3, #16
 c0047b8:	e1a03823 	lsr	r3, r3, #16
 c0047bc:	e2433001 	sub	r3, r3, #1
 c0047c0:	e1a03803 	lsl	r3, r3, #16
 c0047c4:	e1a03823 	lsr	r3, r3, #16
 c0047c8:	e1a03803 	lsl	r3, r3, #16
 c0047cc:	e1a03823 	lsr	r3, r3, #16
 c0047d0:	e1a00800 	lsl	r0, r0, #16
 c0047d4:	e1a00840 	asr	r0, r0, #16
 c0047d8:	e1a01801 	lsl	r1, r1, #16
 c0047dc:	e1a01841 	asr	r1, r1, #16
 c0047e0:	e1a02802 	lsl	r2, r2, #16
 c0047e4:	e1a02842 	asr	r2, r2, #16
 c0047e8:	e1a03803 	lsl	r3, r3, #16
 c0047ec:	e1a03843 	asr	r3, r3, #16
 c0047f0:	e3a0c00e 	mov	ip, #14
 c0047f4:	e58dc000 	str	ip, [sp]
 c0047f8:	ebfff66f 	bl	c0021bc <LcdClrRect>
	if (pista==1) {
 c0047fc:	e51b302c 	ldr	r3, [fp, #-44]	; 0xffffffd4
 c004800:	e3530001 	cmp	r3, #1
 c004804:	1a00002a 	bne	c0048b4 <putError+0x1ec>
		Lcd_Draw_Box(x0 + 5,y0 + 2,x1 - 5,y1 - 3,5);
 c004808:	e51b3010 	ldr	r3, [fp, #-16]
 c00480c:	e1a03803 	lsl	r3, r3, #16
 c004810:	e1a03823 	lsr	r3, r3, #16
 c004814:	e2833005 	add	r3, r3, #5
 c004818:	e1a03803 	lsl	r3, r3, #16
 c00481c:	e1a03823 	lsr	r3, r3, #16
 c004820:	e1a03803 	lsl	r3, r3, #16
 c004824:	e1a00823 	lsr	r0, r3, #16
 c004828:	e51b3014 	ldr	r3, [fp, #-20]	; 0xffffffec
 c00482c:	e1a03803 	lsl	r3, r3, #16
 c004830:	e1a03823 	lsr	r3, r3, #16
 c004834:	e2833002 	add	r3, r3, #2
 c004838:	e1a03803 	lsl	r3, r3, #16
 c00483c:	e1a03823 	lsr	r3, r3, #16
 c004840:	e1a03803 	lsl	r3, r3, #16
 c004844:	e1a01823 	lsr	r1, r3, #16
 c004848:	e51b3018 	ldr	r3, [fp, #-24]	; 0xffffffe8
 c00484c:	e1a03803 	lsl	r3, r3, #16
 c004850:	e1a03823 	lsr	r3, r3, #16
 c004854:	e2433005 	sub	r3, r3, #5
 c004858:	e1a03803 	lsl	r3, r3, #16
 c00485c:	e1a03823 	lsr	r3, r3, #16
 c004860:	e1a03803 	lsl	r3, r3, #16
 c004864:	e1a02823 	lsr	r2, r3, #16
 c004868:	e51b301c 	ldr	r3, [fp, #-28]	; 0xffffffe4
 c00486c:	e1a03803 	lsl	r3, r3, #16
 c004870:	e1a03823 	lsr	r3, r3, #16
 c004874:	e2433003 	sub	r3, r3, #3
 c004878:	e1a03803 	lsl	r3, r3, #16
 c00487c:	e1a03823 	lsr	r3, r3, #16
 c004880:	e1a03803 	lsl	r3, r3, #16
 c004884:	e1a03823 	lsr	r3, r3, #16
 c004888:	e1a00800 	lsl	r0, r0, #16
 c00488c:	e1a00840 	asr	r0, r0, #16
 c004890:	e1a01801 	lsl	r1, r1, #16
 c004894:	e1a01841 	asr	r1, r1, #16
 c004898:	e1a02802 	lsl	r2, r2, #16
 c00489c:	e1a02842 	asr	r2, r2, #16
 c0048a0:	e1a03803 	lsl	r3, r3, #16
 c0048a4:	e1a03843 	asr	r3, r3, #16
 c0048a8:	e3a0c005 	mov	ip, #5
 c0048ac:	e58dc000 	str	ip, [sp]
 c0048b0:	ebfff7d5 	bl	c00280c <Lcd_Draw_Box>
	}
//	Lcd_Draw_Box(x0 + 1,y0 + 1,x1 - 1,y1 - 1,14);
//	Lcd_Draw_Box(x0 + 2,y0 + 2,x1 - 2,y1 - 2,14);
	Lcd_DspAscII8x16(x0 + 15,y0 + 7,WHITE,valor);
 c0048b4:	e51b3010 	ldr	r3, [fp, #-16]
 c0048b8:	e1a03803 	lsl	r3, r3, #16
 c0048bc:	e1a03823 	lsr	r3, r3, #16
 c0048c0:	e283300f 	add	r3, r3, #15
 c0048c4:	e1a03803 	lsl	r3, r3, #16
 c0048c8:	e1a02823 	lsr	r2, r3, #16
 c0048cc:	e51b3014 	ldr	r3, [fp, #-20]	; 0xffffffec
 c0048d0:	e1a03803 	lsl	r3, r3, #16
 c0048d4:	e1a03823 	lsr	r3, r3, #16
 c0048d8:	e2833007 	add	r3, r3, #7
 c0048dc:	e1a03803 	lsl	r3, r3, #16
 c0048e0:	e1a03823 	lsr	r3, r3, #16
 c0048e4:	e1a00002 	mov	r0, r2
 c0048e8:	e1a01003 	mov	r1, r3
 c0048ec:	e3a02000 	mov	r2, #0
 c0048f0:	e51b3020 	ldr	r3, [fp, #-32]	; 0xffffffe0
 c0048f4:	ebfffb51 	bl	c003640 <Lcd_DspAscII8x16>
	//putData(valor, x, y);

}
 c0048f8:	e24bd00c 	sub	sp, fp, #12
 c0048fc:	e89d6800 	ldm	sp, {fp, sp, lr}
 c004900:	e12fff1e 	bx	lr
 c004904:	0c006230 	.word	0x0c006230
 c004908:	0c0075e4 	.word	0x0c0075e4
 c00490c:	0c006234 	.word	0x0c006234
 c004910:	0c00622c 	.word	0x0c00622c

0c004914 <putPista>:
void putPista(int x, int y) {
 c004914:	e1a0c00d 	mov	ip, sp
 c004918:	e92dd800 	push	{fp, ip, lr, pc}
 c00491c:	e24cb004 	sub	fp, ip, #4
 c004920:	e24dd020 	sub	sp, sp, #32
 c004924:	e50b0020 	str	r0, [fp, #-32]	; 0xffffffe0
 c004928:	e50b1024 	str	r1, [fp, #-36]	; 0xffffffdc
	int x0 = initX + spawnX * y;
 c00492c:	e59f3118 	ldr	r3, [pc, #280]	; c004a4c <putPista+0x138>
 c004930:	e5933000 	ldr	r3, [r3]
 c004934:	e51b2024 	ldr	r2, [fp, #-36]	; 0xffffffdc
 c004938:	e0020293 	mul	r2, r3, r2
 c00493c:	e59f310c 	ldr	r3, [pc, #268]	; c004a50 <putPista+0x13c>
 c004940:	e5933000 	ldr	r3, [r3]
 c004944:	e0823003 	add	r3, r2, r3
 c004948:	e50b3010 	str	r3, [fp, #-16]
	int y0 = initY + spawnY * x;
 c00494c:	e59f3100 	ldr	r3, [pc, #256]	; c004a54 <putPista+0x140>
 c004950:	e5933000 	ldr	r3, [r3]
 c004954:	e51b2020 	ldr	r2, [fp, #-32]	; 0xffffffe0
 c004958:	e0020293 	mul	r2, r3, r2
 c00495c:	e59f30f4 	ldr	r3, [pc, #244]	; c004a58 <putPista+0x144>
 c004960:	e5933000 	ldr	r3, [r3]
 c004964:	e0823003 	add	r3, r2, r3
 c004968:	e50b3014 	str	r3, [fp, #-20]	; 0xffffffec
	int x1 = x0 + spawnX;
 c00496c:	e59f30d8 	ldr	r3, [pc, #216]	; c004a4c <putPista+0x138>
 c004970:	e5933000 	ldr	r3, [r3]
 c004974:	e51b2010 	ldr	r2, [fp, #-16]
 c004978:	e0823003 	add	r3, r2, r3
 c00497c:	e50b3018 	str	r3, [fp, #-24]	; 0xffffffe8
	int y1 = y0 + spawnY;
 c004980:	e59f30cc 	ldr	r3, [pc, #204]	; c004a54 <putPista+0x140>
 c004984:	e5933000 	ldr	r3, [r3]
 c004988:	e51b2014 	ldr	r2, [fp, #-20]	; 0xffffffec
 c00498c:	e0823003 	add	r3, r2, r3
 c004990:	e50b301c 	str	r3, [fp, #-28]	; 0xffffffe4
	Lcd_Draw_Box(x0 + 5,y0 + 2,x1 - 5,y1 - 3,14);
 c004994:	e51b3010 	ldr	r3, [fp, #-16]
 c004998:	e1a03803 	lsl	r3, r3, #16
 c00499c:	e1a03823 	lsr	r3, r3, #16
 c0049a0:	e2833005 	add	r3, r3, #5
 c0049a4:	e1a03803 	lsl	r3, r3, #16
 c0049a8:	e1a03823 	lsr	r3, r3, #16
 c0049ac:	e1a03803 	lsl	r3, r3, #16
 c0049b0:	e1a00823 	lsr	r0, r3, #16
 c0049b4:	e51b3014 	ldr	r3, [fp, #-20]	; 0xffffffec
 c0049b8:	e1a03803 	lsl	r3, r3, #16
 c0049bc:	e1a03823 	lsr	r3, r3, #16
 c0049c0:	e2833002 	add	r3, r3, #2
 c0049c4:	e1a03803 	lsl	r3, r3, #16
 c0049c8:	e1a03823 	lsr	r3, r3, #16
 c0049cc:	e1a03803 	lsl	r3, r3, #16
 c0049d0:	e1a01823 	lsr	r1, r3, #16
 c0049d4:	e51b3018 	ldr	r3, [fp, #-24]	; 0xffffffe8
 c0049d8:	e1a03803 	lsl	r3, r3, #16
 c0049dc:	e1a03823 	lsr	r3, r3, #16
 c0049e0:	e2433005 	sub	r3, r3, #5
 c0049e4:	e1a03803 	lsl	r3, r3, #16
 c0049e8:	e1a03823 	lsr	r3, r3, #16
 c0049ec:	e1a03803 	lsl	r3, r3, #16
 c0049f0:	e1a02823 	lsr	r2, r3, #16
 c0049f4:	e51b301c 	ldr	r3, [fp, #-28]	; 0xffffffe4
 c0049f8:	e1a03803 	lsl	r3, r3, #16
 c0049fc:	e1a03823 	lsr	r3, r3, #16
 c004a00:	e2433003 	sub	r3, r3, #3
 c004a04:	e1a03803 	lsl	r3, r3, #16
 c004a08:	e1a03823 	lsr	r3, r3, #16
 c004a0c:	e1a03803 	lsl	r3, r3, #16
 c004a10:	e1a03823 	lsr	r3, r3, #16
 c004a14:	e1a00800 	lsl	r0, r0, #16
 c004a18:	e1a00840 	asr	r0, r0, #16
 c004a1c:	e1a01801 	lsl	r1, r1, #16
 c004a20:	e1a01841 	asr	r1, r1, #16
 c004a24:	e1a02802 	lsl	r2, r2, #16
 c004a28:	e1a02842 	asr	r2, r2, #16
 c004a2c:	e1a03803 	lsl	r3, r3, #16
 c004a30:	e1a03843 	asr	r3, r3, #16
 c004a34:	e3a0c00e 	mov	ip, #14
 c004a38:	e58dc000 	str	ip, [sp]
 c004a3c:	ebfff772 	bl	c00280c <Lcd_Draw_Box>
}
 c004a40:	e24bd00c 	sub	sp, fp, #12
 c004a44:	e89d6800 	ldm	sp, {fp, sp, lr}
 c004a48:	e12fff1e 	bx	lr
 c004a4c:	0c006230 	.word	0x0c006230
 c004a50:	0c0075e4 	.word	0x0c0075e4
 c004a54:	0c006234 	.word	0x0c006234
 c004a58:	0c00622c 	.word	0x0c00622c

0c004a5c <putCandidates>:

void putCandidates(int candidatos, int x, int y) {
 c004a5c:	e1a0c00d 	mov	ip, sp
 c004a60:	e92dd800 	push	{fp, ip, lr, pc}
 c004a64:	e24cb004 	sub	fp, ip, #4
 c004a68:	e24dd028 	sub	sp, sp, #40	; 0x28
 c004a6c:	e50b0028 	str	r0, [fp, #-40]	; 0xffffffd8
 c004a70:	e50b102c 	str	r1, [fp, #-44]	; 0xffffffd4
 c004a74:	e50b2030 	str	r2, [fp, #-48]	; 0xffffffd0
	int x0 = initX + spawnX * y + 6; //Add dots margin (in-cell)
 c004a78:	e59f312c 	ldr	r3, [pc, #300]	; c004bac <putCandidates+0x150>
 c004a7c:	e5933000 	ldr	r3, [r3]
 c004a80:	e51b2030 	ldr	r2, [fp, #-48]	; 0xffffffd0
 c004a84:	e0020293 	mul	r2, r3, r2
 c004a88:	e59f3120 	ldr	r3, [pc, #288]	; c004bb0 <putCandidates+0x154>
 c004a8c:	e5933000 	ldr	r3, [r3]
 c004a90:	e0823003 	add	r3, r2, r3
 c004a94:	e2833006 	add	r3, r3, #6
 c004a98:	e50b3010 	str	r3, [fp, #-16]
	int y0 = initY + spawnY * x - 4;
 c004a9c:	e59f3110 	ldr	r3, [pc, #272]	; c004bb4 <putCandidates+0x158>
 c004aa0:	e5933000 	ldr	r3, [r3]
 c004aa4:	e51b202c 	ldr	r2, [fp, #-44]	; 0xffffffd4
 c004aa8:	e0020293 	mul	r2, r3, r2
 c004aac:	e59f3104 	ldr	r3, [pc, #260]	; c004bb8 <putCandidates+0x15c>
 c004ab0:	e5933000 	ldr	r3, [r3]
 c004ab4:	e0823003 	add	r3, r2, r3
 c004ab8:	e2433004 	sub	r3, r3, #4
 c004abc:	e50b3014 	str	r3, [fp, #-20]	; 0xffffffec
	int xcell = 9;
 c004ac0:	e3a03009 	mov	r3, #9
 c004ac4:	e50b301c 	str	r3, [fp, #-28]	; 0xffffffe4
	int ycell = 7;
 c004ac8:	e3a03007 	mov	r3, #7
 c004acc:	e50b3020 	str	r3, [fp, #-32]	; 0xffffffe0

	int i = 1;
 c004ad0:	e3a03001 	mov	r3, #1
 c004ad4:	e50b3018 	str	r3, [fp, #-24]	; 0xffffffe8
	for ( i = 1; i < 10; i++) {
 c004ad8:	e3a03001 	mov	r3, #1
 c004adc:	e50b3018 	str	r3, [fp, #-24]	; 0xffffffe8
 c004ae0:	ea00002b 	b	c004b94 <putCandidates+0x138>
		// chek if it's in the mask
		if(((1 << (i - 1)) & candidatos) != 0) {
 c004ae4:	e51b3018 	ldr	r3, [fp, #-24]	; 0xffffffe8
 c004ae8:	e2433001 	sub	r3, r3, #1
 c004aec:	e51b2028 	ldr	r2, [fp, #-40]	; 0xffffffd8
 c004af0:	e1a03352 	asr	r3, r2, r3
 c004af4:	e2033001 	and	r3, r3, #1
 c004af8:	e20330ff 	and	r3, r3, #255	; 0xff
 c004afc:	e3530000 	cmp	r3, #0
 c004b00:	0a000004 	beq	c004b18 <putCandidates+0xbc>
			paintCircle(x0,y0);
 c004b04:	e59f30b0 	ldr	r3, [pc, #176]	; c004bbc <putCandidates+0x160>
 c004b08:	e51b0010 	ldr	r0, [fp, #-16]
 c004b0c:	e51b1014 	ldr	r1, [fp, #-20]	; 0xffffffec
 c004b10:	e1a0e00f 	mov	lr, pc
 c004b14:	e12fff13 	bx	r3
		}

		// move position ptr
		if( i % 3 == 0)
 c004b18:	e51b1018 	ldr	r1, [fp, #-24]	; 0xffffffe8
 c004b1c:	e59f309c 	ldr	r3, [pc, #156]	; c004bc0 <putCandidates+0x164>
 c004b20:	e0c20193 	smull	r0, r2, r3, r1
 c004b24:	e1a03fc1 	asr	r3, r1, #31
 c004b28:	e0632002 	rsb	r2, r3, r2
 c004b2c:	e1a03002 	mov	r3, r2
 c004b30:	e1a03083 	lsl	r3, r3, #1
 c004b34:	e0833002 	add	r3, r3, r2
 c004b38:	e0632001 	rsb	r2, r3, r1
 c004b3c:	e3520000 	cmp	r2, #0
 c004b40:	1a00000c 	bne	c004b78 <putCandidates+0x11c>
		{
			x0 -= (xcell * 2);
 c004b44:	e51b201c 	ldr	r2, [fp, #-28]	; 0xffffffe4
 c004b48:	e1a03002 	mov	r3, r2
 c004b4c:	e1a03f83 	lsl	r3, r3, #31
 c004b50:	e0623003 	rsb	r3, r2, r3
 c004b54:	e1a03083 	lsl	r3, r3, #1
 c004b58:	e51b2010 	ldr	r2, [fp, #-16]
 c004b5c:	e0823003 	add	r3, r2, r3
 c004b60:	e50b3010 	str	r3, [fp, #-16]
			y0 += ycell;
 c004b64:	e51b2014 	ldr	r2, [fp, #-20]	; 0xffffffec
 c004b68:	e51b3020 	ldr	r3, [fp, #-32]	; 0xffffffe0
 c004b6c:	e0823003 	add	r3, r2, r3
 c004b70:	e50b3014 	str	r3, [fp, #-20]	; 0xffffffec
 c004b74:	ea000003 	b	c004b88 <putCandidates+0x12c>
		}
		else
		{
			x0 += xcell;
 c004b78:	e51b2010 	ldr	r2, [fp, #-16]
 c004b7c:	e51b301c 	ldr	r3, [fp, #-28]	; 0xffffffe4
 c004b80:	e0823003 	add	r3, r2, r3
 c004b84:	e50b3010 	str	r3, [fp, #-16]
	int y0 = initY + spawnY * x - 4;
	int xcell = 9;
	int ycell = 7;

	int i = 1;
	for ( i = 1; i < 10; i++) {
 c004b88:	e51b3018 	ldr	r3, [fp, #-24]	; 0xffffffe8
 c004b8c:	e2833001 	add	r3, r3, #1
 c004b90:	e50b3018 	str	r3, [fp, #-24]	; 0xffffffe8
 c004b94:	e51b3018 	ldr	r3, [fp, #-24]	; 0xffffffe8
 c004b98:	e3530009 	cmp	r3, #9
 c004b9c:	daffffd0 	ble	c004ae4 <putCandidates+0x88>
		{
			x0 += xcell;
		}
	}

}
 c004ba0:	e24bd00c 	sub	sp, fp, #12
 c004ba4:	e89d6800 	ldm	sp, {fp, sp, lr}
 c004ba8:	e12fff1e 	bx	lr
 c004bac:	0c006230 	.word	0x0c006230
 c004bb0:	0c0075e4 	.word	0x0c0075e4
 c004bb4:	0c006234 	.word	0x0c006234
 c004bb8:	0c00622c 	.word	0x0c00622c
 c004bbc:	0c004bc4 	.word	0x0c004bc4
 c004bc0:	55555556 	.word	0x55555556

0c004bc4 <paintCircle>:
void paintCircle(int x, int y) {
 c004bc4:	e1a0c00d 	mov	ip, sp
 c004bc8:	e92dd800 	push	{fp, ip, lr, pc}
 c004bcc:	e24cb004 	sub	fp, ip, #4
 c004bd0:	e24dd008 	sub	sp, sp, #8
 c004bd4:	e50b0010 	str	r0, [fp, #-16]
 c004bd8:	e50b1014 	str	r1, [fp, #-20]	; 0xffffffec
	Lcd_DspAscII8x16(x,y,BLACK,"o");
 c004bdc:	e51b3010 	ldr	r3, [fp, #-16]
 c004be0:	e1a03803 	lsl	r3, r3, #16
 c004be4:	e1a02823 	lsr	r2, r3, #16
 c004be8:	e51b3014 	ldr	r3, [fp, #-20]	; 0xffffffec
 c004bec:	e1a03803 	lsl	r3, r3, #16
 c004bf0:	e1a03823 	lsr	r3, r3, #16
 c004bf4:	e1a00002 	mov	r0, r2
 c004bf8:	e1a01003 	mov	r1, r3
 c004bfc:	e3a0200f 	mov	r2, #15
 c004c00:	e59f300c 	ldr	r3, [pc, #12]	; c004c14 <paintCircle+0x50>
 c004c04:	ebfffa8d 	bl	c003640 <Lcd_DspAscII8x16>
//	Lcd_DspAscII8x16(x+1,y+1,BLACK,"..");

}
 c004c08:	e24bd00c 	sub	sp, fp, #12
 c004c0c:	e89d6800 	ldm	sp, {fp, sp, lr}
 c004c10:	e12fff1e 	bx	lr
 c004c14:	0c007578 	.word	0x0c007578

0c004c18 <putFinal>:

void putFinal(int celdas_vacias)
{
 c004c18:	e1a0c00d 	mov	ip, sp
 c004c1c:	e92dd800 	push	{fp, ip, lr, pc}
 c004c20:	e24cb004 	sub	fp, ip, #4
 c004c24:	e24dd008 	sub	sp, sp, #8
 c004c28:	e50b0010 	str	r0, [fp, #-16]
	// Borramos la pantalla
		mostrarTiempo();
 c004c2c:	ebfffd2d 	bl	c0040e8 <mostrarTiempo>

		if(celdas_vacias == 0) {
 c004c30:	e51b3010 	ldr	r3, [fp, #-16]
 c004c34:	e3530000 	cmp	r3, #0
 c004c38:	1a000005 	bne	c004c54 <putFinal+0x3c>
			Lcd_DspAscII8x16(0,40,BLACK," ENHORABUENA, HA COMPLETADO EL SUDOKU");
 c004c3c:	e3a00000 	mov	r0, #0
 c004c40:	e3a01028 	mov	r1, #40	; 0x28
 c004c44:	e3a0200f 	mov	r2, #15
 c004c48:	e59f3028 	ldr	r3, [pc, #40]	; c004c78 <putFinal+0x60>
 c004c4c:	ebfffa7b 	bl	c003640 <Lcd_DspAscII8x16>
 c004c50:	ea000004 	b	c004c68 <putFinal+0x50>
		} else {
			Lcd_DspAscII8x16(0,40,BLACK,"Juego abandonado.");
 c004c54:	e3a00000 	mov	r0, #0
 c004c58:	e3a01028 	mov	r1, #40	; 0x28
 c004c5c:	e3a0200f 	mov	r2, #15
 c004c60:	e59f3014 	ldr	r3, [pc, #20]	; c004c7c <putFinal+0x64>
 c004c64:	ebfffa75 	bl	c003640 <Lcd_DspAscII8x16>
		}

		Lcd_Dma_Trans();
 c004c68:	ebfffb86 	bl	c003a88 <Lcd_Dma_Trans>
}
 c004c6c:	e24bd00c 	sub	sp, fp, #12
 c004c70:	e89d6800 	ldm	sp, {fp, sp, lr}
 c004c74:	e12fff1e 	bx	lr
 c004c78:	0c00757c 	.word	0x0c00757c
 c004c7c:	0c0075a4 	.word	0x0c0075a4

0c004c80 <leds_on>:
void leds_switch();						// invierte el valor de los leds
void Led_Display(int LedStatus);		// control directo del LED

/*--- codigo de las funciones ---*/
void leds_on()
{
 c004c80:	e1a0c00d 	mov	ip, sp
 c004c84:	e92dd800 	push	{fp, ip, lr, pc}
 c004c88:	e24cb004 	sub	fp, ip, #4
	Led_Display(0x3);
 c004c8c:	e3a00003 	mov	r0, #3
 c004c90:	eb00005a 	bl	c004e00 <Led_Display>
}
 c004c94:	e24bd00c 	sub	sp, fp, #12
 c004c98:	e89d6800 	ldm	sp, {fp, sp, lr}
 c004c9c:	e12fff1e 	bx	lr

0c004ca0 <leds_off>:

void leds_off()
{
 c004ca0:	e1a0c00d 	mov	ip, sp
 c004ca4:	e92dd800 	push	{fp, ip, lr, pc}
 c004ca8:	e24cb004 	sub	fp, ip, #4
	Led_Display(0x0);
 c004cac:	e3a00000 	mov	r0, #0
 c004cb0:	eb000052 	bl	c004e00 <Led_Display>
}
 c004cb4:	e24bd00c 	sub	sp, fp, #12
 c004cb8:	e89d6800 	ldm	sp, {fp, sp, lr}
 c004cbc:	e12fff1e 	bx	lr

0c004cc0 <led1_on>:

void led1_on()
{
 c004cc0:	e1a0c00d 	mov	ip, sp
 c004cc4:	e92dd800 	push	{fp, ip, lr, pc}
 c004cc8:	e24cb004 	sub	fp, ip, #4
	led_state = led_state | 0x1;
 c004ccc:	e59f3028 	ldr	r3, [pc, #40]	; c004cfc <led1_on+0x3c>
 c004cd0:	e5933000 	ldr	r3, [r3]
 c004cd4:	e3832001 	orr	r2, r3, #1
 c004cd8:	e59f301c 	ldr	r3, [pc, #28]	; c004cfc <led1_on+0x3c>
 c004cdc:	e5832000 	str	r2, [r3]
	Led_Display(led_state);
 c004ce0:	e59f3014 	ldr	r3, [pc, #20]	; c004cfc <led1_on+0x3c>
 c004ce4:	e5933000 	ldr	r3, [r3]
 c004ce8:	e1a00003 	mov	r0, r3
 c004cec:	eb000043 	bl	c004e00 <Led_Display>
}
 c004cf0:	e24bd00c 	sub	sp, fp, #12
 c004cf4:	e89d6800 	ldm	sp, {fp, sp, lr}
 c004cf8:	e12fff1e 	bx	lr
 c004cfc:	0c0075e8 	.word	0x0c0075e8

0c004d00 <led1_off>:

void led1_off()
{
 c004d00:	e1a0c00d 	mov	ip, sp
 c004d04:	e92dd800 	push	{fp, ip, lr, pc}
 c004d08:	e24cb004 	sub	fp, ip, #4
	led_state = led_state & 0xfe;
 c004d0c:	e59f3028 	ldr	r3, [pc, #40]	; c004d3c <led1_off+0x3c>
 c004d10:	e5933000 	ldr	r3, [r3]
 c004d14:	e20320fe 	and	r2, r3, #254	; 0xfe
 c004d18:	e59f301c 	ldr	r3, [pc, #28]	; c004d3c <led1_off+0x3c>
 c004d1c:	e5832000 	str	r2, [r3]
	Led_Display(led_state);
 c004d20:	e59f3014 	ldr	r3, [pc, #20]	; c004d3c <led1_off+0x3c>
 c004d24:	e5933000 	ldr	r3, [r3]
 c004d28:	e1a00003 	mov	r0, r3
 c004d2c:	eb000033 	bl	c004e00 <Led_Display>
}
 c004d30:	e24bd00c 	sub	sp, fp, #12
 c004d34:	e89d6800 	ldm	sp, {fp, sp, lr}
 c004d38:	e12fff1e 	bx	lr
 c004d3c:	0c0075e8 	.word	0x0c0075e8

0c004d40 <led2_on>:

void led2_on()
{
 c004d40:	e1a0c00d 	mov	ip, sp
 c004d44:	e92dd800 	push	{fp, ip, lr, pc}
 c004d48:	e24cb004 	sub	fp, ip, #4
	led_state = led_state | 0x2;
 c004d4c:	e59f3028 	ldr	r3, [pc, #40]	; c004d7c <led2_on+0x3c>
 c004d50:	e5933000 	ldr	r3, [r3]
 c004d54:	e3832002 	orr	r2, r3, #2
 c004d58:	e59f301c 	ldr	r3, [pc, #28]	; c004d7c <led2_on+0x3c>
 c004d5c:	e5832000 	str	r2, [r3]
	Led_Display(led_state);
 c004d60:	e59f3014 	ldr	r3, [pc, #20]	; c004d7c <led2_on+0x3c>
 c004d64:	e5933000 	ldr	r3, [r3]
 c004d68:	e1a00003 	mov	r0, r3
 c004d6c:	eb000023 	bl	c004e00 <Led_Display>
}
 c004d70:	e24bd00c 	sub	sp, fp, #12
 c004d74:	e89d6800 	ldm	sp, {fp, sp, lr}
 c004d78:	e12fff1e 	bx	lr
 c004d7c:	0c0075e8 	.word	0x0c0075e8

0c004d80 <led2_off>:

void led2_off()
{
 c004d80:	e1a0c00d 	mov	ip, sp
 c004d84:	e92dd800 	push	{fp, ip, lr, pc}
 c004d88:	e24cb004 	sub	fp, ip, #4
	led_state = led_state & 0xfd;
 c004d8c:	e59f3028 	ldr	r3, [pc, #40]	; c004dbc <led2_off+0x3c>
 c004d90:	e5933000 	ldr	r3, [r3]
 c004d94:	e20320fd 	and	r2, r3, #253	; 0xfd
 c004d98:	e59f301c 	ldr	r3, [pc, #28]	; c004dbc <led2_off+0x3c>
 c004d9c:	e5832000 	str	r2, [r3]
	Led_Display(led_state);
 c004da0:	e59f3014 	ldr	r3, [pc, #20]	; c004dbc <led2_off+0x3c>
 c004da4:	e5933000 	ldr	r3, [r3]
 c004da8:	e1a00003 	mov	r0, r3
 c004dac:	eb000013 	bl	c004e00 <Led_Display>
}
 c004db0:	e24bd00c 	sub	sp, fp, #12
 c004db4:	e89d6800 	ldm	sp, {fp, sp, lr}
 c004db8:	e12fff1e 	bx	lr
 c004dbc:	0c0075e8 	.word	0x0c0075e8

0c004dc0 <leds_switch>:

void leds_switch()
{
 c004dc0:	e1a0c00d 	mov	ip, sp
 c004dc4:	e92dd800 	push	{fp, ip, lr, pc}
 c004dc8:	e24cb004 	sub	fp, ip, #4
	led_state ^= 0x03;
 c004dcc:	e59f3028 	ldr	r3, [pc, #40]	; c004dfc <leds_switch+0x3c>
 c004dd0:	e5933000 	ldr	r3, [r3]
 c004dd4:	e2232003 	eor	r2, r3, #3
 c004dd8:	e59f301c 	ldr	r3, [pc, #28]	; c004dfc <leds_switch+0x3c>
 c004ddc:	e5832000 	str	r2, [r3]
	Led_Display(led_state);
 c004de0:	e59f3014 	ldr	r3, [pc, #20]	; c004dfc <leds_switch+0x3c>
 c004de4:	e5933000 	ldr	r3, [r3]
 c004de8:	e1a00003 	mov	r0, r3
 c004dec:	eb000003 	bl	c004e00 <Led_Display>

}
 c004df0:	e24bd00c 	sub	sp, fp, #12
 c004df4:	e89d6800 	ldm	sp, {fp, sp, lr}
 c004df8:	e12fff1e 	bx	lr
 c004dfc:	0c0075e8 	.word	0x0c0075e8

0c004e00 <Led_Display>:

void Led_Display(int LedStatus)
{
 c004e00:	e1a0c00d 	mov	ip, sp
 c004e04:	e92dd800 	push	{fp, ip, lr, pc}
 c004e08:	e24cb004 	sub	fp, ip, #4
 c004e0c:	e24dd008 	sub	sp, sp, #8
 c004e10:	e50b0010 	str	r0, [fp, #-16]
	led_state = LedStatus;
 c004e14:	e59f3094 	ldr	r3, [pc, #148]	; c004eb0 <Led_Display+0xb0>
 c004e18:	e51b2010 	ldr	r2, [fp, #-16]
 c004e1c:	e5832000 	str	r2, [r3]

	if ((LedStatus & 0x01) == 0x01)
 c004e20:	e51b3010 	ldr	r3, [fp, #-16]
 c004e24:	e2033001 	and	r3, r3, #1
 c004e28:	e20330ff 	and	r3, r3, #255	; 0xff
 c004e2c:	e3530000 	cmp	r3, #0
 c004e30:	0a000006 	beq	c004e50 <Led_Display+0x50>
		rPDATB = rPDATB & 0x5ff; /* poner a 0 el bit 9 del puerto B */
 c004e34:	e59f2078 	ldr	r2, [pc, #120]	; c004eb4 <Led_Display+0xb4>
 c004e38:	e59f3074 	ldr	r3, [pc, #116]	; c004eb4 <Led_Display+0xb4>
 c004e3c:	e5931000 	ldr	r1, [r3]
 c004e40:	e59f3070 	ldr	r3, [pc, #112]	; c004eb8 <Led_Display+0xb8>
 c004e44:	e0013003 	and	r3, r1, r3
 c004e48:	e5823000 	str	r3, [r2]
 c004e4c:	ea000004 	b	c004e64 <Led_Display+0x64>
	else
		rPDATB = rPDATB | 0x200; /* poner a 1 el bit 9 del puerto B */
 c004e50:	e59f305c 	ldr	r3, [pc, #92]	; c004eb4 <Led_Display+0xb4>
 c004e54:	e59f2058 	ldr	r2, [pc, #88]	; c004eb4 <Led_Display+0xb4>
 c004e58:	e5922000 	ldr	r2, [r2]
 c004e5c:	e3822c02 	orr	r2, r2, #512	; 0x200
 c004e60:	e5832000 	str	r2, [r3]

	if ((LedStatus & 0x02) == 0x02)
 c004e64:	e51b3010 	ldr	r3, [fp, #-16]
 c004e68:	e2033002 	and	r3, r3, #2
 c004e6c:	e3530000 	cmp	r3, #0
 c004e70:	0a000006 	beq	c004e90 <Led_Display+0x90>
		rPDATB = rPDATB & 0x3ff; /* poner a 0 el bit 10 del puerto B */
 c004e74:	e59f2038 	ldr	r2, [pc, #56]	; c004eb4 <Led_Display+0xb4>
 c004e78:	e59f3034 	ldr	r3, [pc, #52]	; c004eb4 <Led_Display+0xb4>
 c004e7c:	e5933000 	ldr	r3, [r3]
 c004e80:	e1a03b03 	lsl	r3, r3, #22
 c004e84:	e1a03b23 	lsr	r3, r3, #22
 c004e88:	e5823000 	str	r3, [r2]
 c004e8c:	ea000004 	b	c004ea4 <Led_Display+0xa4>
	else
		rPDATB = rPDATB | 0x400; /* poner a 1 el bit 10 del puerto B */
 c004e90:	e59f301c 	ldr	r3, [pc, #28]	; c004eb4 <Led_Display+0xb4>
 c004e94:	e59f2018 	ldr	r2, [pc, #24]	; c004eb4 <Led_Display+0xb4>
 c004e98:	e5922000 	ldr	r2, [r2]
 c004e9c:	e3822b01 	orr	r2, r2, #1024	; 0x400
 c004ea0:	e5832000 	str	r2, [r3]
}
 c004ea4:	e24bd00c 	sub	sp, fp, #12
 c004ea8:	e89d6800 	ldm	sp, {fp, sp, lr}
 c004eac:	e12fff1e 	bx	lr
 c004eb0:	0c0075e8 	.word	0x0c0075e8
 c004eb4:	01d2000c 	.word	0x01d2000c
 c004eb8:	000005ff 	.word	0x000005ff

0c004ebc <Main>:
/*--- declaracion de funciones ---*/
void Main(void);

/*--- codigo de funciones ---*/
void Main(void)
{
 c004ebc:	e1a0c00d 	mov	ip, sp
 c004ec0:	e92dd800 	push	{fp, ip, lr, pc}
 c004ec4:	e24cb004 	sub	fp, ip, #4
 c004ec8:	e24dd008 	sub	sp, sp, #8
	int vacias = 0;
 c004ecc:	e3a03000 	mov	r3, #0
 c004ed0:	e50b3010 	str	r3, [fp, #-16]
	/* Inicializa controladores */
	sys_init();        // Inicializacion de la placa, interrupciones y puertos
 c004ed4:	ebffef46 	bl	c000bf4 <sys_init>
	timer_init();	   // Inicializacion del temporizador
 c004ed8:	eb00026d 	bl	c005894 <timer_init>
	timer2_inicializar(); //Inicializacion del temporizador2
 c004edc:	eb0002bb 	bl	c0059d0 <timer2_inicializar>
	Eint4567_init();	// inicializamos los pulsadores. Cada vez que se pulse se ver reflejado en el 8led
 c004ee0:	ebfff179 	bl	c0014cc <Eint4567_init>
	D8Led_init(); // inicializamos el 8led
 c004ee4:	ebffef5a 	bl	c000c54 <D8Led_init>
	init_stack();	//inicializamos la pila de debug
 c004ee8:	eb00005c 	bl	c005060 <init_stack>
	Lcd_Init(); //	initial LCD controller
 c004eec:	ebfff3e4 	bl	c001e84 <Lcd_Init>


	/* Valor inicial de los leds */
	leds_off();
 c004ef0:	ebffff6a 	bl	c004ca0 <leds_off>
	led1_on();
 c004ef4:	ebffff71 	bl	c004cc0 <led1_on>
	/* clear screen */
	Lcd_Clr();
 c004ef8:	ebfff494 	bl	c002150 <Lcd_Clr>
	Lcd_Active_Clr();
 c004efc:	ebfff445 	bl	c002018 <Lcd_Active_Clr>
	timer2_empezar();
 c004f00:	eb0002e7 	bl	c005aa4 <timer2_empezar>

//	DoDabort();
	pantalla_inicial();
 c004f04:	ebfffb83 	bl	c003d18 <pantalla_inicial>
	while (1) {

		while (state == 0)
 c004f08:	ea000007 	b	c004f2c <Main+0x70>
		{
			/* Cambia los leds con cada interrupcion del temporizador */
			if (switch_leds == 1)
 c004f0c:	e59f3048 	ldr	r3, [pc, #72]	; c004f5c <Main+0xa0>
 c004f10:	e5933000 	ldr	r3, [r3]
 c004f14:	e3530001 	cmp	r3, #1
 c004f18:	1a000003 	bne	c004f2c <Main+0x70>
			{
				leds_switch();
 c004f1c:	ebffffa7 	bl	c004dc0 <leds_switch>
				switch_leds = 0;
 c004f20:	e59f3034 	ldr	r3, [pc, #52]	; c004f5c <Main+0xa0>
 c004f24:	e3a02000 	mov	r2, #0
 c004f28:	e5832000 	str	r2, [r3]

//	DoDabort();
	pantalla_inicial();
	while (1) {

		while (state == 0)
 c004f2c:	e59f302c 	ldr	r3, [pc, #44]	; c004f60 <Main+0xa4>
 c004f30:	e5933000 	ldr	r3, [r3]
 c004f34:	e3530000 	cmp	r3, #0
 c004f38:	0afffff3 	beq	c004f0c <Main+0x50>
			{
				leds_switch();
				switch_leds = 0;
			}
		}
		tablero();
 c004f3c:	ebfffcc8 	bl	c004264 <tablero>
		vacias = sudoku9x9();
 c004f40:	eb000169 	bl	c0054ec <sudoku9x9>
 c004f44:	e50b0010 	str	r0, [fp, #-16]
		pantalla_inicial();
 c004f48:	ebfffb72 	bl	c003d18 <pantalla_inicial>
		putFinal(vacias);
 c004f4c:	e51b0010 	ldr	r0, [fp, #-16]
 c004f50:	ebffff30 	bl	c004c18 <putFinal>
	}
 c004f54:	e1a00000 	nop			; (mov r0, r0)

//	DoDabort();
	pantalla_inicial();
	while (1) {

		while (state == 0)
 c004f58:	eafffff3 	b	c004f2c <Main+0x70>
 c004f5c:	0c0075f8 	.word	0x0c0075f8
 c004f60:	0c0075bc 	.word	0x0c0075bc

0c004f64 <parpadeos>:
		putFinal(vacias);
	}
}

void parpadeos(void)
{
 c004f64:	e1a0c00d 	mov	ip, sp
 c004f68:	e92dd800 	push	{fp, ip, lr, pc}
 c004f6c:	e24cb004 	sub	fp, ip, #4
 c004f70:	e24dd008 	sub	sp, sp, #8
	int ledvalor = 0x10;
 c004f74:	e3a03010 	mov	r3, #16
 c004f78:	e50b3010 	str	r3, [fp, #-16]
	leds_on();
 c004f7c:	ebffff3f 	bl	c004c80 <leds_on>
	int i = 0;
 c004f80:	e3a03000 	mov	r3, #0
 c004f84:	e50b3014 	str	r3, [fp, #-20]	; 0xffffffec
	while (1)
	{
		if (i == 100000)
 c004f88:	e51b2014 	ldr	r2, [fp, #-20]	; 0xffffffec
 c004f8c:	e59f304c 	ldr	r3, [pc, #76]	; c004fe0 <parpadeos+0x7c>
 c004f90:	e1520003 	cmp	r2, r3
 c004f94:	1a00000d 	bne	c004fd0 <parpadeos+0x6c>
		{
			if (ledvalor == 0x10) {
 c004f98:	e51b3010 	ldr	r3, [fp, #-16]
 c004f9c:	e3530010 	cmp	r3, #16
 c004fa0:	1a000003 	bne	c004fb4 <parpadeos+0x50>
				ledvalor = 0xe;
 c004fa4:	e3a0300e 	mov	r3, #14
 c004fa8:	e50b3010 	str	r3, [fp, #-16]
				leds_off();
 c004fac:	ebffff3b 	bl	c004ca0 <leds_off>
 c004fb0:	ea000002 	b	c004fc0 <parpadeos+0x5c>
			} else {
				ledvalor = 0x10;
 c004fb4:	e3a03010 	mov	r3, #16
 c004fb8:	e50b3010 	str	r3, [fp, #-16]
				leds_on();
 c004fbc:	ebffff2f 	bl	c004c80 <leds_on>
			}
			D8Led_symbol(ledvalor);
 c004fc0:	e51b0010 	ldr	r0, [fp, #-16]
 c004fc4:	ebffef2b 	bl	c000c78 <D8Led_symbol>
			i = 0;
 c004fc8:	e3a03000 	mov	r3, #0
 c004fcc:	e50b3014 	str	r3, [fp, #-20]	; 0xffffffec

		}
		i++;
 c004fd0:	e51b3014 	ldr	r3, [fp, #-20]	; 0xffffffec
 c004fd4:	e2833001 	add	r3, r3, #1
 c004fd8:	e50b3014 	str	r3, [fp, #-20]	; 0xffffffec
	}
 c004fdc:	eaffffe9 	b	c004f88 <parpadeos+0x24>
 c004fe0:	000186a0 	.word	0x000186a0

0c004fe4 <DoUndef>:
 c004fe4:	e6000010 	.word	0xe6000010
.global DoUndef
DoUndef:
     .word 0xE6000010
     mov pc, lr
 c004fe8:	e1a0f00e 	mov	pc, lr

0c004fec <DoDabort>:

.global DoDabort
DoDabort:
	ldr r0, =0x0a333333
 c004fec:	e59f0004 	ldr	r0, [pc, #4]	; c004ff8 <DoDabort+0xc>
	str r0, [r0]
 c004ff0:	e5800000 	str	r0, [r0]
    mov pc, lr
 c004ff4:	e1a0f00e 	mov	pc, lr
 c004ff8:	0a333333 	.word	0x0a333333

0c004ffc <sudoku_recalcular_arm>:
#	r0: numero de celdas vacias
#######################################################################################################
.global sudoku_recalcular_arm
sudoku_recalcular_arm:

		STMFD   sp!, {r4-r8,lr}
 c004ffc:	e92d41f0 	push	{r4, r5, r6, r7, r8, lr}

		mov r4, #0 //vacias = 0
 c005000:	e3a04000 	mov	r4, #0
		mov r5, r0	// r5 = sudoku
 c005004:	e1a05000 	mov	r5, r0
		mov r8, r1
 c005008:	e1a08001 	mov	r8, r1
		mov r6, #0  // r6 = 0 (fila)
 c00500c:	e3a06000 	mov	r6, #0

0c005010 <for1>:
for1:
		cmp r6, #9
 c005010:	e3560009 	cmp	r6, #9
		beq sal
 c005014:	0a00000e 	beq	c005054 <sal>
		mov r7, #0  // r7 = 0 (columna)
 c005018:	e3a07000 	mov	r7, #0

0c00501c <for2>:
for2:
		cmp r7, #9  //r1 = columna
 c00501c:	e3570009 	cmp	r7, #9
		addeq r6, r6, #1  //fila = fila + 1
 c005020:	02866001 	addeq	r6, r6, #1
		beq for1
 c005024:	0afffff9 	beq	c005010 <for1>
		mov r0, r5		//parametro1
 c005028:	e1a00005 	mov	r0, r5
		mov r1, r6		//parametro2
 c00502c:	e1a01006 	mov	r1, r6
		mov r2, r7		//parametro3
 c005030:	e1a02007 	mov	r2, r7
		cmp r8, #0
 c005034:	e3580000 	cmp	r8, #0
		//bleq sudoku_candidatos_c	//Metodo candidatos escrito en C
		cmp r8, #1
 c005038:	e3580001 	cmp	r8, #1
		bleq sudoku_candidatos_arm  //Metodo candidatos escrito en ARM
 c00503c:	0bfff30e 	bleq	c001c7c <sudoku_candidatos_arm>
		cmp r8, #2
 c005040:	e3580002 	cmp	r8, #2
		//bleq sudoku_candidatos_thumb  //Metodo candidatos escrito en THUMB
		cmp r0, #0   //comp si vacia
 c005044:	e3500000 	cmp	r0, #0
		addeq r4, r4, #1
 c005048:	02844001 	addeq	r4, r4, #1
		add r7, r7, #1  //columna = columna + 1
 c00504c:	e2877001 	add	r7, r7, #1
		b for2
 c005050:	eafffff1 	b	c00501c <for2>

0c005054 <sal>:
sal:
		mov r0, r4
 c005054:	e1a00004 	mov	r0, r4

		LDMFD   sp!, {r4-r8,lr}
 c005058:	e8bd41f0 	pop	{r4, r5, r6, r7, r8, lr}
        # return to the instruccion that called the rutine and to arm mode
        BX      lr
 c00505c:	e12fff1e 	bx	lr

0c005060 <init_stack>:
void init_stack(void);
void push_debug(int ID_evento, int auxData);


void init_stack(void)
{
 c005060:	e1a0c00d 	mov	ip, sp
 c005064:	e92dd800 	push	{fp, ip, lr, pc}
 c005068:	e24cb004 	sub	fp, ip, #4
 c00506c:	e24dd008 	sub	sp, sp, #8
	dstackPt = (unsigned int *) DS_START;
 c005070:	e59f304c 	ldr	r3, [pc, #76]	; c0050c4 <init_stack+0x64>
 c005074:	e59f204c 	ldr	r2, [pc, #76]	; c0050c8 <init_stack+0x68>
 c005078:	e5832000 	str	r2, [r3]
	int * ipt;
	// Ponemos toda la pila a 0
	for ( ipt = dstackPt - 1; ipt > (unsigned int *) DS_END; ipt-- )
 c00507c:	e59f3040 	ldr	r3, [pc, #64]	; c0050c4 <init_stack+0x64>
 c005080:	e5933000 	ldr	r3, [r3]
 c005084:	e2433004 	sub	r3, r3, #4
 c005088:	e50b3010 	str	r3, [fp, #-16]
 c00508c:	ea000005 	b	c0050a8 <init_stack+0x48>
	{
		(ipt[0]) = 0;
 c005090:	e51b3010 	ldr	r3, [fp, #-16]
 c005094:	e3a02000 	mov	r2, #0
 c005098:	e5832000 	str	r2, [r3]
void init_stack(void)
{
	dstackPt = (unsigned int *) DS_START;
	int * ipt;
	// Ponemos toda la pila a 0
	for ( ipt = dstackPt - 1; ipt > (unsigned int *) DS_END; ipt-- )
 c00509c:	e51b3010 	ldr	r3, [fp, #-16]
 c0050a0:	e2433004 	sub	r3, r3, #4
 c0050a4:	e50b3010 	str	r3, [fp, #-16]
 c0050a8:	e51b2010 	ldr	r2, [fp, #-16]
 c0050ac:	e59f3018 	ldr	r3, [pc, #24]	; c0050cc <init_stack+0x6c>
 c0050b0:	e1520003 	cmp	r2, r3
 c0050b4:	8afffff5 	bhi	c005090 <init_stack+0x30>
	{
		(ipt[0]) = 0;
	}

}
 c0050b8:	e24bd00c 	sub	sp, fp, #12
 c0050bc:	e89d6800 	ldm	sp, {fp, sp, lr}
 c0050c0:	e12fff1e 	bx	lr
 c0050c4:	0c0075ec 	.word	0x0c0075ec
 c0050c8:	0c7ff700 	.word	0x0c7ff700
 c0050cc:	0c7ff600 	.word	0x0c7ff600

0c0050d0 <push_debug>:

void push_debug(int ID_evento, int auxData)
{
 c0050d0:	e1a0c00d 	mov	ip, sp
 c0050d4:	e92dd810 	push	{r4, fp, ip, lr, pc}
 c0050d8:	e24cb004 	sub	fp, ip, #4
 c0050dc:	e24dd00c 	sub	sp, sp, #12
 c0050e0:	e50b0018 	str	r0, [fp, #-24]	; 0xffffffe8
 c0050e4:	e50b101c 	str	r1, [fp, #-28]	; 0xffffffe4
	dstackPt -= 4;
 c0050e8:	e59f3088 	ldr	r3, [pc, #136]	; c005178 <push_debug+0xa8>
 c0050ec:	e5933000 	ldr	r3, [r3]
 c0050f0:	e2432010 	sub	r2, r3, #16
 c0050f4:	e59f307c 	ldr	r3, [pc, #124]	; c005178 <push_debug+0xa8>
 c0050f8:	e5832000 	str	r2, [r3]
	if (dstackPt < (unsigned int *) DS_END)
 c0050fc:	e59f3074 	ldr	r3, [pc, #116]	; c005178 <push_debug+0xa8>
 c005100:	e5932000 	ldr	r2, [r3]
 c005104:	e59f3070 	ldr	r3, [pc, #112]	; c00517c <push_debug+0xac>
 c005108:	e1520003 	cmp	r2, r3
 c00510c:	8a000007 	bhi	c005130 <push_debug+0x60>
	{
		dstackPt = (unsigned int *) DS_START;
 c005110:	e59f3060 	ldr	r3, [pc, #96]	; c005178 <push_debug+0xa8>
 c005114:	e59f2064 	ldr	r2, [pc, #100]	; c005180 <push_debug+0xb0>
 c005118:	e5832000 	str	r2, [r3]
		dstackPt -= 4;
 c00511c:	e59f3054 	ldr	r3, [pc, #84]	; c005178 <push_debug+0xa8>
 c005120:	e5933000 	ldr	r3, [r3]
 c005124:	e2432010 	sub	r2, r3, #16
 c005128:	e59f3048 	ldr	r3, [pc, #72]	; c005178 <push_debug+0xa8>
 c00512c:	e5832000 	str	r2, [r3]
	}
	(dstackPt[0]) = ID_evento;
 c005130:	e59f3040 	ldr	r3, [pc, #64]	; c005178 <push_debug+0xa8>
 c005134:	e5933000 	ldr	r3, [r3]
 c005138:	e51b2018 	ldr	r2, [fp, #-24]	; 0xffffffe8
 c00513c:	e5832000 	str	r2, [r3]
	(dstackPt[1]) = timer2_leer();
 c005140:	e59f3030 	ldr	r3, [pc, #48]	; c005178 <push_debug+0xa8>
 c005144:	e5933000 	ldr	r3, [r3]
 c005148:	e2834004 	add	r4, r3, #4
 c00514c:	eb000264 	bl	c005ae4 <timer2_leer>
 c005150:	e1a03000 	mov	r3, r0
 c005154:	e5843000 	str	r3, [r4]
	(dstackPt[2]) = auxData;
 c005158:	e59f3018 	ldr	r3, [pc, #24]	; c005178 <push_debug+0xa8>
 c00515c:	e5933000 	ldr	r3, [r3]
 c005160:	e2833008 	add	r3, r3, #8
 c005164:	e51b201c 	ldr	r2, [fp, #-28]	; 0xffffffe4
 c005168:	e5832000 	str	r2, [r3]

}
 c00516c:	e24bd010 	sub	sp, fp, #16
 c005170:	e89d6810 	ldm	sp, {r4, fp, sp, lr}
 c005174:	e12fff1e 	bx	lr
 c005178:	0c0075ec 	.word	0x0c0075ec
 c00517c:	0c7ff5ff 	.word	0x0c7ff5ff
 c005180:	0c7ff700 	.word	0x0c7ff700

0c005184 <celda_poner_valor>:
// 1 bit ERROR
// 1 bit no usado
// 9 LSB CANDIDATOS


inline void celda_poner_valor(CELDA *celdaptr, uint8_t val){
 c005184:	e1a0c00d 	mov	ip, sp
 c005188:	e92dd800 	push	{fp, ip, lr, pc}
 c00518c:	e24cb004 	sub	fp, ip, #4
 c005190:	e24dd008 	sub	sp, sp, #8
 c005194:	e50b0010 	str	r0, [fp, #-16]
 c005198:	e1a03001 	mov	r3, r1
 c00519c:	e54b3011 	strb	r3, [fp, #-17]	; 0xffffffef
	*celdaptr = (*celdaptr & 0x0FFF) | ((val & 0x000F) << 12);
 c0051a0:	e51b3010 	ldr	r3, [fp, #-16]
 c0051a4:	e1d330b0 	ldrh	r3, [r3]
 c0051a8:	e1a03803 	lsl	r3, r3, #16
 c0051ac:	e1a03823 	lsr	r3, r3, #16
 c0051b0:	e1a03a03 	lsl	r3, r3, #20
 c0051b4:	e1a03a23 	lsr	r3, r3, #20
 c0051b8:	e1a03803 	lsl	r3, r3, #16
 c0051bc:	e1a02823 	lsr	r2, r3, #16
 c0051c0:	e55b3011 	ldrb	r3, [fp, #-17]	; 0xffffffef
 c0051c4:	e1a03603 	lsl	r3, r3, #12
 c0051c8:	e1a03803 	lsl	r3, r3, #16
 c0051cc:	e1a03823 	lsr	r3, r3, #16
 c0051d0:	e1823003 	orr	r3, r2, r3
 c0051d4:	e1a03803 	lsl	r3, r3, #16
 c0051d8:	e1a03823 	lsr	r3, r3, #16
 c0051dc:	e1a03803 	lsl	r3, r3, #16
 c0051e0:	e1a02823 	lsr	r2, r3, #16
 c0051e4:	e51b3010 	ldr	r3, [fp, #-16]
 c0051e8:	e1c320b0 	strh	r2, [r3]
}
 c0051ec:	e24bd00c 	sub	sp, fp, #12
 c0051f0:	e89d6800 	ldm	sp, {fp, sp, lr}
 c0051f4:	e12fff1e 	bx	lr

0c0051f8 <celda_leer_valor>:
inline uint8_t celda_leer_valor(CELDA celda){
 c0051f8:	e1a0c00d 	mov	ip, sp
 c0051fc:	e92dd800 	push	{fp, ip, lr, pc}
 c005200:	e24cb004 	sub	fp, ip, #4
 c005204:	e24dd008 	sub	sp, sp, #8
 c005208:	e1a03000 	mov	r3, r0
 c00520c:	e14b30be 	strh	r3, [fp, #-14]
	return celda >> 12;
 c005210:	e15b30be 	ldrh	r3, [fp, #-14]
 c005214:	e1a03623 	lsr	r3, r3, #12
 c005218:	e1a03803 	lsl	r3, r3, #16
 c00521c:	e1a03823 	lsr	r3, r3, #16
 c005220:	e20330ff 	and	r3, r3, #255	; 0xff
}
 c005224:	e1a00003 	mov	r0, r3
 c005228:	e24bd00c 	sub	sp, fp, #12
 c00522c:	e89d6800 	ldm	sp, {fp, sp, lr}
 c005230:	e12fff1e 	bx	lr

0c005234 <celda_leer_candidatos>:
inline uint16_t celda_leer_candidatos(CELDA celda){
 c005234:	e1a0c00d 	mov	ip, sp
 c005238:	e92dd800 	push	{fp, ip, lr, pc}
 c00523c:	e24cb004 	sub	fp, ip, #4
 c005240:	e24dd008 	sub	sp, sp, #8
 c005244:	e1a03000 	mov	r3, r0
 c005248:	e14b30be 	strh	r3, [fp, #-14]
	return celda & 0x01FF;
 c00524c:	e15b30be 	ldrh	r3, [fp, #-14]
 c005250:	e1a03b83 	lsl	r3, r3, #23
 c005254:	e1a03ba3 	lsr	r3, r3, #23
 c005258:	e1a03803 	lsl	r3, r3, #16
 c00525c:	e1a03823 	lsr	r3, r3, #16
}
 c005260:	e1a00003 	mov	r0, r3
 c005264:	e24bd00c 	sub	sp, fp, #12
 c005268:	e89d6800 	ldm	sp, {fp, sp, lr}
 c00526c:	e12fff1e 	bx	lr

0c005270 <es_pista>:
inline int es_pista(CELDA celda){
 c005270:	e1a0c00d 	mov	ip, sp
 c005274:	e92dd800 	push	{fp, ip, lr, pc}
 c005278:	e24cb004 	sub	fp, ip, #4
 c00527c:	e24dd010 	sub	sp, sp, #16
 c005280:	e1a03000 	mov	r3, r0
 c005284:	e14b31b6 	strh	r3, [fp, #-22]	; 0xffffffea
	int res = celda & 0x800;
 c005288:	e15b31b6 	ldrh	r3, [fp, #-22]	; 0xffffffea
 c00528c:	e2033b02 	and	r3, r3, #2048	; 0x800
 c005290:	e50b3010 	str	r3, [fp, #-16]
	return res;
 c005294:	e51b3010 	ldr	r3, [fp, #-16]
}
 c005298:	e1a00003 	mov	r0, r3
 c00529c:	e24bd00c 	sub	sp, fp, #12
 c0052a0:	e89d6800 	ldm	sp, {fp, sp, lr}
 c0052a4:	e12fff1e 	bx	lr

0c0052a8 <sudoku_recalcular_c>:
// dependiendo del valor que devuelve la ejecucion del metodo candidatos
// Parametros:
// 	cuadricula: direccin en memoria del sudoku
// Devuelve:
//	numero de celdas vacias, en negativo si hay error
int sudoku_recalcular_c(CELDA cuadricula[NUM_FILAS][NUM_COLUMNAS]) {
 c0052a8:	e1a0c00d 	mov	ip, sp
 c0052ac:	e92dd800 	push	{fp, ip, lr, pc}
 c0052b0:	e24cb004 	sub	fp, ip, #4
 c0052b4:	e24dd030 	sub	sp, sp, #48	; 0x30
 c0052b8:	e50b0038 	str	r0, [fp, #-56]	; 0xffffffc8

	//Recorre todas las celdas almacenando las celdas vacias
	int vacias = 0,x,y;
 c0052bc:	e3a03000 	mov	r3, #0
 c0052c0:	e50b3010 	str	r3, [fp, #-16]
	int resultado = 0;
 c0052c4:	e3a03000 	mov	r3, #0
 c0052c8:	e50b3024 	str	r3, [fp, #-36]	; 0xffffffdc
	int candidatos = 0;
 c0052cc:	e3a03000 	mov	r3, #0
 c0052d0:	e50b3028 	str	r3, [fp, #-40]	; 0xffffffd8
	unsigned int tiempoTemp = timer2_leer();
 c0052d4:	eb000202 	bl	c005ae4 <timer2_leer>
 c0052d8:	e1a03000 	mov	r3, r0
 c0052dc:	e50b302c 	str	r3, [fp, #-44]	; 0xffffffd4
	int error = 1;
 c0052e0:	e3a03001 	mov	r3, #1
 c0052e4:	e50b301c 	str	r3, [fp, #-28]	; 0xffffffe4
//	char *valor;
	error = 1;
 c0052e8:	e3a03001 	mov	r3, #1
 c0052ec:	e50b301c 	str	r3, [fp, #-28]	; 0xffffffe4
	for (x = 0; x < NUM_FILAS; x++) {
 c0052f0:	e3a03000 	mov	r3, #0
 c0052f4:	e50b3014 	str	r3, [fp, #-20]	; 0xffffffec
 c0052f8:	ea00005f 	b	c00547c <sudoku_recalcular_c+0x1d4>
		for (y = 0; y < NUM_FILAS; y++) {
 c0052fc:	e3a03000 	mov	r3, #0
 c005300:	e50b3018 	str	r3, [fp, #-24]	; 0xffffffe8
 c005304:	ea000056 	b	c005464 <sudoku_recalcular_c+0x1bc>

			// Lanzamos el metodo candidatos escrito en ARM
			resultado = sudoku_candidatos_arm(cuadricula,x,y);
 c005308:	e51b0038 	ldr	r0, [fp, #-56]	; 0xffffffc8
 c00530c:	e51b1014 	ldr	r1, [fp, #-20]	; 0xffffffec
 c005310:	e51b2018 	ldr	r2, [fp, #-24]	; 0xffffffe8
 c005314:	ebfff258 	bl	c001c7c <sudoku_candidatos_arm>
 c005318:	e50b0024 	str	r0, [fp, #-36]	; 0xffffffdc
			char buffer [1];
			itoa(celda_leer_valor(cuadricula[x][y]),buffer,10);
 c00531c:	e51b3014 	ldr	r3, [fp, #-20]	; 0xffffffec
 c005320:	e1a03283 	lsl	r3, r3, #5
 c005324:	e51b2038 	ldr	r2, [fp, #-56]	; 0xffffffc8
 c005328:	e0822003 	add	r2, r2, r3
 c00532c:	e51b3018 	ldr	r3, [fp, #-24]	; 0xffffffe8
 c005330:	e1a03083 	lsl	r3, r3, #1
 c005334:	e0823003 	add	r3, r2, r3
 c005338:	e1d330b0 	ldrh	r3, [r3]
 c00533c:	e1a00003 	mov	r0, r3
 c005340:	ebffffac 	bl	c0051f8 <celda_leer_valor>
 c005344:	e1a03000 	mov	r3, r0
 c005348:	e1a02003 	mov	r2, r3
 c00534c:	e24b3030 	sub	r3, fp, #48	; 0x30
 c005350:	e1a00002 	mov	r0, r2
 c005354:	e1a01003 	mov	r1, r3
 c005358:	e3a0200a 	mov	r2, #10
 c00535c:	ebfffb00 	bl	c003f64 <itoa>
			int pista = 0;
 c005360:	e3a03000 	mov	r3, #0
 c005364:	e50b3020 	str	r3, [fp, #-32]	; 0xffffffe0
			if(es_pista(cuadricula[x][y])) {
 c005368:	e51b3014 	ldr	r3, [fp, #-20]	; 0xffffffec
 c00536c:	e1a03283 	lsl	r3, r3, #5
 c005370:	e51b2038 	ldr	r2, [fp, #-56]	; 0xffffffc8
 c005374:	e0822003 	add	r2, r2, r3
 c005378:	e51b3018 	ldr	r3, [fp, #-24]	; 0xffffffe8
 c00537c:	e1a03083 	lsl	r3, r3, #1
 c005380:	e0823003 	add	r3, r2, r3
 c005384:	e1d330b0 	ldrh	r3, [r3]
 c005388:	e1a00003 	mov	r0, r3
 c00538c:	ebffffb7 	bl	c005270 <es_pista>
 c005390:	e1a03000 	mov	r3, r0
 c005394:	e3530000 	cmp	r3, #0
 c005398:	0a000004 	beq	c0053b0 <sudoku_recalcular_c+0x108>
							putPista(x,y);
 c00539c:	e51b0014 	ldr	r0, [fp, #-20]	; 0xffffffec
 c0053a0:	e51b1018 	ldr	r1, [fp, #-24]	; 0xffffffe8
 c0053a4:	ebfffd5a 	bl	c004914 <putPista>
							pista=1;
 c0053a8:	e3a03001 	mov	r3, #1
 c0053ac:	e50b3020 	str	r3, [fp, #-32]	; 0xffffffe0
			}

			switch(resultado)
 c0053b0:	e51b3024 	ldr	r3, [fp, #-36]	; 0xffffffdc
 c0053b4:	e3530000 	cmp	r3, #0
 c0053b8:	0a00000c 	beq	c0053f0 <sudoku_recalcular_c+0x148>
 c0053bc:	e3530001 	cmp	r3, #1
 c0053c0:	0a00001e 	beq	c005440 <sudoku_recalcular_c+0x198>
 c0053c4:	e3730001 	cmn	r3, #1
 c0053c8:	1a000022 	bne	c005458 <sudoku_recalcular_c+0x1b0>
			{
				case -1 :
					error = -1;
 c0053cc:	e3e03000 	mvn	r3, #0
 c0053d0:	e50b301c 	str	r3, [fp, #-28]	; 0xffffffe4
					//TODO error en celda?
					// Pintamos el valor indicando que hay error
					putError(buffer,x,y,pista);
 c0053d4:	e24b3030 	sub	r3, fp, #48	; 0x30
 c0053d8:	e1a00003 	mov	r0, r3
 c0053dc:	e51b1014 	ldr	r1, [fp, #-20]	; 0xffffffec
 c0053e0:	e51b2018 	ldr	r2, [fp, #-24]	; 0xffffffe8
 c0053e4:	e51b3020 	ldr	r3, [fp, #-32]	; 0xffffffe0
 c0053e8:	ebfffcb6 	bl	c0046c8 <putError>
					break;
 c0053ec:	ea000019 	b	c005458 <sudoku_recalcular_c+0x1b0>
				case FALSE :
					vacias++;
 c0053f0:	e51b3010 	ldr	r3, [fp, #-16]
 c0053f4:	e2833001 	add	r3, r3, #1
 c0053f8:	e50b3010 	str	r3, [fp, #-16]
					candidatos = celda_leer_candidatos(cuadricula[x][y]);
 c0053fc:	e51b3014 	ldr	r3, [fp, #-20]	; 0xffffffec
 c005400:	e1a03283 	lsl	r3, r3, #5
 c005404:	e51b2038 	ldr	r2, [fp, #-56]	; 0xffffffc8
 c005408:	e0822003 	add	r2, r2, r3
 c00540c:	e51b3018 	ldr	r3, [fp, #-24]	; 0xffffffe8
 c005410:	e1a03083 	lsl	r3, r3, #1
 c005414:	e0823003 	add	r3, r2, r3
 c005418:	e1d330b0 	ldrh	r3, [r3]
 c00541c:	e1a00003 	mov	r0, r3
 c005420:	ebffff83 	bl	c005234 <celda_leer_candidatos>
 c005424:	e1a03000 	mov	r3, r0
 c005428:	e50b3028 	str	r3, [fp, #-40]	; 0xffffffd8
					putCandidates(candidatos,x,y);
 c00542c:	e51b0028 	ldr	r0, [fp, #-40]	; 0xffffffd8
 c005430:	e51b1014 	ldr	r1, [fp, #-20]	; 0xffffffec
 c005434:	e51b2018 	ldr	r2, [fp, #-24]	; 0xffffffe8
 c005438:	ebfffd87 	bl	c004a5c <putCandidates>
					break;
 c00543c:	ea000005 	b	c005458 <sudoku_recalcular_c+0x1b0>
				case TRUE :
					// Pintamos el valor
					putData(buffer,x,y);
 c005440:	e24b3030 	sub	r3, fp, #48	; 0x30
 c005444:	e1a00003 	mov	r0, r3
 c005448:	e51b1014 	ldr	r1, [fp, #-20]	; 0xffffffec
 c00544c:	e51b2018 	ldr	r2, [fp, #-24]	; 0xffffffe8
 c005450:	ebfffc6d 	bl	c00460c <putData>
					break;
 c005454:	e1a00000 	nop			; (mov r0, r0)
	unsigned int tiempoTemp = timer2_leer();
	int error = 1;
//	char *valor;
	error = 1;
	for (x = 0; x < NUM_FILAS; x++) {
		for (y = 0; y < NUM_FILAS; y++) {
 c005458:	e51b3018 	ldr	r3, [fp, #-24]	; 0xffffffe8
 c00545c:	e2833001 	add	r3, r3, #1
 c005460:	e50b3018 	str	r3, [fp, #-24]	; 0xffffffe8
 c005464:	e51b3018 	ldr	r3, [fp, #-24]	; 0xffffffe8
 c005468:	e3530008 	cmp	r3, #8
 c00546c:	daffffa5 	ble	c005308 <sudoku_recalcular_c+0x60>
	int candidatos = 0;
	unsigned int tiempoTemp = timer2_leer();
	int error = 1;
//	char *valor;
	error = 1;
	for (x = 0; x < NUM_FILAS; x++) {
 c005470:	e51b3014 	ldr	r3, [fp, #-20]	; 0xffffffec
 c005474:	e2833001 	add	r3, r3, #1
 c005478:	e50b3014 	str	r3, [fp, #-20]	; 0xffffffec
 c00547c:	e51b3014 	ldr	r3, [fp, #-20]	; 0xffffffec
 c005480:	e3530008 	cmp	r3, #8
 c005484:	daffff9c 	ble	c0052fc <sudoku_recalcular_c+0x54>



		}
	}
	tiempoCalculo += (timer2_leer() - tiempoTemp);
 c005488:	eb000195 	bl	c005ae4 <timer2_leer>
 c00548c:	e1a03000 	mov	r3, r0
 c005490:	e1a02003 	mov	r2, r3
 c005494:	e51b302c 	ldr	r3, [fp, #-44]	; 0xffffffd4
 c005498:	e0632002 	rsb	r2, r3, r2
 c00549c:	e59f3044 	ldr	r3, [pc, #68]	; c0054e8 <sudoku_recalcular_c+0x240>
 c0054a0:	e5933000 	ldr	r3, [r3]
 c0054a4:	e0822003 	add	r2, r2, r3
 c0054a8:	e59f3038 	ldr	r3, [pc, #56]	; c0054e8 <sudoku_recalcular_c+0x240>
 c0054ac:	e5832000 	str	r2, [r3]
	if (vacias != 0)
 c0054b0:	e51b3010 	ldr	r3, [fp, #-16]
 c0054b4:	e3530000 	cmp	r3, #0
 c0054b8:	0a000001 	beq	c0054c4 <sudoku_recalcular_c+0x21c>
	{
		Lcd_Dma_Trans();
 c0054bc:	ebfff971 	bl	c003a88 <Lcd_Dma_Trans>
 c0054c0:	ea000001 	b	c0054cc <sudoku_recalcular_c+0x224>
	} else {
		Lcd_Clr();
 c0054c4:	ebfff321 	bl	c002150 <Lcd_Clr>
		Lcd_Active_Clr();
 c0054c8:	ebfff2d2 	bl	c002018 <Lcd_Active_Clr>
	}
	return error * vacias;
 c0054cc:	e51b301c 	ldr	r3, [fp, #-28]	; 0xffffffe4
 c0054d0:	e51b2010 	ldr	r2, [fp, #-16]
 c0054d4:	e0030392 	mul	r3, r2, r3


}
 c0054d8:	e1a00003 	mov	r0, r3
 c0054dc:	e24bd00c 	sub	sp, fp, #12
 c0054e0:	e89d6800 	ldm	sp, {fp, sp, lr}
 c0054e4:	e12fff1e 	bx	lr
 c0054e8:	0c0075f0 	.word	0x0c0075f0

0c0054ec <sudoku9x9>:

////////////////////////////////////////////////////////////////////////////////
// Proceso principal del juego que recibe el tablero,
// y la seal de ready que indica que se han actualizado fila y columna
int sudoku9x9() {
 c0054ec:	e1a0c00d 	mov	ip, sp
 c0054f0:	e92dd800 	push	{fp, ip, lr, pc}
 c0054f4:	e24cb004 	sub	fp, ip, #4
 c0054f8:	e24ddf4a 	sub	sp, sp, #296	; 0x128

	int celdas_vacias = 0;
 c0054fc:	e3a03000 	mov	r3, #0
 c005500:	e50b3010 	str	r3, [fp, #-16]
	unsigned int tiempoInit = 0;
 c005504:	e3a03000 	mov	r3, #0
 c005508:	e50b3014 	str	r3, [fp, #-20]	; 0xffffffec
	CELDA cuadricula[NUM_FILAS][NUM_COLUMNAS] __attribute__((aligned(8)))=
 c00550c:	e24b2f4d 	sub	r2, fp, #308	; 0x134
 c005510:	e3a03e12 	mov	r3, #288	; 0x120
 c005514:	e1a00002 	mov	r0, r2
 c005518:	e3a01000 	mov	r1, #0
 c00551c:	e1a02003 	mov	r2, r3
 c005520:	eb00026b 	bl	c005ed4 <memset>
 c005524:	e59f32f4 	ldr	r3, [pc, #756]	; c005820 <sudoku9x9+0x334>
 c005528:	e3a02b26 	mov	r2, #38912	; 0x9800
 c00552c:	e24b100c 	sub	r1, fp, #12
 c005530:	e18120b3 	strh	r2, [r1, r3]
 c005534:	e59f32e8 	ldr	r3, [pc, #744]	; c005824 <sudoku9x9+0x338>
 c005538:	e3a02b1a 	mov	r2, #26624	; 0x6800
 c00553c:	e24b100c 	sub	r1, fp, #12
 c005540:	e18120b3 	strh	r2, [r1, r3]
 c005544:	e59f32dc 	ldr	r3, [pc, #732]	; c005828 <sudoku9x9+0x33c>
 c005548:	e3a02b1e 	mov	r2, #30720	; 0x7800
 c00554c:	e24b100c 	sub	r1, fp, #12
 c005550:	e18120b3 	strh	r2, [r1, r3]
 c005554:	e59f32d0 	ldr	r3, [pc, #720]	; c00582c <sudoku9x9+0x340>
 c005558:	e3a02b22 	mov	r2, #34816	; 0x8800
 c00555c:	e24b100c 	sub	r1, fp, #12
 c005560:	e18120b3 	strh	r2, [r1, r3]
 c005564:	e59f32c4 	ldr	r3, [pc, #708]	; c005830 <sudoku9x9+0x344>
 c005568:	e3a02b22 	mov	r2, #34816	; 0x8800
 c00556c:	e24b100c 	sub	r1, fp, #12
 c005570:	e18120b3 	strh	r2, [r1, r3]
 c005574:	e3a03b12 	mov	r3, #18432	; 0x4800
 c005578:	e24b2c01 	sub	r2, fp, #256	; 0x100
 c00557c:	e14230ba 	strh	r3, [r2, #-10]
 c005580:	e3a03b0e 	mov	r3, #14336	; 0x3800
 c005584:	e24b1c01 	sub	r1, fp, #256	; 0x100
 c005588:	e14130b8 	strh	r3, [r1, #-8]
 c00558c:	e3a03b06 	mov	r3, #6144	; 0x1800
 c005590:	e14b3fb4 	strh	r3, [fp, #-244]	; 0xffffff0c
 c005594:	e3a03b16 	mov	r3, #22528	; 0x5800
 c005598:	e14b3ebe 	strh	r3, [fp, #-238]	; 0xffffff12
 c00559c:	e3a03b06 	mov	r3, #6144	; 0x1800
 c0055a0:	e14b3cb8 	strh	r3, [fp, #-200]	; 0xffffff38
 c0055a4:	e3a03b1e 	mov	r3, #30720	; 0x7800
 c0055a8:	e14b3cb6 	strh	r3, [fp, #-198]	; 0xffffff3a
 c0055ac:	e3a03b1a 	mov	r3, #26624	; 0x6800
 c0055b0:	e14b3cb4 	strh	r3, [fp, #-196]	; 0xffffff3c
 c0055b4:	e3a03b0a 	mov	r3, #10240	; 0x2800
 c0055b8:	e14b3bb4 	strh	r3, [fp, #-180]	; 0xffffff4c
 c0055bc:	e3a03b26 	mov	r3, #38912	; 0x9800
 c0055c0:	e14b3abc 	strh	r3, [fp, #-172]	; 0xffffff54
 c0055c4:	e3a03b0e 	mov	r3, #14336	; 0x3800
 c0055c8:	e14b3aba 	strh	r3, [fp, #-170]	; 0xffffff56
 c0055cc:	e3a03b16 	mov	r3, #22528	; 0x5800
 c0055d0:	e14b3ab4 	strh	r3, [fp, #-164]	; 0xffffff5c
 c0055d4:	e3a03b1e 	mov	r3, #30720	; 0x7800
 c0055d8:	e14b39b4 	strh	r3, [fp, #-148]	; 0xffffff6c
 c0055dc:	e3a03b22 	mov	r3, #34816	; 0x8800
 c0055e0:	e14b39b0 	strh	r3, [fp, #-144]	; 0xffffff70
 c0055e4:	e3a03b1e 	mov	r3, #30720	; 0x7800
 c0055e8:	e14b37b0 	strh	r3, [fp, #-112]	; 0xffffff90
 c0055ec:	e3a03b0e 	mov	r3, #14336	; 0x3800
 c0055f0:	e14b36bc 	strh	r3, [fp, #-108]	; 0xffffff94
 c0055f4:	e3a03b0a 	mov	r3, #10240	; 0x2800
 c0055f8:	e14b36ba 	strh	r3, [fp, #-106]	; 0xffffff96
 c0055fc:	e3a03b12 	mov	r3, #18432	; 0x4800
 c005600:	e14b36b6 	strh	r3, [fp, #-102]	; 0xffffff9a
 c005604:	e3a03b0e 	mov	r3, #14336	; 0x3800
 c005608:	e14b35b4 	strh	r3, [fp, #-84]	; 0xffffffac
 c00560c:	e3a03b22 	mov	r3, #34816	; 0x8800
 c005610:	e14b35b2 	strh	r3, [fp, #-82]	; 0xffffffae
 c005614:	e3a03b0a 	mov	r3, #10240	; 0x2800
 c005618:	e14b35b0 	strh	r3, [fp, #-80]	; 0xffffffb0
 c00561c:	e3a03b06 	mov	r3, #6144	; 0x1800
 c005620:	e14b34be 	strh	r3, [fp, #-78]	; 0xffffffb2
 c005624:	e3a03b16 	mov	r3, #22528	; 0x5800
 c005628:	e14b34ba 	strh	r3, [fp, #-74]	; 0xffffffb6
 c00562c:	e3a03b1a 	mov	r3, #26624	; 0x6800
 c005630:	e14b34b8 	strh	r3, [fp, #-72]	; 0xffffffb8
 c005634:	e3a03b12 	mov	r3, #18432	; 0x4800
 c005638:	e14b33b2 	strh	r3, [fp, #-50]	; 0xffffffce
 c00563c:	e3a03b06 	mov	r3, #6144	; 0x1800
 c005640:	e14b33b0 	strh	r3, [fp, #-48]	; 0xffffffd0
 c005644:	e3a03b26 	mov	r3, #38912	; 0x9800
 c005648:	e14b32ba 	strh	r3, [fp, #-42]	; 0xffffffd6
 c00564c:	e3a03b16 	mov	r3, #22528	; 0x5800
 c005650:	e14b32b8 	strh	r3, [fp, #-40]	; 0xffffffd8
 c005654:	e3a03b0a 	mov	r3, #10240	; 0x2800
 c005658:	e14b32b6 	strh	r3, [fp, #-38]	; 0xffffffda
//			0x3800,0x8800,0x2800,0x1800,0x4800,0x5800,0x6800,0x9800,0x7800,0,0,0,0,0,0,0,
//			0x6800,0x4800,0x1800,0x8800,0x7800,0x9800,0x5800,0x2800,0x3800,0,0,0,0,0,0,0
//	};

	// Iniciamos contadores
	tiempoInit = timer2_leer();
 c00565c:	eb000120 	bl	c005ae4 <timer2_leer>
 c005660:	e1a03000 	mov	r3, r0
 c005664:	e50b3014 	str	r3, [fp, #-20]	; 0xffffffec
	tiempoCalculo = 0;
 c005668:	e59f31c4 	ldr	r3, [pc, #452]	; c005834 <sudoku9x9+0x348>
 c00566c:	e3a02000 	mov	r2, #0
 c005670:	e5832000 	str	r2, [r3]
	tiempoTotal = 0;
 c005674:	e59f31bc 	ldr	r3, [pc, #444]	; c005838 <sudoku9x9+0x34c>
 c005678:	e3a02000 	mov	r2, #0
 c00567c:	e5832000 	str	r2, [r3]
	// Recalculamos el tablero por primera vez
	celdas_vacias = sudoku_recalcular_c(cuadricula);
 c005680:	e24b3f4d 	sub	r3, fp, #308	; 0x134
 c005684:	e1a00003 	mov	r0, r3
 c005688:	ebffff06 	bl	c0052a8 <sudoku_recalcular_c>
 c00568c:	e50b0010 	str	r0, [fp, #-16]
	tiempoTotal = timer2_leer() - tiempoInit;
 c005690:	eb000113 	bl	c005ae4 <timer2_leer>
 c005694:	e1a03000 	mov	r3, r0
 c005698:	e1a02003 	mov	r2, r3
 c00569c:	e51b3014 	ldr	r3, [fp, #-20]	; 0xffffffec
 c0056a0:	e0632002 	rsb	r2, r3, r2
 c0056a4:	e59f318c 	ldr	r3, [pc, #396]	; c005838 <sudoku9x9+0x34c>
 c0056a8:	e5832000 	str	r2, [r3]
	mostrarTiempo();
 c0056ac:	ebfffa8d 	bl	c0040e8 <mostrarTiempo>

	// Mientras no haya acabado el juego.
	while (state < 5)
 c0056b0:	ea00004e 	b	c0057f0 <sudoku9x9+0x304>
	{
		// Entramos si se ha introducido un cambio
		if (state == 4)
 c0056b4:	e59f3180 	ldr	r3, [pc, #384]	; c00583c <sudoku9x9+0x350>
 c0056b8:	e5933000 	ldr	r3, [r3]
 c0056bc:	e3530004 	cmp	r3, #4
 c0056c0:	1a00004a 	bne	c0057f0 <sudoku9x9+0x304>
		{
			if(es_pista(cuadricula[fila - 1][columna - 1]) == 0) {
 c0056c4:	e59f3174 	ldr	r3, [pc, #372]	; c005840 <sudoku9x9+0x354>
 c0056c8:	e5933000 	ldr	r3, [r3]
 c0056cc:	e2432001 	sub	r2, r3, #1
 c0056d0:	e59f316c 	ldr	r3, [pc, #364]	; c005844 <sudoku9x9+0x358>
 c0056d4:	e5933000 	ldr	r3, [r3]
 c0056d8:	e2433001 	sub	r3, r3, #1
 c0056dc:	e1a02202 	lsl	r2, r2, #4
 c0056e0:	e0822003 	add	r2, r2, r3
 c0056e4:	e59f3134 	ldr	r3, [pc, #308]	; c005820 <sudoku9x9+0x334>
 c0056e8:	e1a02082 	lsl	r2, r2, #1
 c0056ec:	e24b100c 	sub	r1, fp, #12
 c0056f0:	e0812002 	add	r2, r1, r2
 c0056f4:	e0823003 	add	r3, r2, r3
 c0056f8:	e1d330b0 	ldrh	r3, [r3]
 c0056fc:	e1a00003 	mov	r0, r3
 c005700:	ebfffeda 	bl	c005270 <es_pista>
 c005704:	e1a03000 	mov	r3, r0
 c005708:	e3530000 	cmp	r3, #0
 c00570c:	1a000015 	bne	c005768 <sudoku9x9+0x27c>
				celda_poner_valor(&cuadricula[fila - 1][columna - 1], valor);
 c005710:	e24b2f4d 	sub	r2, fp, #308	; 0x134
 c005714:	e59f3124 	ldr	r3, [pc, #292]	; c005840 <sudoku9x9+0x354>
 c005718:	e5933000 	ldr	r3, [r3]
 c00571c:	e2433001 	sub	r3, r3, #1
 c005720:	e1a01203 	lsl	r1, r3, #4
 c005724:	e59f3118 	ldr	r3, [pc, #280]	; c005844 <sudoku9x9+0x358>
 c005728:	e5933000 	ldr	r3, [r3]
 c00572c:	e0813003 	add	r3, r1, r3
 c005730:	e2433001 	sub	r3, r3, #1
 c005734:	e1a03083 	lsl	r3, r3, #1
 c005738:	e0822003 	add	r2, r2, r3
 c00573c:	e59f3104 	ldr	r3, [pc, #260]	; c005848 <sudoku9x9+0x35c>
 c005740:	e5933000 	ldr	r3, [r3]
 c005744:	e20330ff 	and	r3, r3, #255	; 0xff
 c005748:	e1a00002 	mov	r0, r2
 c00574c:	e1a01003 	mov	r1, r3
 c005750:	ebfffe8b 	bl	c005184 <celda_poner_valor>
				tablero();
 c005754:	ebfffac2 	bl	c004264 <tablero>
				celdas_vacias = sudoku_recalcular_c(cuadricula);
 c005758:	e24b3f4d 	sub	r3, fp, #308	; 0x134
 c00575c:	e1a00003 	mov	r0, r3
 c005760:	ebfffed0 	bl	c0052a8 <sudoku_recalcular_c>
 c005764:	e50b0010 	str	r0, [fp, #-16]
			}

			fila = 0;
 c005768:	e59f30d0 	ldr	r3, [pc, #208]	; c005840 <sudoku9x9+0x354>
 c00576c:	e3a02000 	mov	r2, #0
 c005770:	e5832000 	str	r2, [r3]
			columna = 0;
 c005774:	e59f30c8 	ldr	r3, [pc, #200]	; c005844 <sudoku9x9+0x358>
 c005778:	e3a02000 	mov	r2, #0
 c00577c:	e5832000 	str	r2, [r3]
			valor = 1;
 c005780:	e59f30c0 	ldr	r3, [pc, #192]	; c005848 <sudoku9x9+0x35c>
 c005784:	e3a02001 	mov	r2, #1
 c005788:	e5832000 	str	r2, [r3]


			//TODO mirar si cambiar
			tiempoTotal = timer2_leer() - tiempoInit;
 c00578c:	eb0000d4 	bl	c005ae4 <timer2_leer>
 c005790:	e1a03000 	mov	r3, r0
 c005794:	e1a02003 	mov	r2, r3
 c005798:	e51b3014 	ldr	r3, [fp, #-20]	; 0xffffffec
 c00579c:	e0632002 	rsb	r2, r3, r2
 c0057a0:	e59f3090 	ldr	r3, [pc, #144]	; c005838 <sudoku9x9+0x34c>
 c0057a4:	e5832000 	str	r2, [r3]
			mostrarTiempo();
 c0057a8:	ebfffa4e 	bl	c0040e8 <mostrarTiempo>
			state = 1;
 c0057ac:	e59f3088 	ldr	r3, [pc, #136]	; c00583c <sudoku9x9+0x350>
 c0057b0:	e3a02001 	mov	r2, #1
 c0057b4:	e5832000 	str	r2, [r3]
			if(celdas_vacias == 0) {
 c0057b8:	e51b3010 	ldr	r3, [fp, #-16]
 c0057bc:	e3530000 	cmp	r3, #0
 c0057c0:	1a000005 	bne	c0057dc <sudoku9x9+0x2f0>
				D8Led_symbol(0x000a);
 c0057c4:	e3a0000a 	mov	r0, #10
 c0057c8:	ebffed2a 	bl	c000c78 <D8Led_symbol>
				state = 5;
 c0057cc:	e59f3068 	ldr	r3, [pc, #104]	; c00583c <sudoku9x9+0x350>
 c0057d0:	e3a02005 	mov	r2, #5
 c0057d4:	e5832000 	str	r2, [r3]
 c0057d8:	ea000004 	b	c0057f0 <sudoku9x9+0x304>
			} else {
				D8Led_symbol(0x000f);
 c0057dc:	e3a0000f 	mov	r0, #15
 c0057e0:	ebffed24 	bl	c000c78 <D8Led_symbol>
				state = 1;
 c0057e4:	e59f3050 	ldr	r3, [pc, #80]	; c00583c <sudoku9x9+0x350>
 c0057e8:	e3a02001 	mov	r2, #1
 c0057ec:	e5832000 	str	r2, [r3]
	celdas_vacias = sudoku_recalcular_c(cuadricula);
	tiempoTotal = timer2_leer() - tiempoInit;
	mostrarTiempo();

	// Mientras no haya acabado el juego.
	while (state < 5)
 c0057f0:	e59f3044 	ldr	r3, [pc, #68]	; c00583c <sudoku9x9+0x350>
 c0057f4:	e5933000 	ldr	r3, [r3]
 c0057f8:	e3530004 	cmp	r3, #4
 c0057fc:	daffffac 	ble	c0056b4 <sudoku9x9+0x1c8>

		}
	}

	// Juego acabado.
	state = 0;
 c005800:	e59f3034 	ldr	r3, [pc, #52]	; c00583c <sudoku9x9+0x350>
 c005804:	e3a02000 	mov	r2, #0
 c005808:	e5832000 	str	r2, [r3]
	return celdas_vacias;
 c00580c:	e51b3010 	ldr	r3, [fp, #-16]


}
 c005810:	e1a00003 	mov	r0, r3
 c005814:	e24bd00c 	sub	sp, fp, #12
 c005818:	e89d6800 	ldm	sp, {fp, sp, lr}
 c00581c:	e12fff1e 	bx	lr
 c005820:	fffffed8 	.word	0xfffffed8
 c005824:	fffffeda 	.word	0xfffffeda
 c005828:	fffffee4 	.word	0xfffffee4
 c00582c:	fffffee8 	.word	0xfffffee8
 c005830:	fffffef8 	.word	0xfffffef8
 c005834:	0c0075f0 	.word	0x0c0075f0
 c005838:	0c0075f4 	.word	0x0c0075f4
 c00583c:	0c0075bc 	.word	0x0c0075bc
 c005840:	0c0075c0 	.word	0x0c0075c0
 c005844:	0c0075c4 	.word	0x0c0075c4
 c005848:	0c006220 	.word	0x0c006220

0c00584c <timer_ISR>:
void timer_ISR(void) __attribute__((interrupt("IRQ")));
void timer_init(void);

/*--- codigo de las funciones ---*/
void timer_ISR(void)
{
 c00584c:	e52dc004 	push	{ip}		; (str ip, [sp, #-4]!)
 c005850:	e1a0c00d 	mov	ip, sp
 c005854:	e92dd80c 	push	{r2, r3, fp, ip, lr, pc}
 c005858:	e24cb004 	sub	fp, ip, #4
	switch_leds = 1;
 c00585c:	e59f3028 	ldr	r3, [pc, #40]	; c00588c <timer_ISR+0x40>
 c005860:	e3a02001 	mov	r2, #1
 c005864:	e5832000 	str	r2, [r3]

	/* borrar bit en I_ISPC para desactivar la solicitud de interrupcin*/
	rI_ISPC |= BIT_TIMER0; // BIT_TIMER0 est definido en 44b.h y pone un uno en el bit 13 que correponde al Timer0
 c005868:	e59f3020 	ldr	r3, [pc, #32]	; c005890 <timer_ISR+0x44>
 c00586c:	e59f201c 	ldr	r2, [pc, #28]	; c005890 <timer_ISR+0x44>
 c005870:	e5922000 	ldr	r2, [r2]
 c005874:	e3822a02 	orr	r2, r2, #8192	; 0x2000
 c005878:	e5832000 	str	r2, [r3]
}
 c00587c:	e24bd014 	sub	sp, fp, #20
 c005880:	e89d680c 	ldm	sp, {r2, r3, fp, sp, lr}
 c005884:	e49dc004 	pop	{ip}		; (ldr ip, [sp], #4)
 c005888:	e25ef004 	subs	pc, lr, #4
 c00588c:	0c0075f8 	.word	0x0c0075f8
 c005890:	01e00024 	.word	0x01e00024

0c005894 <timer_init>:

void timer_init(void)
{
 c005894:	e1a0c00d 	mov	ip, sp
 c005898:	e92dd800 	push	{fp, ip, lr, pc}
 c00589c:	e24cb004 	sub	fp, ip, #4
	/* Configuraion controlador de interrupciones */
	rINTMOD = 0x0; // Configura las linas como de tipo IRQ
 c0058a0:	e59f307c 	ldr	r3, [pc, #124]	; c005924 <timer_init+0x90>
 c0058a4:	e3a02000 	mov	r2, #0
 c0058a8:	e5832000 	str	r2, [r3]
	rINTCON = 0x1; // Habilita int. vectorizadas y la linea IRQ (FIQ no)
 c0058ac:	e3a0361e 	mov	r3, #31457280	; 0x1e00000
 c0058b0:	e3a02001 	mov	r2, #1
 c0058b4:	e5832000 	str	r2, [r3]
	rINTMSK = ~(BIT_GLOBAL | BIT_TIMER0); // Emascara todas las lineas excepto Timer0 y el bit global (bits 26 y 13, BIT_GLOBAL y BIT_TIMER0 estn definidos en 44b.h)
 c0058b8:	e59f3068 	ldr	r3, [pc, #104]	; c005928 <timer_init+0x94>
 c0058bc:	e59f2068 	ldr	r2, [pc, #104]	; c00592c <timer_init+0x98>
 c0058c0:	e5832000 	str	r2, [r3]

	/* Establece la rutina de servicio para TIMER0 */
	pISR_TIMER0 = (unsigned) timer_ISR;
 c0058c4:	e59f3064 	ldr	r3, [pc, #100]	; c005930 <timer_init+0x9c>
 c0058c8:	e59f2064 	ldr	r2, [pc, #100]	; c005934 <timer_init+0xa0>
 c0058cc:	e5832000 	str	r2, [r3]

	/* Configura el Timer0 */
	rTCFG0 = 00; // ajusta el preescalado
 c0058d0:	e59f3060 	ldr	r3, [pc, #96]	; c005938 <timer_init+0xa4>
 c0058d4:	e3a02000 	mov	r2, #0
 c0058d8:	e5832000 	str	r2, [r3]
	rTCFG1 = 0x0; // selecciona la entrada del mux que proporciona el reloj. La 00 corresponde a un divisor de 1/2.
 c0058dc:	e59f3058 	ldr	r3, [pc, #88]	; c00593c <timer_init+0xa8>
 c0058e0:	e3a02000 	mov	r2, #0
 c0058e4:	e5832000 	str	r2, [r3]
	rTCNTB0 = 65535;// valor inicial de cuenta (la cuenta es descendente)
 c0058e8:	e59f3050 	ldr	r3, [pc, #80]	; c005940 <timer_init+0xac>
 c0058ec:	e59f2050 	ldr	r2, [pc, #80]	; c005944 <timer_init+0xb0>
 c0058f0:	e5832000 	str	r2, [r3]
	rTCMPB0 = 0;// valor de comparacin
 c0058f4:	e59f304c 	ldr	r3, [pc, #76]	; c005948 <timer_init+0xb4>
 c0058f8:	e3a02000 	mov	r2, #0
 c0058fc:	e5832000 	str	r2, [r3]
	/* establecer update=manual (bit 1) + inverter=on (? ser inverter off un cero en el bit 2 pone el inverter en off)*/
	rTCON = 0x2;
 c005900:	e59f3044 	ldr	r3, [pc, #68]	; c00594c <timer_init+0xb8>
 c005904:	e3a02002 	mov	r2, #2
 c005908:	e5832000 	str	r2, [r3]
	/* iniciar timer (bit 0) con auto-reload (bit 3)*/
	rTCON = 0x09;
 c00590c:	e59f3038 	ldr	r3, [pc, #56]	; c00594c <timer_init+0xb8>
 c005910:	e3a02009 	mov	r2, #9
 c005914:	e5832000 	str	r2, [r3]
}
 c005918:	e24bd00c 	sub	sp, fp, #12
 c00591c:	e89d6800 	ldm	sp, {fp, sp, lr}
 c005920:	e12fff1e 	bx	lr
 c005924:	01e00008 	.word	0x01e00008
 c005928:	01e0000c 	.word	0x01e0000c
 c00592c:	fbffdfff 	.word	0xfbffdfff
 c005930:	0c7fff54 	.word	0x0c7fff54
 c005934:	0c00584c 	.word	0x0c00584c
 c005938:	01d50000 	.word	0x01d50000
 c00593c:	01d50004 	.word	0x01d50004
 c005940:	01d5000c 	.word	0x01d5000c
 c005944:	0000ffff 	.word	0x0000ffff
 c005948:	01d50010 	.word	0x01d50010
 c00594c:	01d50008 	.word	0x01d50008

0c005950 <timer2_ISR>:
extern int esperaFinalizada(void);


/*--- codigo de las funciones ---*/
void timer2_ISR(void)
{
 c005950:	e52dc004 	push	{ip}		; (str ip, [sp, #-4]!)
 c005954:	e1a0c00d 	mov	ip, sp
 c005958:	e92dd80f 	push	{r0, r1, r2, r3, fp, ip, lr, pc}
 c00595c:	e24cb004 	sub	fp, ip, #4
	timer2_num_int++;
 c005960:	e59f305c 	ldr	r3, [pc, #92]	; c0059c4 <timer2_ISR+0x74>
 c005964:	e5933000 	ldr	r3, [r3]
 c005968:	e2832001 	add	r2, r3, #1
 c00596c:	e59f3050 	ldr	r3, [pc, #80]	; c0059c4 <timer2_ISR+0x74>
 c005970:	e5832000 	str	r2, [r3]
	if(espera_boton && esperaFinalizada()) {
 c005974:	e59f304c 	ldr	r3, [pc, #76]	; c0059c8 <timer2_ISR+0x78>
 c005978:	e5933000 	ldr	r3, [r3]
 c00597c:	e3530000 	cmp	r3, #0
 c005980:	0a000006 	beq	c0059a0 <timer2_ISR+0x50>
 c005984:	ebffefd4 	bl	c0018dc <esperaFinalizada>
 c005988:	e1a03000 	mov	r3, r0
 c00598c:	e3530000 	cmp	r3, #0
 c005990:	0a000002 	beq	c0059a0 <timer2_ISR+0x50>
		espera_boton = 0;
 c005994:	e59f302c 	ldr	r3, [pc, #44]	; c0059c8 <timer2_ISR+0x78>
 c005998:	e3a02000 	mov	r2, #0
 c00599c:	e5832000 	str	r2, [r3]
	}
	/* borrar bit en I_ISPC para desactivar la solicitud de interrupcin*/
	rI_ISPC |= BIT_TIMER2; // BIT_TIMER2 est definido en 44b.h y pone un uno en el bit 11 que correponde al Timer2
 c0059a0:	e59f3024 	ldr	r3, [pc, #36]	; c0059cc <timer2_ISR+0x7c>
 c0059a4:	e59f2020 	ldr	r2, [pc, #32]	; c0059cc <timer2_ISR+0x7c>
 c0059a8:	e5922000 	ldr	r2, [r2]
 c0059ac:	e3822b02 	orr	r2, r2, #2048	; 0x800
 c0059b0:	e5832000 	str	r2, [r3]
}
 c0059b4:	e24bd01c 	sub	sp, fp, #28
 c0059b8:	e89d680f 	ldm	sp, {r0, r1, r2, r3, fp, sp, lr}
 c0059bc:	e49dc004 	pop	{ip}		; (ldr ip, [sp], #4)
 c0059c0:	e25ef004 	subs	pc, lr, #4
 c0059c4:	0c0075fc 	.word	0x0c0075fc
 c0059c8:	0c007600 	.word	0x0c007600
 c0059cc:	01e00024 	.word	0x01e00024

0c0059d0 <timer2_inicializar>:

void timer2_inicializar(void)
{
 c0059d0:	e1a0c00d 	mov	ip, sp
 c0059d4:	e92dd800 	push	{fp, ip, lr, pc}
 c0059d8:	e24cb004 	sub	fp, ip, #4
	/* Configuracion controlador de interrupciones */
    rINTMOD = 0x0; // Configura las linas como de tipo IRQ
 c0059dc:	e59f3098 	ldr	r3, [pc, #152]	; c005a7c <timer2_inicializar+0xac>
 c0059e0:	e3a02000 	mov	r2, #0
 c0059e4:	e5832000 	str	r2, [r3]
    rINTCON = 0x1; // Habilita int. vectorizadas y la linea IRQ (FIQ no)
 c0059e8:	e3a0361e 	mov	r3, #31457280	; 0x1e00000
 c0059ec:	e3a02001 	mov	r2, #1
 c0059f0:	e5832000 	str	r2, [r3]
	rINTMSK = rINTMSK & (0xFFFFF7FF); // Emascara todas las lineas excepto Timer2 y el bit global (bits 26 y 11, BIT_GLOBAL y BIT_TIMER2 estn definidos en 44b.h)
 c0059f4:	e59f3084 	ldr	r3, [pc, #132]	; c005a80 <timer2_inicializar+0xb0>
 c0059f8:	e59f2080 	ldr	r2, [pc, #128]	; c005a80 <timer2_inicializar+0xb0>
 c0059fc:	e5922000 	ldr	r2, [r2]
 c005a00:	e3c22b02 	bic	r2, r2, #2048	; 0x800
 c005a04:	e5832000 	str	r2, [r3]
	/* Establece la rutina de servicio para TIMER2 */
	pISR_TIMER2 = (unsigned) timer2_ISR;
 c005a08:	e59f3074 	ldr	r3, [pc, #116]	; c005a84 <timer2_inicializar+0xb4>
 c005a0c:	e59f2074 	ldr	r2, [pc, #116]	; c005a88 <timer2_inicializar+0xb8>
 c005a10:	e5832000 	str	r2, [r3]

	/* Configura el Timer2 */
	rTCFG0 = rTCFG0 | 0x0000; // ajusta el preescalado
 c005a14:	e59f3070 	ldr	r3, [pc, #112]	; c005a8c <timer2_inicializar+0xbc>
 c005a18:	e59f206c 	ldr	r2, [pc, #108]	; c005a8c <timer2_inicializar+0xbc>
 c005a1c:	e5922000 	ldr	r2, [r2]
 c005a20:	e5832000 	str	r2, [r3]
	rTCFG1 = 0x0; // selecciona la entrada del mux que proporciona el reloj. La 00 corresponde a un divisor de 1/2.
 c005a24:	e59f3064 	ldr	r3, [pc, #100]	; c005a90 <timer2_inicializar+0xc0>
 c005a28:	e3a02000 	mov	r2, #0
 c005a2c:	e5832000 	str	r2, [r3]
	rTCNTB2 = 65535;// valor inicial de cuenta (la cuenta es descendente)
 c005a30:	e59f305c 	ldr	r3, [pc, #92]	; c005a94 <timer2_inicializar+0xc4>
 c005a34:	e59f205c 	ldr	r2, [pc, #92]	; c005a98 <timer2_inicializar+0xc8>
 c005a38:	e5832000 	str	r2, [r3]
	rTCMPB2 = 0;// valor de comparacin
 c005a3c:	e59f3058 	ldr	r3, [pc, #88]	; c005a9c <timer2_inicializar+0xcc>
 c005a40:	e3a02000 	mov	r2, #0
 c005a44:	e5832000 	str	r2, [r3]
	/* establecer update=manual (bit 1) + inverter=on (? ser inverter off un cero en el bit 2 pone el inverter en off)*/
	rTCON |= 0x2000;
 c005a48:	e59f3050 	ldr	r3, [pc, #80]	; c005aa0 <timer2_inicializar+0xd0>
 c005a4c:	e59f204c 	ldr	r2, [pc, #76]	; c005aa0 <timer2_inicializar+0xd0>
 c005a50:	e5922000 	ldr	r2, [r2]
 c005a54:	e3822a02 	orr	r2, r2, #8192	; 0x2000
 c005a58:	e5832000 	str	r2, [r3]
	/* iniciar timer (bit 0) con auto-reload (bit 3)*/
	rTCON |= 0x8000; //auto-reload, inverter, manual update
 c005a5c:	e59f303c 	ldr	r3, [pc, #60]	; c005aa0 <timer2_inicializar+0xd0>
 c005a60:	e59f2038 	ldr	r2, [pc, #56]	; c005aa0 <timer2_inicializar+0xd0>
 c005a64:	e5922000 	ldr	r2, [r2]
 c005a68:	e3822902 	orr	r2, r2, #32768	; 0x8000
 c005a6c:	e5832000 	str	r2, [r3]
}
 c005a70:	e24bd00c 	sub	sp, fp, #12
 c005a74:	e89d6800 	ldm	sp, {fp, sp, lr}
 c005a78:	e12fff1e 	bx	lr
 c005a7c:	01e00008 	.word	0x01e00008
 c005a80:	01e0000c 	.word	0x01e0000c
 c005a84:	0c7fff4c 	.word	0x0c7fff4c
 c005a88:	0c005950 	.word	0x0c005950
 c005a8c:	01d50000 	.word	0x01d50000
 c005a90:	01d50004 	.word	0x01d50004
 c005a94:	01d50024 	.word	0x01d50024
 c005a98:	0000ffff 	.word	0x0000ffff
 c005a9c:	01d50028 	.word	0x01d50028
 c005aa0:	01d50008 	.word	0x01d50008

0c005aa4 <timer2_empezar>:

/*Esta funcin reinicia la cuenta de tiempo (contador y variable) y comienza a medir*/
void timer2_empezar()
{
 c005aa4:	e1a0c00d 	mov	ip, sp
 c005aa8:	e92dd800 	push	{fp, ip, lr, pc}
 c005aac:	e24cb004 	sub	fp, ip, #4
	timer2_num_int = 0;
 c005ab0:	e59f3024 	ldr	r3, [pc, #36]	; c005adc <timer2_empezar+0x38>
 c005ab4:	e3a02000 	mov	r2, #0
 c005ab8:	e5832000 	str	r2, [r3]
	//rTCNTB2 = 65535; no hace falta (auto-reload)
	rTCON ^= 0x3000; //descativamos manual update y activamos start
 c005abc:	e59f301c 	ldr	r3, [pc, #28]	; c005ae0 <timer2_empezar+0x3c>
 c005ac0:	e59f2018 	ldr	r2, [pc, #24]	; c005ae0 <timer2_empezar+0x3c>
 c005ac4:	e5922000 	ldr	r2, [r2]
 c005ac8:	e2222a03 	eor	r2, r2, #12288	; 0x3000
 c005acc:	e5832000 	str	r2, [r3]
	//rTCON = rTCON | 0x1000; //activamos start
}
 c005ad0:	e24bd00c 	sub	sp, fp, #12
 c005ad4:	e89d6800 	ldm	sp, {fp, sp, lr}
 c005ad8:	e12fff1e 	bx	lr
 c005adc:	0c0075fc 	.word	0x0c0075fc
 c005ae0:	01d50008 	.word	0x01d50008

0c005ae4 <timer2_leer>:

/*Esta funcin lee la cuenta actual del temporizador y el nmero de interrupciones
  generadas y devuelve el tiempo transcurrido en microsegundos*/
int timer2_leer()
{
 c005ae4:	e1a0c00d 	mov	ip, sp
 c005ae8:	e92dd800 	push	{fp, ip, lr, pc}
 c005aec:	e24cb004 	sub	fp, ip, #4
 c005af0:	e24dd010 	sub	sp, sp, #16
	unsigned int tiempo_actual,tiempo_total,parcial;
	// Vemos el tiempo transcurrido segn los ciclos completos
	tiempo_actual= ((unsigned int)timer2_num_int * 65535) / 33;
 c005af4:	e59f3064 	ldr	r3, [pc, #100]	; c005b60 <timer2_leer+0x7c>
 c005af8:	e5933000 	ldr	r3, [r3]
 c005afc:	e1a02003 	mov	r2, r3
 c005b00:	e1a03002 	mov	r3, r2
 c005b04:	e1a03803 	lsl	r3, r3, #16
 c005b08:	e0622003 	rsb	r2, r2, r3
 c005b0c:	e59f3050 	ldr	r3, [pc, #80]	; c005b64 <timer2_leer+0x80>
 c005b10:	e0831392 	umull	r1, r3, r2, r3
 c005b14:	e1a031a3 	lsr	r3, r3, #3
 c005b18:	e50b3010 	str	r3, [fp, #-16]
	// Vemos el tiempo transcurrido desde la ltima interrupcin,
	// lo sumamos al calculado anteriormente y devolvemos ese valor.
	parcial= (65535 - (unsigned int)rTCNTO2) / 33;
 c005b1c:	e59f3044 	ldr	r3, [pc, #68]	; c005b68 <timer2_leer+0x84>
 c005b20:	e5933000 	ldr	r3, [r3]
 c005b24:	e2633cff 	rsb	r3, r3, #65280	; 0xff00
 c005b28:	e28330ff 	add	r3, r3, #255	; 0xff
 c005b2c:	e59f2030 	ldr	r2, [pc, #48]	; c005b64 <timer2_leer+0x80>
 c005b30:	e0831392 	umull	r1, r3, r2, r3
 c005b34:	e1a031a3 	lsr	r3, r3, #3
 c005b38:	e50b3014 	str	r3, [fp, #-20]	; 0xffffffec
	tiempo_total= tiempo_actual + parcial;
 c005b3c:	e51b2010 	ldr	r2, [fp, #-16]
 c005b40:	e51b3014 	ldr	r3, [fp, #-20]	; 0xffffffec
 c005b44:	e0823003 	add	r3, r2, r3
 c005b48:	e50b3018 	str	r3, [fp, #-24]	; 0xffffffe8

	return tiempo_total;
 c005b4c:	e51b3018 	ldr	r3, [fp, #-24]	; 0xffffffe8

}
 c005b50:	e1a00003 	mov	r0, r3
 c005b54:	e24bd00c 	sub	sp, fp, #12
 c005b58:	e89d6800 	ldm	sp, {fp, sp, lr}
 c005b5c:	e12fff1e 	bx	lr
 c005b60:	0c0075fc 	.word	0x0c0075fc
 c005b64:	3e0f83e1 	.word	0x3e0f83e1
 c005b68:	01d5002c 	.word	0x01d5002c

0c005b6c <timer2_stop>:

void timer2_stop(void){
 c005b6c:	e1a0c00d 	mov	ip, sp
 c005b70:	e92dd800 	push	{fp, ip, lr, pc}
 c005b74:	e24cb004 	sub	fp, ip, #4
	rTCON &= 0xFFFEFFF;//ponemos el bit 12 a 0 y asi detenemos el timer
 c005b78:	e59f201c 	ldr	r2, [pc, #28]	; c005b9c <timer2_stop+0x30>
 c005b7c:	e59f3018 	ldr	r3, [pc, #24]	; c005b9c <timer2_stop+0x30>
 c005b80:	e5933000 	ldr	r3, [r3]
 c005b84:	e3c3320f 	bic	r3, r3, #-268435456	; 0xf0000000
 c005b88:	e3c33a01 	bic	r3, r3, #4096	; 0x1000
 c005b8c:	e5823000 	str	r3, [r2]
}
 c005b90:	e24bd00c 	sub	sp, fp, #12
 c005b94:	e89d6800 	ldm	sp, {fp, sp, lr}
 c005b98:	e12fff1e 	bx	lr
 c005b9c:	01d50008 	.word	0x01d50008

0c005ba0 <boton_pulsado>:

void boton_pulsado(void)
{
 c005ba0:	e1a0c00d 	mov	ip, sp
 c005ba4:	e92dd800 	push	{fp, ip, lr, pc}
 c005ba8:	e24cb004 	sub	fp, ip, #4
	espera_boton = 1;
 c005bac:	e59f3010 	ldr	r3, [pc, #16]	; c005bc4 <boton_pulsado+0x24>
 c005bb0:	e3a02001 	mov	r2, #1
 c005bb4:	e5832000 	str	r2, [r3]
}
 c005bb8:	e24bd00c 	sub	sp, fp, #12
 c005bbc:	e89d6800 	ldm	sp, {fp, sp, lr}
 c005bc0:	e12fff1e 	bx	lr
 c005bc4:	0c007600 	.word	0x0c007600

0c005bc8 <__aeabi_idiv>:
 c005bc8:	e3510000 	cmp	r1, #0
 c005bcc:	0a000043 	beq	c005ce0 <.divsi3_skip_div0_test+0x110>

0c005bd0 <.divsi3_skip_div0_test>:
 c005bd0:	e020c001 	eor	ip, r0, r1
 c005bd4:	42611000 	rsbmi	r1, r1, #0
 c005bd8:	e2512001 	subs	r2, r1, #1
 c005bdc:	0a000027 	beq	c005c80 <.divsi3_skip_div0_test+0xb0>
 c005be0:	e1b03000 	movs	r3, r0
 c005be4:	42603000 	rsbmi	r3, r0, #0
 c005be8:	e1530001 	cmp	r3, r1
 c005bec:	9a000026 	bls	c005c8c <.divsi3_skip_div0_test+0xbc>
 c005bf0:	e1110002 	tst	r1, r2
 c005bf4:	0a000028 	beq	c005c9c <.divsi3_skip_div0_test+0xcc>
 c005bf8:	e311020e 	tst	r1, #-536870912	; 0xe0000000
 c005bfc:	01a01181 	lsleq	r1, r1, #3
 c005c00:	03a02008 	moveq	r2, #8
 c005c04:	13a02001 	movne	r2, #1
 c005c08:	e3510201 	cmp	r1, #268435456	; 0x10000000
 c005c0c:	31510003 	cmpcc	r1, r3
 c005c10:	31a01201 	lslcc	r1, r1, #4
 c005c14:	31a02202 	lslcc	r2, r2, #4
 c005c18:	3afffffa 	bcc	c005c08 <.divsi3_skip_div0_test+0x38>
 c005c1c:	e3510102 	cmp	r1, #-2147483648	; 0x80000000
 c005c20:	31510003 	cmpcc	r1, r3
 c005c24:	31a01081 	lslcc	r1, r1, #1
 c005c28:	31a02082 	lslcc	r2, r2, #1
 c005c2c:	3afffffa 	bcc	c005c1c <.divsi3_skip_div0_test+0x4c>
 c005c30:	e3a00000 	mov	r0, #0
 c005c34:	e1530001 	cmp	r3, r1
 c005c38:	20433001 	subcs	r3, r3, r1
 c005c3c:	21800002 	orrcs	r0, r0, r2
 c005c40:	e15300a1 	cmp	r3, r1, lsr #1
 c005c44:	204330a1 	subcs	r3, r3, r1, lsr #1
 c005c48:	218000a2 	orrcs	r0, r0, r2, lsr #1
 c005c4c:	e1530121 	cmp	r3, r1, lsr #2
 c005c50:	20433121 	subcs	r3, r3, r1, lsr #2
 c005c54:	21800122 	orrcs	r0, r0, r2, lsr #2
 c005c58:	e15301a1 	cmp	r3, r1, lsr #3
 c005c5c:	204331a1 	subcs	r3, r3, r1, lsr #3
 c005c60:	218001a2 	orrcs	r0, r0, r2, lsr #3
 c005c64:	e3530000 	cmp	r3, #0
 c005c68:	11b02222 	lsrsne	r2, r2, #4
 c005c6c:	11a01221 	lsrne	r1, r1, #4
 c005c70:	1affffef 	bne	c005c34 <.divsi3_skip_div0_test+0x64>
 c005c74:	e35c0000 	cmp	ip, #0
 c005c78:	42600000 	rsbmi	r0, r0, #0
 c005c7c:	e12fff1e 	bx	lr
 c005c80:	e13c0000 	teq	ip, r0
 c005c84:	42600000 	rsbmi	r0, r0, #0
 c005c88:	e12fff1e 	bx	lr
 c005c8c:	33a00000 	movcc	r0, #0
 c005c90:	01a00fcc 	asreq	r0, ip, #31
 c005c94:	03800001 	orreq	r0, r0, #1
 c005c98:	e12fff1e 	bx	lr
 c005c9c:	e3510801 	cmp	r1, #65536	; 0x10000
 c005ca0:	21a01821 	lsrcs	r1, r1, #16
 c005ca4:	23a02010 	movcs	r2, #16
 c005ca8:	33a02000 	movcc	r2, #0
 c005cac:	e3510c01 	cmp	r1, #256	; 0x100
 c005cb0:	21a01421 	lsrcs	r1, r1, #8
 c005cb4:	22822008 	addcs	r2, r2, #8
 c005cb8:	e3510010 	cmp	r1, #16
 c005cbc:	21a01221 	lsrcs	r1, r1, #4
 c005cc0:	22822004 	addcs	r2, r2, #4
 c005cc4:	e3510004 	cmp	r1, #4
 c005cc8:	82822003 	addhi	r2, r2, #3
 c005ccc:	908220a1 	addls	r2, r2, r1, lsr #1
 c005cd0:	e35c0000 	cmp	ip, #0
 c005cd4:	e1a00233 	lsr	r0, r3, r2
 c005cd8:	42600000 	rsbmi	r0, r0, #0
 c005cdc:	e12fff1e 	bx	lr
 c005ce0:	e3500000 	cmp	r0, #0
 c005ce4:	c3e00102 	mvngt	r0, #-2147483648	; 0x80000000
 c005ce8:	b3a00102 	movlt	r0, #-2147483648	; 0x80000000
 c005cec:	ea000007 	b	c005d10 <__aeabi_idiv0>

0c005cf0 <__aeabi_idivmod>:
 c005cf0:	e3510000 	cmp	r1, #0
 c005cf4:	0afffff9 	beq	c005ce0 <.divsi3_skip_div0_test+0x110>
 c005cf8:	e92d4003 	push	{r0, r1, lr}
 c005cfc:	ebffffb3 	bl	c005bd0 <.divsi3_skip_div0_test>
 c005d00:	e8bd4006 	pop	{r1, r2, lr}
 c005d04:	e0030092 	mul	r3, r2, r0
 c005d08:	e0411003 	sub	r1, r1, r3
 c005d0c:	e12fff1e 	bx	lr

0c005d10 <__aeabi_idiv0>:
 c005d10:	e12fff1e 	bx	lr

0c005d14 <memcpy>:
 c005d14:	e3520003 	cmp	r2, #3
 c005d18:	e92d01f0 	push	{r4, r5, r6, r7, r8}
 c005d1c:	8a000009 	bhi	c005d48 <memcpy+0x34>
 c005d20:	e3520000 	cmp	r2, #0
 c005d24:	0a000005 	beq	c005d40 <memcpy+0x2c>
 c005d28:	e3a03000 	mov	r3, #0
 c005d2c:	e7d1c003 	ldrb	ip, [r1, r3]
 c005d30:	e7c0c003 	strb	ip, [r0, r3]
 c005d34:	e2833001 	add	r3, r3, #1
 c005d38:	e1530002 	cmp	r3, r2
 c005d3c:	1afffffa 	bne	c005d2c <memcpy+0x18>
 c005d40:	e8bd01f0 	pop	{r4, r5, r6, r7, r8}
 c005d44:	e12fff1e 	bx	lr
 c005d48:	e1a03001 	mov	r3, r1
 c005d4c:	e0802002 	add	r2, r0, r2
 c005d50:	e1a01000 	mov	r1, r0
 c005d54:	ea000002 	b	c005d64 <memcpy+0x50>
 c005d58:	e5dcc000 	ldrb	ip, [ip]
 c005d5c:	e4c1c001 	strb	ip, [r1], #1
 c005d60:	e2833001 	add	r3, r3, #1
 c005d64:	e3110003 	tst	r1, #3
 c005d68:	e1a0c003 	mov	ip, r3
 c005d6c:	1afffff9 	bne	c005d58 <memcpy+0x44>
 c005d70:	e2134003 	ands	r4, r3, #3
 c005d74:	0a000034 	beq	c005e4c <memcpy+0x138>
 c005d78:	e2645000 	rsb	r5, r4, #0
 c005d7c:	e2647004 	rsb	r7, r4, #4
 c005d80:	e7933005 	ldr	r3, [r3, r5]
 c005d84:	e1a04184 	lsl	r4, r4, #3
 c005d88:	e1a07187 	lsl	r7, r7, #3
 c005d8c:	ea000005 	b	c005da8 <memcpy+0x94>
 c005d90:	e28cc004 	add	ip, ip, #4
 c005d94:	e79c6005 	ldr	r6, [ip, r5]
 c005d98:	e1a08716 	lsl	r8, r6, r7
 c005d9c:	e1883433 	orr	r3, r8, r3, lsr r4
 c005da0:	e4813004 	str	r3, [r1], #4
 c005da4:	e1a03006 	mov	r3, r6
 c005da8:	e0616002 	rsb	r6, r1, r2
 c005dac:	e3560003 	cmp	r6, #3
 c005db0:	cafffff6 	bgt	c005d90 <memcpy+0x7c>
 c005db4:	ea000001 	b	c005dc0 <memcpy+0xac>
 c005db8:	e4dc3001 	ldrb	r3, [ip], #1
 c005dbc:	e4c13001 	strb	r3, [r1], #1
 c005dc0:	e1520001 	cmp	r2, r1
 c005dc4:	8afffffb 	bhi	c005db8 <memcpy+0xa4>
 c005dc8:	eaffffdc 	b	c005d40 <memcpy+0x2c>
 c005dcc:	e513c040 	ldr	ip, [r3, #-64]	; 0xffffffc0
 c005dd0:	e501c040 	str	ip, [r1, #-64]	; 0xffffffc0
 c005dd4:	e513c03c 	ldr	ip, [r3, #-60]	; 0xffffffc4
 c005dd8:	e501c03c 	str	ip, [r1, #-60]	; 0xffffffc4
 c005ddc:	e513c038 	ldr	ip, [r3, #-56]	; 0xffffffc8
 c005de0:	e501c038 	str	ip, [r1, #-56]	; 0xffffffc8
 c005de4:	e513c034 	ldr	ip, [r3, #-52]	; 0xffffffcc
 c005de8:	e501c034 	str	ip, [r1, #-52]	; 0xffffffcc
 c005dec:	e513c030 	ldr	ip, [r3, #-48]	; 0xffffffd0
 c005df0:	e501c030 	str	ip, [r1, #-48]	; 0xffffffd0
 c005df4:	e513c02c 	ldr	ip, [r3, #-44]	; 0xffffffd4
 c005df8:	e501c02c 	str	ip, [r1, #-44]	; 0xffffffd4
 c005dfc:	e513c028 	ldr	ip, [r3, #-40]	; 0xffffffd8
 c005e00:	e501c028 	str	ip, [r1, #-40]	; 0xffffffd8
 c005e04:	e513c024 	ldr	ip, [r3, #-36]	; 0xffffffdc
 c005e08:	e501c024 	str	ip, [r1, #-36]	; 0xffffffdc
 c005e0c:	e513c020 	ldr	ip, [r3, #-32]	; 0xffffffe0
 c005e10:	e501c020 	str	ip, [r1, #-32]	; 0xffffffe0
 c005e14:	e513c01c 	ldr	ip, [r3, #-28]	; 0xffffffe4
 c005e18:	e501c01c 	str	ip, [r1, #-28]	; 0xffffffe4
 c005e1c:	e513c018 	ldr	ip, [r3, #-24]	; 0xffffffe8
 c005e20:	e501c018 	str	ip, [r1, #-24]	; 0xffffffe8
 c005e24:	e513c014 	ldr	ip, [r3, #-20]	; 0xffffffec
 c005e28:	e501c014 	str	ip, [r1, #-20]	; 0xffffffec
 c005e2c:	e513c010 	ldr	ip, [r3, #-16]
 c005e30:	e501c010 	str	ip, [r1, #-16]
 c005e34:	e513c00c 	ldr	ip, [r3, #-12]
 c005e38:	e501c00c 	str	ip, [r1, #-12]
 c005e3c:	e513c008 	ldr	ip, [r3, #-8]
 c005e40:	e501c008 	str	ip, [r1, #-8]
 c005e44:	e513c004 	ldr	ip, [r3, #-4]
 c005e48:	e501c004 	str	ip, [r1, #-4]
 c005e4c:	e061c002 	rsb	ip, r1, r2
 c005e50:	e35c003f 	cmp	ip, #63	; 0x3f
 c005e54:	e1a04003 	mov	r4, r3
 c005e58:	e1a0c001 	mov	ip, r1
 c005e5c:	e2833040 	add	r3, r3, #64	; 0x40
 c005e60:	e2811040 	add	r1, r1, #64	; 0x40
 c005e64:	caffffd8 	bgt	c005dcc <memcpy+0xb8>
 c005e68:	e1a03004 	mov	r3, r4
 c005e6c:	ea000007 	b	c005e90 <memcpy+0x17c>
 c005e70:	e5131010 	ldr	r1, [r3, #-16]
 c005e74:	e50c1010 	str	r1, [ip, #-16]
 c005e78:	e513100c 	ldr	r1, [r3, #-12]
 c005e7c:	e50c100c 	str	r1, [ip, #-12]
 c005e80:	e5131008 	ldr	r1, [r3, #-8]
 c005e84:	e50c1008 	str	r1, [ip, #-8]
 c005e88:	e5131004 	ldr	r1, [r3, #-4]
 c005e8c:	e50c1004 	str	r1, [ip, #-4]
 c005e90:	e1a0100c 	mov	r1, ip
 c005e94:	e06cc002 	rsb	ip, ip, r2
 c005e98:	e35c000f 	cmp	ip, #15
 c005e9c:	e1a04003 	mov	r4, r3
 c005ea0:	e281c010 	add	ip, r1, #16
 c005ea4:	e2833010 	add	r3, r3, #16
 c005ea8:	cafffff0 	bgt	c005e70 <memcpy+0x15c>
 c005eac:	e1a03004 	mov	r3, r4
 c005eb0:	ea000002 	b	c005ec0 <memcpy+0x1ac>
 c005eb4:	e59cc000 	ldr	ip, [ip]
 c005eb8:	e481c004 	str	ip, [r1], #4
 c005ebc:	e2833004 	add	r3, r3, #4
 c005ec0:	e061c002 	rsb	ip, r1, r2
 c005ec4:	e35c0003 	cmp	ip, #3
 c005ec8:	e1a0c003 	mov	ip, r3
 c005ecc:	cafffff8 	bgt	c005eb4 <memcpy+0x1a0>
 c005ed0:	eaffffba 	b	c005dc0 <memcpy+0xac>

0c005ed4 <memset>:
 c005ed4:	e3520003 	cmp	r2, #3
 c005ed8:	e52d4004 	push	{r4}		; (str r4, [sp, #-4]!)
 c005edc:	e20110ff 	and	r1, r1, #255	; 0xff
 c005ee0:	8a000008 	bhi	c005f08 <memset+0x34>
 c005ee4:	e3520000 	cmp	r2, #0
 c005ee8:	0a000004 	beq	c005f00 <memset+0x2c>
 c005eec:	e1a03000 	mov	r3, r0
 c005ef0:	e0822000 	add	r2, r2, r0
 c005ef4:	e4c31001 	strb	r1, [r3], #1
 c005ef8:	e1530002 	cmp	r3, r2
 c005efc:	1afffffc 	bne	c005ef4 <memset+0x20>
 c005f00:	e49d4004 	pop	{r4}		; (ldr r4, [sp], #4)
 c005f04:	e12fff1e 	bx	lr
 c005f08:	e0802002 	add	r2, r0, r2
 c005f0c:	e1a0c000 	mov	ip, r0
 c005f10:	ea000000 	b	c005f18 <memset+0x44>
 c005f14:	e4cc1001 	strb	r1, [ip], #1
 c005f18:	e31c0003 	tst	ip, #3
 c005f1c:	1afffffc 	bne	c005f14 <memset+0x40>
 c005f20:	e0813401 	add	r3, r1, r1, lsl #8
 c005f24:	e0833803 	add	r3, r3, r3, lsl #16
 c005f28:	ea00000f 	b	c005f6c <memset+0x98>
 c005f2c:	e50c3040 	str	r3, [ip, #-64]	; 0xffffffc0
 c005f30:	e50c303c 	str	r3, [ip, #-60]	; 0xffffffc4
 c005f34:	e50c3038 	str	r3, [ip, #-56]	; 0xffffffc8
 c005f38:	e50c3034 	str	r3, [ip, #-52]	; 0xffffffcc
 c005f3c:	e50c3030 	str	r3, [ip, #-48]	; 0xffffffd0
 c005f40:	e50c302c 	str	r3, [ip, #-44]	; 0xffffffd4
 c005f44:	e50c3028 	str	r3, [ip, #-40]	; 0xffffffd8
 c005f48:	e50c3024 	str	r3, [ip, #-36]	; 0xffffffdc
 c005f4c:	e50c3020 	str	r3, [ip, #-32]	; 0xffffffe0
 c005f50:	e50c301c 	str	r3, [ip, #-28]	; 0xffffffe4
 c005f54:	e50c3018 	str	r3, [ip, #-24]	; 0xffffffe8
 c005f58:	e50c3014 	str	r3, [ip, #-20]	; 0xffffffec
 c005f5c:	e50c3010 	str	r3, [ip, #-16]
 c005f60:	e50c300c 	str	r3, [ip, #-12]
 c005f64:	e50c3008 	str	r3, [ip, #-8]
 c005f68:	e50c3004 	str	r3, [ip, #-4]
 c005f6c:	e06c4002 	rsb	r4, ip, r2
 c005f70:	e354003f 	cmp	r4, #63	; 0x3f
 c005f74:	e1a0400c 	mov	r4, ip
 c005f78:	e28cc040 	add	ip, ip, #64	; 0x40
 c005f7c:	caffffea 	bgt	c005f2c <memset+0x58>
 c005f80:	e1a0c004 	mov	ip, r4
 c005f84:	ea000003 	b	c005f98 <memset+0xc4>
 c005f88:	e50c3010 	str	r3, [ip, #-16]
 c005f8c:	e50c300c 	str	r3, [ip, #-12]
 c005f90:	e50c3008 	str	r3, [ip, #-8]
 c005f94:	e50c3004 	str	r3, [ip, #-4]
 c005f98:	e06c4002 	rsb	r4, ip, r2
 c005f9c:	e354000f 	cmp	r4, #15
 c005fa0:	e1a0400c 	mov	r4, ip
 c005fa4:	e28cc010 	add	ip, ip, #16
 c005fa8:	cafffff6 	bgt	c005f88 <memset+0xb4>
 c005fac:	ea000000 	b	c005fb4 <memset+0xe0>
 c005fb0:	e4843004 	str	r3, [r4], #4
 c005fb4:	e064c002 	rsb	ip, r4, r2
 c005fb8:	e35c0003 	cmp	ip, #3
 c005fbc:	cafffffb 	bgt	c005fb0 <memset+0xdc>
 c005fc0:	ea000000 	b	c005fc8 <memset+0xf4>
 c005fc4:	e4c41001 	strb	r1, [r4], #1
 c005fc8:	e1540002 	cmp	r4, r2
 c005fcc:	3afffffc 	bcc	c005fc4 <memset+0xf0>
 c005fd0:	eaffffca 	b	c005f00 <memset+0x2c>

0c005fd4 <strcat>:
 c005fd4:	e3100003 	tst	r0, #3
 c005fd8:	e92d4010 	push	{r4, lr}
 c005fdc:	e1a04000 	mov	r4, r0
 c005fe0:	1a000012 	bne	c006030 <strcat+0x5c>
 c005fe4:	e5900000 	ldr	r0, [r0]
 c005fe8:	e59f2070 	ldr	r2, [pc, #112]	; c006060 <strcat+0x8c>
 c005fec:	e59f3070 	ldr	r3, [pc, #112]	; c006064 <strcat+0x90>
 c005ff0:	e0802002 	add	r2, r0, r2
 c005ff4:	e1c22000 	bic	r2, r2, r0
 c005ff8:	e0023003 	and	r3, r2, r3
 c005ffc:	e3530000 	cmp	r3, #0
 c006000:	e1a00004 	mov	r0, r4
 c006004:	1a000009 	bne	c006030 <strcat+0x5c>
 c006008:	e284c004 	add	ip, r4, #4
 c00600c:	e1a0000c 	mov	r0, ip
 c006010:	e59f2048 	ldr	r2, [pc, #72]	; c006060 <strcat+0x8c>
 c006014:	e49ce004 	ldr	lr, [ip], #4
 c006018:	e59f3044 	ldr	r3, [pc, #68]	; c006064 <strcat+0x90>
 c00601c:	e08e2002 	add	r2, lr, r2
 c006020:	e1c2200e 	bic	r2, r2, lr
 c006024:	e0023003 	and	r3, r2, r3
 c006028:	e3530000 	cmp	r3, #0
 c00602c:	0afffff6 	beq	c00600c <strcat+0x38>
 c006030:	e5d03000 	ldrb	r3, [r0]
 c006034:	e3530000 	cmp	r3, #0
 c006038:	0a000004 	beq	c006050 <strcat+0x7c>
 c00603c:	e2803001 	add	r3, r0, #1
 c006040:	e1a00003 	mov	r0, r3
 c006044:	e4d32001 	ldrb	r2, [r3], #1
 c006048:	e3520000 	cmp	r2, #0
 c00604c:	1afffffb 	bne	c006040 <strcat+0x6c>
 c006050:	eb000004 	bl	c006068 <strcpy>
 c006054:	e1a00004 	mov	r0, r4
 c006058:	e8bd4010 	pop	{r4, lr}
 c00605c:	e12fff1e 	bx	lr
 c006060:	fefefeff 	.word	0xfefefeff
 c006064:	80808080 	.word	0x80808080

0c006068 <strcpy>:
 c006068:	e0202001 	eor	r2, r0, r1
 c00606c:	e1a0c000 	mov	ip, r0
 c006070:	e3120003 	tst	r2, #3
 c006074:	1a000032 	bne	c006144 <strcpy+0xdc>
 c006078:	e3110003 	tst	r1, #3
 c00607c:	1a000021 	bne	c006108 <strcpy+0xa0>
 c006080:	e52d5004 	push	{r5}		; (str r5, [sp, #-4]!)
 c006084:	e3a05001 	mov	r5, #1
 c006088:	e1855405 	orr	r5, r5, r5, lsl #8
 c00608c:	e1855805 	orr	r5, r5, r5, lsl #16
 c006090:	e52d4004 	push	{r4}		; (str r4, [sp, #-4]!)
 c006094:	e3110004 	tst	r1, #4
 c006098:	e4913004 	ldr	r3, [r1], #4
 c00609c:	0a000005 	beq	c0060b8 <strcpy+0x50>
 c0060a0:	e0432005 	sub	r2, r3, r5
 c0060a4:	e1d22003 	bics	r2, r2, r3
 c0060a8:	e1120385 	tst	r2, r5, lsl #7
 c0060ac:	048c3004 	streq	r3, [ip], #4
 c0060b0:	04913004 	ldreq	r3, [r1], #4
 c0060b4:	1a00000c 	bne	c0060ec <strcpy+0x84>
 c0060b8:	e4914004 	ldr	r4, [r1], #4
 c0060bc:	e0432005 	sub	r2, r3, r5
 c0060c0:	e1d22003 	bics	r2, r2, r3
 c0060c4:	e1120385 	tst	r2, r5, lsl #7
 c0060c8:	e0442005 	sub	r2, r4, r5
 c0060cc:	1a000006 	bne	c0060ec <strcpy+0x84>
 c0060d0:	e48c3004 	str	r3, [ip], #4
 c0060d4:	e1d22004 	bics	r2, r2, r4
 c0060d8:	e1120385 	tst	r2, r5, lsl #7
 c0060dc:	04913004 	ldreq	r3, [r1], #4
 c0060e0:	048c4004 	streq	r4, [ip], #4
 c0060e4:	0afffff3 	beq	c0060b8 <strcpy+0x50>
 c0060e8:	e1a03004 	mov	r3, r4
 c0060ec:	e4cc3001 	strb	r3, [ip], #1
 c0060f0:	e31300ff 	tst	r3, #255	; 0xff
 c0060f4:	e1a03463 	ror	r3, r3, #8
 c0060f8:	1afffffb 	bne	c0060ec <strcpy+0x84>
 c0060fc:	e49d4004 	pop	{r4}		; (ldr r4, [sp], #4)
 c006100:	e49d5004 	pop	{r5}		; (ldr r5, [sp], #4)
 c006104:	e12fff1e 	bx	lr
 c006108:	e3110001 	tst	r1, #1
 c00610c:	0a000003 	beq	c006120 <strcpy+0xb8>
 c006110:	e4d12001 	ldrb	r2, [r1], #1
 c006114:	e4cc2001 	strb	r2, [ip], #1
 c006118:	e3520000 	cmp	r2, #0
 c00611c:	012fff1e 	bxeq	lr
 c006120:	e3110002 	tst	r1, #2
 c006124:	0affffd5 	beq	c006080 <strcpy+0x18>
 c006128:	e0d120b2 	ldrh	r2, [r1], #2
 c00612c:	e31200ff 	tst	r2, #255	; 0xff
 c006130:	10cc20b2 	strhne	r2, [ip], #2
 c006134:	05cc2000 	strbeq	r2, [ip]
 c006138:	13120cff 	tstne	r2, #65280	; 0xff00
 c00613c:	1affffcf 	bne	c006080 <strcpy+0x18>
 c006140:	e12fff1e 	bx	lr
 c006144:	e4d12001 	ldrb	r2, [r1], #1
 c006148:	e4cc2001 	strb	r2, [ip], #1
 c00614c:	e3520000 	cmp	r2, #0
 c006150:	1afffffb 	bne	c006144 <strcpy+0xdc>
 c006154:	e12fff1e 	bx	lr

0c006158 <strlen>:
 c006158:	e3c01003 	bic	r1, r0, #3
 c00615c:	e2100003 	ands	r0, r0, #3
 c006160:	e2600000 	rsb	r0, r0, #0
 c006164:	e4913004 	ldr	r3, [r1], #4
 c006168:	e280c004 	add	ip, r0, #4
 c00616c:	e1a0c18c 	lsl	ip, ip, #3
 c006170:	e3e02000 	mvn	r2, #0
 c006174:	11833c32 	orrne	r3, r3, r2, lsr ip
 c006178:	e3a0c001 	mov	ip, #1
 c00617c:	e18cc40c 	orr	ip, ip, ip, lsl #8
 c006180:	e18cc80c 	orr	ip, ip, ip, lsl #16
 c006184:	e043200c 	sub	r2, r3, ip
 c006188:	e1c22003 	bic	r2, r2, r3
 c00618c:	e012238c 	ands	r2, r2, ip, lsl #7
 c006190:	04913004 	ldreq	r3, [r1], #4
 c006194:	02800004 	addeq	r0, r0, #4
 c006198:	0afffff9 	beq	c006184 <strlen+0x2c>
 c00619c:	e31300ff 	tst	r3, #255	; 0xff
 c0061a0:	12800001 	addne	r0, r0, #1
 c0061a4:	13130cff 	tstne	r3, #65280	; 0xff00
 c0061a8:	12800001 	addne	r0, r0, #1
 c0061ac:	131308ff 	tstne	r3, #16711680	; 0xff0000
 c0061b0:	12800001 	addne	r0, r0, #1
 c0061b4:	e12fff1e 	bx	lr
